 zmq

 Timestamp is 5ce145aa (Sun May 19 20:01:46 2019)

 Preferred load address is 0000000180000000

 Start         Length     Name                   Class
 0001:00000000 00000370H .text$di                CODE
 0001:00000370 00075610H .text$mn                CODE
 0001:00075980 00000020H .text$mn$00             CODE
 0001:000759a0 00002eb0H .text$x                 CODE
 0001:00078850 0000047cH .text$yd                CODE
 0002:00000000 00000458H .idata$5                DATA
 0002:00000458 00000010H .00cfg                  DATA
 0002:00000468 00000008H .CRT$XCA                DATA
 0002:00000470 00000018H .CRT$XCC                DATA
 0002:00000488 00000010H .CRT$XCL                DATA
 0002:00000498 00000068H .CRT$XCU                DATA
 0002:00000500 00000008H .CRT$XCZ                DATA
 0002:00000508 00000008H .CRT$XIA                DATA
 0002:00000510 00000030H .CRT$XIC                DATA
 0002:00000540 00000008H .CRT$XIZ                DATA
 0002:00000548 00000008H .CRT$XLA                DATA
 0002:00000550 00000008H .CRT$XLZ                DATA
 0002:00000558 00000008H .CRT$XPA                DATA
 0002:00000560 00000010H .CRT$XPX                DATA
 0002:00000570 00000008H .CRT$XPXA               DATA
 0002:00000578 00000008H .CRT$XPZ                DATA
 0002:00000580 00000008H .CRT$XTA                DATA
 0002:00000588 00000008H .CRT$XTZ                DATA
 0002:00000590 000194c8H .rdata                  DATA
 0002:00019a58 00000028H .rdata$T                DATA
 0002:00019a80 0000492cH .rdata$r                DATA
 0002:0001e3ac 0000048cH .rdata$zzzdbg           DATA
 0002:0001e838 00000008H .rtc$IAA                DATA
 0002:0001e840 00000008H .rtc$IZZ                DATA
 0002:0001e848 00000008H .rtc$TAA                DATA
 0002:0001e850 00000010H .rtc$TZZ                DATA
 0002:0001e860 0000b078H .xdata                  DATA
 0002:000298d8 000003ccH .xdata$x                DATA
 0002:00029ca4 00000020H .didat$2                DATA
 0002:00029cc4 00000024H .didat$3                DATA
 0002:00029ce8 00000278H .didat$4                DATA
 0002:00029f60 000013d8H .didat$6                DATA
 0002:0002b338 00000278H .didat$7                DATA
 0002:0002b5b0 0000004cH .edata                  DATA
 0002:0002b5fc 00000050H .idata$2                DATA
 0002:0002b64c 00000014H .idata$3                DATA
 0002:0002b660 00000458H .idata$4                DATA
 0002:0002bab8 0000086aH .idata$6                DATA
 0003:00000000 00000c10H .data                   DATA
 0003:00000c10 00001458H .data$r                 DATA
 0003:00002068 00000278H .didat$5                DATA
 0003:000022e0 00001964H .bss                    DATA
 0004:00000000 00006c84H .pdata                  DATA
 0005:00000000 0000015cH .gfids$y                DATA
 0006:00000000 00000004H .tls                    DATA
 0006:00000004 00000004H .tls$                   DATA
 0006:00000008 00000001H .tls$ZZZ                DATA
 0007:00000000 00000060H .rsrc$01                DATA
 0007:00000060 00000180H .rsrc$02                DATA

  Address         Publics by Value              Rva+Base               Lib:Object

 0000:00000000       __dynamic_value_reloc_table 0000000000000000     <absolute>
 0000:00000000       __guard_iat_count          0000000000000000     <absolute>
 0000:00000000       __guard_iat_table          0000000000000000     <absolute>
 0000:00000000       __guard_fids_count         0000000000000000     <absolute>
 0000:00000000       __guard_longjmp_table      0000000000000000     <absolute>
 0000:00000000       ___safe_se_handler_table   0000000000000000     <absolute>
 0000:00000000       __guard_longjmp_count      0000000000000000     <absolute>
 0000:00000000       ___safe_se_handler_count   0000000000000000     <absolute>
 0000:00000000       __guard_fids_table         0000000000000000     <absolute>
 0000:00000100       __guard_flags              0000000000000100     <absolute>
 0000:00000000       __ImageBase                0000000180000000     <linker-defined>
 0001:00000370       __local_stdio_printf_options 0000000180001370 f i binding.obj
 0001:00000380       sprintf                    0000000180001380 f i binding.obj
 0001:000003e0       ?_Deallocate@std@@YAXPEAX_K1@Z 00000001800013e0 f i binding.obj
 0001:000006c0       ?New@?$Factory@VFunctionTemplate@v8@@@imp@Nan@@SA?AV?$Local@VFunctionTemplate@v8@@@v8@@P6AXAEBV?$FunctionCallbackInfo@VValue@v8@@@3@@ZV?$Local@VValue@v8@@@5@V?$Local@VSignature@v8@@@5@@Z 00000001800016c0 f i binding.obj
 0001:000008a0       ?ThrowError@Nan@@YAXPEBD@Z 00000001800018a0 f i binding.obj
 0001:00000930       ?ThrowRangeError@Nan@@YAXPEBD@Z 0000000180001930 f i binding.obj
 0001:000009c0       ?ThrowTypeError@Nan@@YAXPEBD@Z 00000001800019c0 f i binding.obj
 0001:00000a50       ??0Utf8String@Nan@@QEAA@V?$Local@VValue@v8@@@v8@@@Z 0000000180001a50 f i binding.obj
 0001:00000b60       ?SetPrototypeMethod@Nan@@YAXV?$Local@VFunctionTemplate@v8@@@v8@@PEBDP6AXAEBV?$FunctionCallbackInfo@VValue@v8@@@1@@Z@Z 0000000180001b60 f i binding.obj
 0001:00000c50       ?SetAccessor@Nan@@YAXV?$Local@VObjectTemplate@v8@@@v8@@V?$Local@VString@v8@@@3@P6AX1AEBV?$PropertyCallbackInfo@VValue@v8@@@1@@ZP6AX1V?$Local@VValue@v8@@@3@AEBV?$PropertyCallbackInfo@X@1@@Z4W4AccessControl@3@W4PropertyAttribute@3@V?$Local@VAccessorSignature@v8@@@3@@Z 0000000180001c50 f i binding.obj
 0001:00000e00       ?Wrap@ObjectWrap@Nan@@IEAAXV?$Local@VObject@v8@@@v8@@@Z 0000000180001e00 f i binding.obj
 0001:00000ee0       ?Ref@ObjectWrap@Nan@@MEAAXXZ 0000000180001ee0 f i binding.obj
 0001:00000f20       ?Unref@ObjectWrap@Nan@@MEAAXXZ 0000000180001f20 f i binding.obj
 0001:00000fd0       ?WeakCallback@ObjectWrap@Nan@@CAXAEBV?$WeakCallbackInfo@VObjectWrap@Nan@@@v8@@@Z 0000000180001fd0 f i binding.obj
 0001:00001030       ??_GObjectWrap@Nan@@UEAAPEAXI@Z 0000000180002030 f i binding.obj
 0001:00001030       ??_EObjectWrap@Nan@@UEAAPEAXI@Z 0000000180002030 f i * CIL library *:* CIL module *
 0001:00001090       ?Initialize@Context@zmq@@SAXV?$Local@VObject@v8@@@v8@@@Z 0000000180002090 f   binding.obj
 0001:000012d0       ??1Context@zmq@@UEAA@XZ    00000001800022d0 f   binding.obj
 0001:00001350       ??_EContext@zmq@@UEAAPEAXI@Z 0000000180002350 f i * CIL library *:* CIL module *
 0001:00001350       ??_GContext@zmq@@UEAAPEAXI@Z 0000000180002350 f i binding.obj
 0001:00001390       ?New@Context@zmq@@CAXAEBV?$FunctionCallbackInfo@VValue@v8@@@Nan@@@Z 0000000180002390 f   binding.obj
 0001:00001560       ?Close@Context@zmq@@CAXAEBV?$FunctionCallbackInfo@VValue@v8@@@Nan@@@Z 0000000180002560 f   binding.obj
 0001:000015c0       ?SetOpt@Context@zmq@@CAXAEBV?$FunctionCallbackInfo@VValue@v8@@@Nan@@@Z 00000001800025c0 f   binding.obj
 0001:000018b0       ?GetOpt@Context@zmq@@CAXAEBV?$FunctionCallbackInfo@VValue@v8@@@Nan@@@Z 00000001800028b0 f   binding.obj
 0001:00001ac0       ?Initialize@Socket@zmq@@SAXV?$Local@VObject@v8@@@v8@@@Z 0000000180002ac0 f   binding.obj
 0001:000020e0       ??_ESocket@zmq@@UEAAPEAXI@Z 00000001800030e0 f i * CIL library *:* CIL module *
 0001:000020e0       ??_GSocket@zmq@@UEAAPEAXI@Z 00000001800030e0 f i binding.obj
 0001:00002150       ?New@Socket@zmq@@CAXAEBV?$FunctionCallbackInfo@VValue@v8@@@Nan@@@Z 0000000180003150 f   binding.obj
 0001:000023a0       ?PollForEvents@Socket@zmq@@AEAAFXZ 00000001800033a0 f   binding.obj
 0001:00002420       ?NotifyReadReady@Socket@zmq@@QEAAXXZ 0000000180003420 f   binding.obj
 0001:00002560       ?NotifySendReady@Socket@zmq@@QEAAXXZ 0000000180003560 f   binding.obj
 0001:000026a0       ?UV_PollCallback@Socket@zmq@@CAXPEAUuv_poll_s@@HH@Z 00000001800036a0 f   binding.obj
 0001:00002780       ?MonitorEvent@Socket@zmq@@QEAAXGHPEAD@Z 0000000180003780 f   binding.obj
 0001:00002ad0       ?MonitorError@Socket@zmq@@QEAAXPEBD@Z 0000000180003ad0 f   binding.obj
 0001:00002c80       ?UV_MonitorCallback@Socket@zmq@@CAXPEAUuv_timer_s@@H@Z 0000000180003c80 f   binding.obj
 0001:00002ef0       ??0Socket@zmq@@AEAA@PEAVContext@1@H@Z 0000000180003ef0 f   binding.obj
 0001:00003030       ?GetState@Socket@zmq@@CAXV?$Local@VString@v8@@@v8@@AEBV?$PropertyCallbackInfo@VValue@v8@@@Nan@@@Z 0000000180004030 f   binding.obj
 0001:000030f0       ?GetPending@Socket@zmq@@CAXV?$Local@VString@v8@@@v8@@AEBV?$PropertyCallbackInfo@VValue@v8@@@Nan@@@Z 00000001800040f0 f   binding.obj
 0001:00003140       ?SetPending@Socket@zmq@@CAXV?$Local@VString@v8@@@v8@@V?$Local@VValue@v8@@@4@AEBV?$PropertyCallbackInfo@X@Nan@@@Z 0000000180004140 f   binding.obj
 0001:00003280       ??$GetSockOpt@PEAD@Socket@zmq@@AEAA?AV?$Local@VValue@v8@@@v8@@H@Z 0000000180004280 f   binding.obj
 0001:00003400       ??$SetSockOpt@PEAD@Socket@zmq@@AEAA?AV?$Local@VValue@v8@@@v8@@HV23@@Z 0000000180004400 f   binding.obj
 0001:000035b0       ?GetSockOpt@Socket@zmq@@CAXAEBV?$FunctionCallbackInfo@VValue@v8@@@Nan@@@Z 00000001800045b0 f   binding.obj
 0001:000038c0       ?SetSockOpt@Socket@zmq@@CAXAEBV?$FunctionCallbackInfo@VValue@v8@@@Nan@@@Z 00000001800048c0 f   binding.obj
 0001:00003c20       ?AttachToEventLoop@Socket@zmq@@CAXAEBV?$FunctionCallbackInfo@VValue@v8@@@Nan@@@Z 0000000180004c20 f   binding.obj
 0001:00003d00       ?DetachFromEventLoop@Socket@zmq@@CAXAEBV?$FunctionCallbackInfo@VValue@v8@@@Nan@@@Z 0000000180004d00 f   binding.obj
 0001:00003de0       ??0BindState@Socket@zmq@@QEAA@PEAV12@V?$Local@VFunction@v8@@@v8@@V?$Local@VString@v8@@@4@@Z 0000000180004de0 f i binding.obj
 0001:00003ec0       ?Bind@Socket@zmq@@CAXAEBV?$FunctionCallbackInfo@VValue@v8@@@Nan@@@Z 0000000180004ec0 f   binding.obj
 0001:000040b0       ?UV_BindAsync@Socket@zmq@@CAXPEAUuv_work_s@@@Z 00000001800050b0 f   binding.obj
 0001:000040e0       ?UV_BindAsyncAfter@Socket@zmq@@CAXPEAUuv_work_s@@@Z 00000001800050e0 f   binding.obj
 0001:00004340       ?BindSync@Socket@zmq@@CAXAEBV?$FunctionCallbackInfo@VValue@v8@@@Nan@@@Z 0000000180005340 f   binding.obj
 0001:00004510       ?Unbind@Socket@zmq@@CAXAEBV?$FunctionCallbackInfo@VValue@v8@@@Nan@@@Z 0000000180005510 f   binding.obj
 0001:00004700       ?UV_UnbindAsync@Socket@zmq@@CAXPEAUuv_work_s@@@Z 0000000180005700 f   binding.obj
 0001:00004730       ?UV_UnbindAsyncAfter@Socket@zmq@@CAXPEAUuv_work_s@@@Z 0000000180005730 f   binding.obj
 0001:00004950       ?UnbindSync@Socket@zmq@@CAXAEBV?$FunctionCallbackInfo@VValue@v8@@@Nan@@@Z 0000000180005950 f   binding.obj
 0001:00004b20       ?Connect@Socket@zmq@@CAXAEBV?$FunctionCallbackInfo@VValue@v8@@@Nan@@@Z 0000000180005b20 f   binding.obj
 0001:00004d00       ?Disconnect@Socket@zmq@@CAXAEBV?$FunctionCallbackInfo@VValue@v8@@@Nan@@@Z 0000000180005d00 f   binding.obj
 0001:00004ed0       ?GetBuffer@IncomingMessage@Socket@zmq@@QEAA?AV?$Local@VValue@v8@@@v8@@XZ 0000000180005ed0 f i binding.obj
 0001:00004fe0       ?FreeCallback@IncomingMessage@Socket@zmq@@CAXPEADPEAX@Z 0000000180005fe0 f i binding.obj
 0001:00005020       ?Monitor@Socket@zmq@@CAXAEBV?$FunctionCallbackInfo@VValue@v8@@@Nan@@@Z 0000000180006020 f   binding.obj
 0001:00005380       ?Unmonitor@Socket@zmq@@AEAAXXZ 0000000180006380 f   binding.obj
 0001:000053f0       ?Unmonitor@Socket@zmq@@CAXAEBV?$FunctionCallbackInfo@VValue@v8@@@Nan@@@Z 00000001800063f0 f   binding.obj
 0001:00005470       ?Readv@Socket@zmq@@CAXAEBV?$FunctionCallbackInfo@VValue@v8@@@Nan@@@Z 0000000180006470 f   binding.obj
 0001:00005850       ?Recv@Socket@zmq@@CAXAEBV?$FunctionCallbackInfo@VValue@v8@@@Nan@@@Z 0000000180006850 f   binding.obj
 0001:00005b50       ?Sendv@Socket@zmq@@CAXAEBV?$FunctionCallbackInfo@VValue@v8@@@Nan@@@Z 0000000180006b50 f   binding.obj
 0001:00005ec0       ?Send@Socket@zmq@@CAXAEBV?$FunctionCallbackInfo@VValue@v8@@@Nan@@@Z 0000000180006ec0 f   binding.obj
 0001:00006110       ?Close@Socket@zmq@@AEAAXXZ 0000000180007110 f   binding.obj
 0001:000061b0       ?Close@Socket@zmq@@CAXAEBV?$FunctionCallbackInfo@VValue@v8@@@Nan@@@Z 00000001800071b0 f   binding.obj
 0001:00007fe0       init                       0000000180008fe0 f   binding.obj
 0001:00008000       ?count@?$_Tree@V?$_Tset_traits@HU?$less@H@std@@V?$allocator@H@2@$0A@@std@@@std@@QEBA_KAEBH@Z 0000000180009000 f i binding.obj
 0001:000080e0       ?_Erase@?$_Tree@V?$_Tset_traits@HU?$less@H@std@@V?$allocator@H@2@$0A@@std@@@std@@IEAAXPEAU?$_Tree_node@HPEAX@2@@Z 00000001800090e0 f i binding.obj
 0001:000080e0       ?_Erase@?$_Tree@V?$_Tset_traits@PEAVown_t@zmq@@U?$less@PEAVown_t@zmq@@@std@@V?$allocator@PEAVown_t@zmq@@@4@$0A@@std@@@std@@IEAAXPEAU?$_Tree_node@PEAVown_t@zmq@@PEAX@2@@Z 00000001800090e0 f i libzmq:own.obj
 0001:000080e0       ?_Erase@?$_Tree@V?$_Tmap_traits@IUoutpipe_t@server_t@zmq@@U?$less@I@std@@V?$allocator@U?$pair@$$CBIUoutpipe_t@server_t@zmq@@@std@@@5@$0A@@std@@@std@@IEAAXPEAU?$_Tree_node@U?$pair@$$CBIUoutpipe_t@server_t@zmq@@@std@@PEAX@2@@Z 00000001800090e0 f i libzmq:server.obj
 0001:000080e0       ?_Erase@?$_Tree@V?$_Tmap_traits@_KUtimer_info_t@poller_base_t@zmq@@U?$less@_K@std@@V?$allocator@U?$pair@$$CB_KUtimer_info_t@poller_base_t@zmq@@@std@@@5@$00@std@@@std@@IEAAXPEAU?$_Tree_node@U?$pair@$$CB_KUtimer_info_t@poller_base_t@zmq@@@std@@PEAX@2@@Z 00000001800090e0 f i libzmq:poller_base.obj
 0001:000080e0       ?_Erase@?$_Tree@V?$_Tset_traits@PEAVpipe_t@zmq@@U?$less@PEAVpipe_t@zmq@@@std@@V?$allocator@PEAVpipe_t@zmq@@@4@$0A@@std@@@std@@IEAAXPEAU?$_Tree_node@PEAVpipe_t@zmq@@PEAX@2@@Z 00000001800090e0 f i libzmq:session_base.obj
 0001:00008130       ??$Unwrap@VContext@zmq@@@ObjectWrap@Nan@@SAPEAVContext@zmq@@V?$Local@VObject@v8@@@v8@@@Z 0000000180009130 f i binding.obj
 0001:00008130       ??$Unwrap@VSocket@zmq@@@ObjectWrap@Nan@@SAPEAVSocket@zmq@@V?$Local@VObject@v8@@@v8@@@Z 0000000180009130 f i binding.obj
 0001:000081b0       ??$GetSockOpt@H@Socket@zmq@@AEAA?AV?$Local@VValue@v8@@@v8@@H@Z 00000001800091b0 f i binding.obj
 0001:00008310       ??$GetSockOpt@I@Socket@zmq@@AEAA?AV?$Local@VValue@v8@@@v8@@H@Z 0000000180009310 f i binding.obj
 0001:00008470       ??$GetSockOpt@_J@Socket@zmq@@AEAA?AV?$Local@VValue@v8@@@v8@@H@Z 0000000180009470 f i binding.obj
 0001:000085d0       ??$GetSockOpt@_K@Socket@zmq@@AEAA?AV?$Local@VValue@v8@@@v8@@H@Z 00000001800095d0 f i binding.obj
 0001:00008740       ??$SetSockOpt@H@Socket@zmq@@AEAA?AV?$Local@VValue@v8@@@v8@@HV23@@Z 0000000180009740 f i binding.obj
 0001:00008930       ??$SetSockOpt@I@Socket@zmq@@AEAA?AV?$Local@VValue@v8@@@v8@@HV23@@Z 0000000180009930 f i binding.obj
 0001:00008b20       ??$SetSockOpt@_J@Socket@zmq@@AEAA?AV?$Local@VValue@v8@@@v8@@HV23@@Z 0000000180009b20 f i binding.obj
 0001:00008d20       ??$_snprintf_s@$0BA@@@YAHAEAY0BA@D_KPEBDZZ 0000000180009d20 f i binding.obj
 0001:00008d80       ??$SetMethod@VObject@v8@@VLocal@2@@Nan@@YAXV?$Local@VObject@v8@@@v8@@PEBDP6AXAEBV?$FunctionCallbackInfo@VValue@v8@@@0@@Z@Z 0000000180009d80 f i binding.obj
 0001:00008e30       ??$destroy@PEAU?$_Tree_node@HPEAX@std@@@?$_Wrap_alloc@V?$allocator@U?$_Tree_node@HPEAX@std@@@std@@@std@@QEAAXPEAPEAU?$_Tree_node@HPEAX@1@@Z 0000000180009e30 f i binding.obj
 0001:00008e30       _guard_check_icall_nop     0000000180009e30 f i LIBCMT:guard_support.obj
 0001:00008e30       ?xwrite_activated@pair_t@zmq@@UEAAXPEAVpipe_t@2@@Z 0000000180009e30 f i libzmq:pair.obj
 0001:00008e30       ??3@YAXPEAX0@Z             0000000180009e30 f i libzmq:ctx.obj
 0001:00008e30       __except_validate_context_record 0000000180009e30 f i libvcruntime:jbcxrval.obj
 0001:00008e30       ?_Unlock@?$basic_streambuf@DU?$char_traits@D@std@@@std@@UEAAXXZ 0000000180009e30 f i libzmq:tcp_address.obj
 0001:00008e30       ?imbue@?$basic_streambuf@DU?$char_traits@D@std@@@std@@MEAAXAEBVlocale@2@@Z 0000000180009e30 f i libzmq:tcp_address.obj
 0001:00008e30       ?xread_activated@pair_t@zmq@@UEAAXPEAVpipe_t@2@@Z 0000000180009e30 f i libzmq:pair.obj
 0001:00008e30       ??1clock_t@zmq@@QEAA@XZ    0000000180009e30 f i libzmq:clock.obj
 0001:00008e30       ?_Lock@?$basic_streambuf@DU?$char_traits@D@std@@@std@@UEAAXXZ 0000000180009e30 f i libzmq:tcp_address.obj
 0001:00008e30       ?resize_buffer@raw_decoder_t@zmq@@UEAAX_K@Z 0000000180009e30 f i libzmq:raw_decoder.obj
 0001:00008e30       ?xread_activated@dgram_t@zmq@@UEAAXPEAVpipe_t@2@@Z 0000000180009e30 f i libzmq:dgram.obj
 0001:00008e30       ??$destroy@H@?$_Wrap_alloc@V?$allocator@U?$_Tree_node@HPEAX@std@@@std@@@std@@QEAAXPEAH@Z 0000000180009e30 f i binding.obj
 0001:00008e30       ?zap_msg_available@udp_engine_t@zmq@@UEAAXXZ 0000000180009e30 f i libzmq:udp_engine.obj
 0001:00008e30       ?xwrite_activated@dgram_t@zmq@@UEAAXPEAVpipe_t@2@@Z 0000000180009e30 f i libzmq:dgram.obj
 0001:00008e30       ?reset@session_base_t@zmq@@UEAAXXZ 0000000180009e30 f i libzmq:session_base.obj
 0001:00008e30       ?setSchedulingParameters@thread_t@zmq@@QEAAXHH@Z 0000000180009e30 f i libzmq:thread.obj
 0001:00008e40       ??$_Insert_nohint@HU_Nil@std@@@?$_Tree@V?$_Tset_traits@HU?$less@H@std@@V?$allocator@H@2@$0A@@std@@@std@@IEAA?AU?$pair@V?$_Tree_const_iterator@V?$_Tree_val@U?$_Tree_simple_types@H@std@@@std@@@std@@_N@1@_N$$QEAHU_Nil@1@@Z 0000000180009e40 f i binding.obj
 0001:00008f90       ??$SetMethodAux@V?$Local@VObject@v8@@@v8@@@imp@Nan@@YAXV?$Local@VObject@v8@@@v8@@V?$Local@VString@v8@@@3@V?$Local@VFunctionTemplate@v8@@@3@ZZ 0000000180009f90 f i binding.obj
 0001:00009080       ?setbuf@?$basic_streambuf@DU?$char_traits@D@std@@@std@@MEAAPEAV12@PEAD_J@Z 000000018000a080 f i libzmq:tcp_address.obj
 0001:00009080       ??0?$_Wrap_alloc@V?$allocator@U?$_Tree_node@HPEAX@std@@@std@@@std@@QEAA@XZ 000000018000a080 f i binding.obj
 0001:00009090       ??$_Insert_at@HU_Nil@std@@@?$_Tree@V?$_Tset_traits@HU?$less@H@std@@V?$allocator@H@2@$0A@@std@@@std@@IEAA?AV?$_Tree_const_iterator@V?$_Tree_val@U?$_Tree_simple_types@H@std@@@std@@@1@_NPEAU?$_Tree_node@HPEAX@1@$$QEAHU_Nil@1@@Z 000000018000a090 f i binding.obj
 0001:000093ec       __imp_load_uv_unref        000000018000a3ec f   node:node.exe
 0001:000093f8       __tailMerge_node_exe       000000018000a3f8 f i node:node.exe
 0001:00009471       __imp_load_uv_queue_work   000000018000a471 f   node:node.exe
 0001:0000947d       __imp_load_?Global@Context@v8@@QEAA?AV?$Local@VObject@v8@@@2@XZ 000000018000a47d f   node:node.exe
 0001:00009489       __imp_load_?Value@External@v8@@QEBAPEAXXZ 000000018000a489 f   node:node.exe
 0001:00009495       __imp_load_?New@External@v8@@SA?AV?$Local@VExternal@v8@@@2@PEAVIsolate@2@PEAX@Z 000000018000a495 f   node:node.exe
 0001:000094a1       __imp_load_?New@Integer@v8@@SA?AV?$Local@VInteger@v8@@@2@PEAVIsolate@2@H@Z 000000018000a4a1 f   node:node.exe
 0001:000094ad       __imp_load_?New@Signature@v8@@SA?AV?$Local@VSignature@v8@@@2@PEAVIsolate@2@V?$Local@VFunctionTemplate@v8@@@2@@Z 000000018000a4ad f   node:node.exe
 0001:000094b9       __imp_load_?ThrowException@Isolate@v8@@QEAA?AV?$Local@VValue@v8@@@2@V32@@Z 000000018000a4b9 f   node:node.exe
 0001:000094c5       __imp_load_?GetCurrentContext@Isolate@v8@@QEAA?AV?$Local@VContext@v8@@@2@XZ 000000018000a4c5 f   node:node.exe
 0001:000094d1       __imp_load_?GetCurrent@Isolate@v8@@SAPEAV12@XZ 000000018000a4d1 f   node:node.exe
 0001:000094dd       __imp_load_?CreateHandle@HandleScope@v8@@KAPEAPEAVObject@internal@2@PEAVIsolate@42@PEAV342@@Z 000000018000a4dd f   node:node.exe
 0001:000094e9       __imp_load_?CreateHandle@HandleScope@v8@@CAPEAPEAVObject@internal@2@PEAVHeapObject@42@PEAV342@@Z 000000018000a4e9 f   node:node.exe
 0001:000094f5       __imp_load_??1HandleScope@v8@@QEAA@XZ 000000018000a4f5 f   node:node.exe
 0001:00009501       __imp_load_??0HandleScope@v8@@QEAA@PEAVIsolate@1@@Z 000000018000a501 f   node:node.exe
 0001:0000950d       __imp_load_?Set@Template@v8@@QEAAXV?$Local@VName@v8@@@2@V?$Local@VData@v8@@@2@W4PropertyAttribute@2@@Z 000000018000a50d f   node:node.exe
 0001:00009519       __imp_load_?Error@Exception@v8@@SA?AV?$Local@VValue@v8@@@2@V?$Local@VString@v8@@@2@@Z 000000018000a519 f   node:node.exe
 0001:00009525       __imp_load_?TypeError@Exception@v8@@SA?AV?$Local@VValue@v8@@@2@V?$Local@VString@v8@@@2@@Z 000000018000a525 f   node:node.exe
 0001:00009531       __imp_load_?RangeError@Exception@v8@@SA?AV?$Local@VValue@v8@@@2@V?$Local@VString@v8@@@2@@Z 000000018000a531 f   node:node.exe
 0001:0000953d       __imp_load_?New@Array@v8@@SA?AV?$Local@VArray@v8@@@2@PEAVIsolate@2@H@Z 000000018000a53d f   node:node.exe
 0001:00009549       __imp_load_?Length@Array@v8@@QEBAIXZ 000000018000a549 f   node:node.exe
 0001:00009555       __imp_load_?SetClassName@FunctionTemplate@v8@@QEAAXV?$Local@VString@v8@@@2@@Z 000000018000a555 f   node:node.exe
 0001:00009561       __imp_load_?PrototypeTemplate@FunctionTemplate@v8@@QEAA?AV?$Local@VObjectTemplate@v8@@@2@XZ 000000018000a561 f   node:node.exe
 0001:0000956d       __imp_load_?InstanceTemplate@FunctionTemplate@v8@@QEAA?AV?$Local@VObjectTemplate@v8@@@2@XZ 000000018000a56d f   node:node.exe
 0001:00009579       __imp_load_?GetFunction@FunctionTemplate@v8@@QEAA?AV?$MaybeLocal@VFunction@v8@@@2@V?$Local@VContext@v8@@@2@@Z 000000018000a579 f   node:node.exe
 0001:00009585       __imp_load_?New@FunctionTemplate@v8@@SA?AV?$Local@VFunctionTemplate@v8@@@2@PEAVIsolate@2@P6AXAEBV?$FunctionCallbackInfo@VValue@v8@@@2@@ZV?$Local@VValue@v8@@@2@V?$Local@VSignature@v8@@@2@HW4ConstructorBehavior@2@@Z 000000018000a585 f   node:node.exe
 0001:00009591       __imp_load_?ToLocalEmpty@V8@v8@@CAXXZ 000000018000a591 f   node:node.exe
 0001:0000959d       __imp_load_?FromJustIsNothing@V8@v8@@CAXXZ 000000018000a59d f   node:node.exe
 0001:000095a9       __imp_load_?ClearWeak@V8@v8@@CAPEAXPEAPEAVObject@internal@2@@Z 000000018000a5a9 f   node:node.exe
 0001:000095b5       __imp_load_?MakeWeak@V8@v8@@CAXPEAPEAVObject@internal@2@PEAXP6AXAEBV?$WeakCallbackInfo@X@2@@ZW4WeakCallbackType@2@@Z 000000018000a5b5 f   node:node.exe
 0001:000095c1       __imp_load_?DisposeGlobal@V8@v8@@CAXPEAPEAVObject@internal@2@@Z 000000018000a5c1 f   node:node.exe
 0001:000095cd       __imp_load_?GlobalizeReference@V8@v8@@CAPEAPEAVObject@internal@2@PEAVIsolate@42@PEAPEAV342@@Z 000000018000a5cd f   node:node.exe
 0001:000095d9       __imp_load_?Int32Value@Value@v8@@QEBA?AV?$Maybe@H@2@V?$Local@VContext@v8@@@2@@Z 000000018000a5d9 f   node:node.exe
 0001:000095e5       __imp_load_?Uint32Value@Value@v8@@QEBA?AV?$Maybe@I@2@V?$Local@VContext@v8@@@2@@Z 000000018000a5e5 f   node:node.exe
 0001:000095f1       __imp_load_?IntegerValue@Value@v8@@QEBA?AV?$Maybe@_J@2@V?$Local@VContext@v8@@@2@@Z 000000018000a5f1 f   node:node.exe
 0001:000095fd       __imp_load_?BooleanValue@Value@v8@@QEBA?AV?$Maybe@_N@2@V?$Local@VContext@v8@@@2@@Z 000000018000a5fd f   node:node.exe
 0001:00009609       __imp_load_?ToInteger@Value@v8@@QEBA?AV?$MaybeLocal@VInteger@v8@@@2@V?$Local@VContext@v8@@@2@@Z 000000018000a609 f   node:node.exe
 0001:00009615       __imp_load_?IsNumber@Value@v8@@QEBA_NXZ 000000018000a615 f   node:node.exe
 0001:00009621       __imp_load_?IsBoolean@Value@v8@@QEBA_NXZ 000000018000a621 f   node:node.exe
 0001:0000962d       __imp_load_?IsFunction@Value@v8@@QEBA_NXZ 000000018000a62d f   node:node.exe
 0001:00009639       __imp_load_?Escape@EscapableHandleScope@v8@@AEAAPEAPEAVObject@internal@2@PEAPEAV342@@Z 000000018000a639 f   node:node.exe
 0001:00009645       __imp_load_??0EscapableHandleScope@v8@@QEAA@PEAVIsolate@1@@Z 000000018000a645 f   node:node.exe
 0001:00009651       __imp_load_?NewFromUtf8@String@v8@@SA?AV?$Local@VString@v8@@@2@PEAVIsolate@2@PEBDW4NewStringType@12@H@Z 000000018000a651 f   node:node.exe
 0001:0000965d       __imp_load_?NewFromUtf8@String@v8@@SA?AV?$MaybeLocal@VString@v8@@@2@PEAVIsolate@2@PEBDW4NewStringType@2@H@Z 000000018000a65d f   node:node.exe
 0001:00009669       __imp_load_?WriteUtf8@String@v8@@QEBAHPEADHPEAHH@Z 000000018000a669 f   node:node.exe
 0001:00009675       __imp_load_?Length@String@v8@@QEBAHXZ 000000018000a675 f   node:node.exe
 0001:00009681       __imp_load_?New@Number@v8@@SA?AV?$Local@VNumber@v8@@@2@PEAVIsolate@2@N@Z 000000018000a681 f   node:node.exe
 0001:0000968d       __imp_load_?SlowGetAlignedPointerFromInternalField@Object@v8@@AEAAPEAXH@Z 000000018000a68d f   node:node.exe
 0001:00009699       __imp_load_?SlowGetInternalField@Object@v8@@AEAA?AV?$Local@VValue@v8@@@2@H@Z 000000018000a699 f   node:node.exe
 0001:000096a5       __imp_load_?New@Object@v8@@SA?AV?$Local@VObject@v8@@@2@PEAVIsolate@2@@Z 000000018000a6a5 f   node:node.exe
 0001:000096b1       __imp_load_?GetIsolate@Object@v8@@QEAAPEAVIsolate@2@XZ 000000018000a6b1 f   node:node.exe
 0001:000096bd       __imp_load_?SetAlignedPointerInInternalField@Object@v8@@QEAAXHPEAX@Z 000000018000a6bd f   node:node.exe
 0001:000096c9       __imp_load_?SetInternalField@Object@v8@@QEAAXHV?$Local@VValue@v8@@@2@@Z 000000018000a6c9 f   node:node.exe
 0001:000096d5       __imp_load_?InternalFieldCount@Object@v8@@QEAAHXZ 000000018000a6d5 f   node:node.exe
 0001:000096e1       __imp_load_?Get@Object@v8@@QEAA?AV?$MaybeLocal@VValue@v8@@@2@V?$Local@VContext@v8@@@2@V?$Local@VValue@v8@@@2@@Z 000000018000a6e1 f   node:node.exe
 0001:000096ed       __imp_load_?Get@Object@v8@@QEAA?AV?$Local@VValue@v8@@@2@I@Z 000000018000a6ed f   node:node.exe
 0001:000096f9       __imp_load_?DefineOwnProperty@Object@v8@@QEAA?AV?$Maybe@_N@2@V?$Local@VContext@v8@@@2@V?$Local@VName@v8@@@2@V?$Local@VValue@v8@@@2@W4PropertyAttribute@2@@Z 000000018000a6f9 f   node:node.exe
 0001:00009705       __imp_load_?Set@Object@v8@@QEAA?AV?$Maybe@_N@2@V?$Local@VContext@v8@@@2@V?$Local@VValue@v8@@@2@1@Z 000000018000a705 f   node:node.exe
 0001:00009711       __imp_load_?Set@Object@v8@@QEAA?AV?$Maybe@_N@2@V?$Local@VContext@v8@@@2@IV?$Local@VValue@v8@@@2@@Z 000000018000a711 f   node:node.exe
 0001:0000971d       __imp_load_?SetInternalFieldCount@ObjectTemplate@v8@@QEAAXH@Z 000000018000a71d f   node:node.exe
 0001:00009729       __imp_load_?SetAccessor@ObjectTemplate@v8@@QEAAXV?$Local@VName@v8@@@2@P6AX0AEBV?$PropertyCallbackInfo@VValue@v8@@@2@@ZP6AX0V?$Local@VValue@v8@@@2@AEBV?$PropertyCallbackInfo@X@2@@Z3W4AccessControl@2@W4PropertyAttribute@2@V?$Local@VAccessorSignature@v8@@@2@@Z 000000018000a729 f   node:node.exe
 0001:00009735       __imp_load_?NewInstance@ObjectTemplate@v8@@QEAA?AV?$MaybeLocal@VObject@v8@@@2@V?$Local@VContext@v8@@@2@@Z 000000018000a735 f   node:node.exe
 0001:00009741       __imp_load_?New@ObjectTemplate@v8@@SA?AV?$Local@VObjectTemplate@v8@@@2@PEAVIsolate@2@V?$Local@VFunctionTemplate@v8@@@2@@Z 000000018000a741 f   node:node.exe
 0001:0000974d       __imp_load_uv_close        000000018000a74d f   node:node.exe
 0001:00009759       __imp_load_uv_poll_stop    000000018000a759 f   node:node.exe
 0001:00009765       __imp_load_node_module_register 000000018000a765 f   node:node.exe
 0001:00009771       __imp_load_?HasInstance@Buffer@node@@YA_NV?$Local@VValue@v8@@@v8@@@Z 000000018000a771 f   node:node.exe
 0001:0000977d       __imp_load_?New@Buffer@node@@YA?AV?$MaybeLocal@VObject@v8@@@v8@@PEAVIsolate@4@PEAD_KP6AX1PEAX@Z3@Z 000000018000a77d f   node:node.exe
 0001:00009789       __imp_load_?Data@Buffer@node@@YAPEADV?$Local@VObject@v8@@@v8@@@Z 000000018000a789 f   node:node.exe
 0001:00009795       __imp_load_?Length@Buffer@node@@YA_KV?$Local@VObject@v8@@@v8@@@Z 000000018000a795 f   node:node.exe
 0001:000097a1       __imp_load_?MakeCallback@node@@YA?AV?$Local@VValue@v8@@@v8@@PEAVIsolate@3@V?$Local@VObject@v8@@@3@V?$Local@VFunction@v8@@@3@HPEAV23@@Z 000000018000a7a1 f   node:node.exe
 0001:000097ad       __imp_load_uv_timer_init   000000018000a7ad f   node:node.exe
 0001:000097b9       __imp_load_uv_timer_stop   000000018000a7b9 f   node:node.exe
 0001:000097c5       __imp_load_uv_timer_start  000000018000a7c5 f   node:node.exe
 0001:000097d1       __imp_load_uv_poll_init_socket 000000018000a7d1 f   node:node.exe
 0001:000097dd       __imp_load_uv_ref          000000018000a7dd f   node:node.exe
 0001:000097e9       __imp_load_uv_poll_start   000000018000a7e9 f   node:node.exe
 0001:000097f5       __imp_load_uv_default_loop 000000018000a7f5 f   node:node.exe
 0001:00009801       __imp_load_?ToString@Value@v8@@QEBA?AV?$Local@VString@v8@@@2@XZ 000000018000a801 f   node:node.exe
 0001:00009810       ?_Copy@?$basic_string@DU?$char_traits@D@std@@V?$allocator@D@2@@std@@QEAAX_K0@Z 000000018000a810 f i libzmq:zmq.obj
 0001:000099b0       ?allocate@?$_Wrap_alloc@V?$allocator@E@std@@@std@@QEAAPEAE_K@Z 000000018000a9b0 f i libzmq:pipe.obj
 0001:000099b0       ?allocate@?$allocator@D@std@@QEAAPEAD_K@Z 000000018000a9b0 f i libzmq:tcp_address.obj
 0001:000099b0       ?allocate@?$_Wrap_alloc@V?$allocator@D@std@@@std@@QEAAPEAD_K@Z 000000018000a9b0 f i libzmq:zmq.obj
 0001:00009a20       ?assign@?$basic_string@DU?$char_traits@D@std@@V?$allocator@D@2@@std@@QEAAAEAV12@AEBV12@_K1@Z 000000018000aa20 f i libzmq:zmq.obj
 0001:00009b50       ?assign@?$basic_string@DU?$char_traits@D@std@@V?$allocator@D@2@@std@@QEAAAEAV12@PEBD_K@Z 000000018000ab50 f i libzmq:zmq.obj
 0001:00009c80       ?erase@?$basic_string@DU?$char_traits@D@std@@V?$allocator@D@2@@std@@QEAAAEAV12@_K0@Z 000000018000ac80 f i libzmq:zmq.obj
 0001:00009df0       ?zmq_poller_add@@YAHPEAX00F@Z 000000018000adf0 f   libzmq:zmq.obj
 0001:00009e80       ?zmq_poller_add_fd@@YAHPEAX_K0F@Z 000000018000ae80 f   libzmq:zmq.obj
 0001:00009ef0       ?zmq_poller_destroy@@YAHPEAPEAX@Z 000000018000aef0 f   libzmq:zmq.obj
 0001:00009f60       ?zmq_poller_modify@@YAHPEAX0F@Z 000000018000af60 f   libzmq:zmq.obj
 0001:0000a000       ?zmq_poller_modify_fd@@YAHPEAX_KF@Z 000000018000b000 f   libzmq:zmq.obj
 0001:0000a070       ?zmq_poller_new@@YAPEAXXZ  000000018000b070 f   libzmq:zmq.obj
 0001:0000a100       ?zmq_poller_poll@@YAHPEAUzmq_pollitem_t@@HJ@Z 000000018000b100 f i libzmq:zmq.obj
 0001:0000a3d0       ?zmq_poller_wait_all@@YAHPEAXPEAUzmq_poller_event_t@@HJ@Z 000000018000b3d0 f   libzmq:zmq.obj
 0001:0000a4a0       fprintf                    000000018000b4a0 f i libzmq:zmq.obj
 0001:0000a4f0       zmq_bind                   000000018000b4f0 f   libzmq:zmq.obj
 0001:0000a540       zmq_close                  000000018000b540 f   libzmq:zmq.obj
 0001:0000a580       zmq_connect                000000018000b580 f   libzmq:zmq.obj
 0001:0000a5d0       zmq_ctx_get                000000018000b5d0 f   libzmq:zmq.obj
 0001:0000a620       zmq_ctx_new                000000018000b620 f   libzmq:zmq.obj
 0001:0000a7a0       zmq_ctx_set                000000018000b7a0 f   libzmq:zmq.obj
 0001:0000a800       zmq_ctx_term               000000018000b800 f   libzmq:zmq.obj
 0001:0000a8d0       zmq_errno                  000000018000b8d0 f   libzmq:zmq.obj
 0001:0000a8e0       zmq_getsockopt             000000018000b8e0 f   libzmq:zmq.obj
 0001:0000a950       zmq_init                   000000018000b950 f   libzmq:zmq.obj
 0001:0000a9a0       zmq_msg_close              000000018000b9a0 f   libzmq:zmq.obj
 0001:0000a9b0       zmq_msg_data               000000018000b9b0 f   libzmq:zmq.obj
 0001:0000a9c0       zmq_msg_get                000000018000b9c0 f   libzmq:zmq.obj
 0001:0000aa40       zmq_msg_gets               000000018000ba40 f   libzmq:zmq.obj
 0001:0000ab50       zmq_msg_init               000000018000bb50 f   libzmq:zmq.obj
 0001:0000ab60       zmq_msg_init_size          000000018000bb60 f   libzmq:zmq.obj
 0001:0000ab70       zmq_msg_more               000000018000bb70 f   libzmq:zmq.obj
 0001:0000ab80       zmq_msg_recv               000000018000bb80 f   libzmq:zmq.obj
 0001:0000abf0       zmq_msg_send               000000018000bbf0 f   libzmq:zmq.obj
 0001:0000ac60       zmq_msg_size               000000018000bc60 f   libzmq:zmq.obj
 0001:0000ac70       zmq_poll                   000000018000bc70 f   libzmq:zmq.obj
 0001:0000ac80       zmq_recvmsg                000000018000bc80 f   libzmq:zmq.obj
 0001:0000ac90       zmq_sendmsg                000000018000bc90 f   libzmq:zmq.obj
 0001:0000aca0       zmq_setsockopt             000000018000bca0 f   libzmq:zmq.obj
 0001:0000ad10       zmq_socket                 000000018000bd10 f   libzmq:zmq.obj
 0001:0000ad60       zmq_socket_monitor         000000018000bd60 f   libzmq:zmq.obj
 0001:0000add0       zmq_strerror               000000018000bdd0 f   libzmq:zmq.obj
 0001:0000ade0       zmq_term                   000000018000bde0 f   libzmq:zmq.obj
 0001:0000adf0       zmq_disconnect             000000018000bdf0 f   libzmq:zmq.obj
 0001:0000adf0       zmq_unbind                 000000018000bdf0 f   libzmq:zmq.obj
 0001:0000ae40       zmq_version                000000018000be40 f   libzmq:zmq.obj
 0001:0000ae60       ?errno_to_string@zmq@@YAPEBDH@Z 000000018000be60 f   libzmq:err.obj
 0001:0000af70       ?win_error@zmq@@YAXPEAD_K@Z 000000018000bf70 f   libzmq:err.obj
 0001:0000b010       ?wsa_error@zmq@@YAPEBDXZ   000000018000c010 f   libzmq:err.obj
 0001:0000b040       ?wsa_error_no@zmq@@YAPEBDH@Z 000000018000c040 f   libzmq:err.obj
 0001:0000b380       ?wsa_error_to_errno@zmq@@YAHH@Z 000000018000c380 f   libzmq:err.obj
 0001:0000b5f0       ?zmq_abort@zmq@@YAXPEBD@Z  000000018000c5f0 f   libzmq:err.obj
 0001:0000b620       ??$?0U?$_Wrap_alloc@V?$allocator@U?$_Tree_node@U?$pair@$$CBV?$basic_string@DU?$char_traits@D@std@@V?$allocator@D@2@@std@@Upending_connection_t@ctx_t@zmq@@@std@@PEAX@std@@@std@@@std@@@?$_Tree@V?$_Tmap_traits@V?$basic_string@DU?$char_traits@D@std@@V?$allocator@D@2@@std@@Upending_connection_t@ctx_t@zmq@@U?$less@V?$basic_string@DU?$char_traits@D@std@@V?$allocator@D@2@@std@@@2@V?$allocator@U?$pair@$$CBV?$basic_string@DU?$char_traits@D@std@@V?$allocator@D@2@@std@@Upending_connection_t@ctx_t@zmq@@@std@@@2@$00@std@@@std@@QEAA@AEBV01@$$QEAU?$_Wrap_alloc@V?$allocator@U?$_Tree_node@U?$pair@$$CBV?$basic_string@DU?$char_traits@D@std@@V?$allocator@D@2@@std@@Upending_connection_t@ctx_t@zmq@@@std@@PEAX@std@@@std@@@1@@Z 000000018000c620 f i libzmq:ctx.obj
 0001:0000b680       ??$?0V?$tuple@$$QEAV?$basic_string@DU?$char_traits@D@std@@V?$allocator@D@2@@std@@@std@@V?$tuple@$$V@1@$0A@$$Z$S@?$pair@$$CBV?$basic_string@DU?$char_traits@D@std@@V?$allocator@D@2@@std@@Uendpoint_t@zmq@@@std@@QEAA@AEAV?$tuple@$$QEAV?$basic_string@DU?$char_traits@D@std@@V?$allocator@D@2@@std@@@1@AEAV?$tuple@$$V@1@U?$integer_sequence@_K$0A@@1@U?$integer_sequence@_K$S@1@@Z 000000018000c680 f i libzmq:ctx.obj
 0001:0000b700       ??$?MDU?$char_traits@D@std@@V?$allocator@D@1@@std@@YA_NAEBV?$basic_string@DU?$char_traits@D@std@@V?$allocator@D@2@@0@0@Z 000000018000c700 f i libzmq:ctx.obj
 0001:0000b770       ??$_Buynode@AEAU?$pair@$$CBV?$basic_string@DU?$char_traits@D@std@@V?$allocator@D@2@@std@@Upending_connection_t@ctx_t@zmq@@@std@@@?$_Tree_comp_alloc@V?$_Tmap_traits@V?$basic_string@DU?$char_traits@D@std@@V?$allocator@D@2@@std@@Upending_connection_t@ctx_t@zmq@@U?$less@V?$basic_string@DU?$char_traits@D@std@@V?$allocator@D@2@@std@@@2@V?$allocator@U?$pair@$$CBV?$basic_string@DU?$char_traits@D@std@@V?$allocator@D@2@@std@@Upending_connection_t@ctx_t@zmq@@@std@@@2@$00@std@@@std@@QEAAPEAU?$_Tree_node@U?$pair@$$CBV?$basic_string@DU?$char_traits@D@std@@V?$allocator@D@2@@std@@Upending_connection_t@ctx_t@zmq@@@std@@PEAX@1@AEAU?$pair@$$CBV?$basic_string@DU?$char_traits@D@std@@V?$allocator@D@2@@std@@Upending_connection_t@ctx_t@zmq@@@1@@Z 000000018000c770 f i libzmq:ctx.obj
 0001:0000b7d0       ??$_Buynode@AEBUpiecewise_construct_t@std@@V?$tuple@$$QEAV?$basic_string@DU?$char_traits@D@std@@V?$allocator@D@2@@std@@@2@V?$tuple@$$V@2@@?$_Tree_comp_alloc@V?$_Tmap_traits@V?$basic_string@DU?$char_traits@D@std@@V?$allocator@D@2@@std@@Uendpoint_t@zmq@@U?$less@V?$basic_string@DU?$char_traits@D@std@@V?$allocator@D@2@@std@@@2@V?$allocator@U?$pair@$$CBV?$basic_string@DU?$char_traits@D@std@@V?$allocator@D@2@@std@@Uendpoint_t@zmq@@@std@@@2@$0A@@std@@@std@@QEAAPEAU?$_Tree_node@U?$pair@$$CBV?$basic_string@DU?$char_traits@D@std@@V?$allocator@D@2@@std@@Uendpoint_t@zmq@@@std@@PEAX@1@AEBUpiecewise_construct_t@1@$$QEAV?$tuple@$$QEAV?$basic_string@DU?$char_traits@D@std@@V?$allocator@D@2@@std@@@1@$$QEAV?$tuple@$$V@1@@Z 000000018000c7d0 f i libzmq:ctx.obj
 0001:0000b850       ??$_Buynode@U?$pair@$$CBV?$basic_string@DU?$char_traits@D@std@@V?$allocator@D@2@@std@@Uendpoint_t@zmq@@@std@@@?$_Tree_comp_alloc@V?$_Tmap_traits@V?$basic_string@DU?$char_traits@D@std@@V?$allocator@D@2@@std@@Uendpoint_t@zmq@@U?$less@V?$basic_string@DU?$char_traits@D@std@@V?$allocator@D@2@@std@@@2@V?$allocator@U?$pair@$$CBV?$basic_string@DU?$char_traits@D@std@@V?$allocator@D@2@@std@@Uendpoint_t@zmq@@@std@@@2@$0A@@std@@@std@@QEAAPEAU?$_Tree_node@U?$pair@$$CBV?$basic_string@DU?$char_traits@D@std@@V?$allocator@D@2@@std@@Uendpoint_t@zmq@@@std@@PEAX@1@$$QEAU?$pair@$$CBV?$basic_string@DU?$char_traits@D@std@@V?$allocator@D@2@@std@@Uendpoint_t@zmq@@@1@@Z 000000018000c850 f i libzmq:ctx.obj
 0001:0000b8b0       ??$_Buynode@U?$pair@$$CBV?$basic_string@DU?$char_traits@D@std@@V?$allocator@D@2@@std@@Upending_connection_t@ctx_t@zmq@@@std@@@?$_Tree_comp_alloc@V?$_Tmap_traits@V?$basic_string@DU?$char_traits@D@std@@V?$allocator@D@2@@std@@Upending_connection_t@ctx_t@zmq@@U?$less@V?$basic_string@DU?$char_traits@D@std@@V?$allocator@D@2@@std@@@2@V?$allocator@U?$pair@$$CBV?$basic_string@DU?$char_traits@D@std@@V?$allocator@D@2@@std@@Upending_connection_t@ctx_t@zmq@@@std@@@2@$00@std@@@std@@QEAAPEAU?$_Tree_node@U?$pair@$$CBV?$basic_string@DU?$char_traits@D@std@@V?$allocator@D@2@@std@@Upending_connection_t@ctx_t@zmq@@@std@@PEAX@1@$$QEAU?$pair@$$CBV?$basic_string@DU?$char_traits@D@std@@V?$allocator@D@2@@std@@Upending_connection_t@ctx_t@zmq@@@1@@Z 000000018000c8b0 f i libzmq:ctx.obj
 0001:0000b910       ??$_Copy@U_Copy_tag@?$_Tree@V?$_Tmap_traits@V?$basic_string@DU?$char_traits@D@std@@V?$allocator@D@2@@std@@Upending_connection_t@ctx_t@zmq@@U?$less@V?$basic_string@DU?$char_traits@D@std@@V?$allocator@D@2@@std@@@2@V?$allocator@U?$pair@$$CBV?$basic_string@DU?$char_traits@D@std@@V?$allocator@D@2@@std@@Upending_connection_t@ctx_t@zmq@@@std@@@2@$00@std@@@std@@@?$_Tree@V?$_Tmap_traits@V?$basic_string@DU?$char_traits@D@std@@V?$allocator@D@2@@std@@Upending_connection_t@ctx_t@zmq@@U?$less@V?$basic_string@DU?$char_traits@D@std@@V?$allocator@D@2@@std@@@2@V?$allocator@U?$pair@$$CBV?$basic_string@DU?$char_traits@D@std@@V?$allocator@D@2@@std@@Upending_connection_t@ctx_t@zmq@@@std@@@2@$00@std@@@std@@IEAAXAEBV01@U_Copy_tag@01@@Z 000000018000c910 f i libzmq:ctx.obj
 0001:0000b9c0       ??$_Copy_nodes@U_Copy_tag@?$_Tree@V?$_Tmap_traits@V?$basic_string@DU?$char_traits@D@std@@V?$allocator@D@2@@std@@Upending_connection_t@ctx_t@zmq@@U?$less@V?$basic_string@DU?$char_traits@D@std@@V?$allocator@D@2@@std@@@2@V?$allocator@U?$pair@$$CBV?$basic_string@DU?$char_traits@D@std@@V?$allocator@D@2@@std@@Upending_connection_t@ctx_t@zmq@@@std@@@2@$00@std@@@std@@@?$_Tree@V?$_Tmap_traits@V?$basic_string@DU?$char_traits@D@std@@V?$allocator@D@2@@std@@Upending_connection_t@ctx_t@zmq@@U?$less@V?$basic_string@DU?$char_traits@D@std@@V?$allocator@D@2@@std@@@2@V?$allocator@U?$pair@$$CBV?$basic_string@DU?$char_traits@D@std@@V?$allocator@D@2@@std@@Upending_connection_t@ctx_t@zmq@@@std@@@2@$00@std@@@std@@IEAAPEAU?$_Tree_node@U?$pair@$$CBV?$basic_string@DU?$char_traits@D@std@@V?$allocator@D@2@@std@@Upending_connection_t@ctx_t@zmq@@@std@@PEAX@1@PEAU21@0U_Copy_tag@01@@Z 000000018000c9c0 f i libzmq:ctx.obj
 0001:0000ba60       ??$_Destroy_range@V?$allocator@Vtcp_address_mask_t@zmq@@@std@@PEAVtcp_address_mask_t@zmq@@@std@@YAXPEAVtcp_address_mask_t@zmq@@0AEAU?$_Wrap_alloc@V?$allocator@Vtcp_address_mask_t@zmq@@@std@@@0@@Z 000000018000ca60 f i libzmq:ctx.obj
 0001:0000baa0       ??$_Insert_at@AEAU?$pair@$$CBV?$basic_string@DU?$char_traits@D@std@@V?$allocator@D@2@@std@@Uendpoint_t@zmq@@@std@@PEAU?$_Tree_node@U?$pair@$$CBV?$basic_string@DU?$char_traits@D@std@@V?$allocator@D@2@@std@@Uendpoint_t@zmq@@@std@@PEAX@2@@?$_Tree@V?$_Tmap_traits@V?$basic_string@DU?$char_traits@D@std@@V?$allocator@D@2@@std@@Uendpoint_t@zmq@@U?$less@V?$basic_string@DU?$char_traits@D@std@@V?$allocator@D@2@@std@@@2@V?$allocator@U?$pair@$$CBV?$basic_string@DU?$char_traits@D@std@@V?$allocator@D@2@@std@@Uendpoint_t@zmq@@@std@@@2@$0A@@std@@@std@@IEAA?AV?$_Tree_iterator@V?$_Tree_val@U?$_Tree_simple_types@U?$pair@$$CBV?$basic_string@DU?$char_traits@D@std@@V?$allocator@D@2@@std@@Uendpoint_t@zmq@@@std@@@std@@@std@@@1@_NPEAU?$_Tree_node@U?$pair@$$CBV?$basic_string@DU?$char_traits@D@std@@V?$allocator@D@2@@std@@Uendpoint_t@zmq@@@std@@PEAX@1@AEAU?$pair@$$CBV?$basic_string@DU?$char_traits@D@std@@V?$allocator@D@2@@std@@Uendpoint_t@zmq@@@1@1@Z 000000018000caa0 f i libzmq:ctx.obj
 0001:0000bd50       ??$_Insert_at@U?$pair@$$CBV?$basic_string@DU?$char_traits@D@std@@V?$allocator@D@2@@std@@Uendpoint_t@zmq@@@std@@U_Nil@2@@?$_Tree@V?$_Tmap_traits@V?$basic_string@DU?$char_traits@D@std@@V?$allocator@D@2@@std@@Uendpoint_t@zmq@@U?$less@V?$basic_string@DU?$char_traits@D@std@@V?$allocator@D@2@@std@@@2@V?$allocator@U?$pair@$$CBV?$basic_string@DU?$char_traits@D@std@@V?$allocator@D@2@@std@@Uendpoint_t@zmq@@@std@@@2@$0A@@std@@@std@@IEAA?AV?$_Tree_iterator@V?$_Tree_val@U?$_Tree_simple_types@U?$pair@$$CBV?$basic_string@DU?$char_traits@D@std@@V?$allocator@D@2@@std@@Uendpoint_t@zmq@@@std@@@std@@@std@@@1@_NPEAU?$_Tree_node@U?$pair@$$CBV?$basic_string@DU?$char_traits@D@std@@V?$allocator@D@2@@std@@Uendpoint_t@zmq@@@std@@PEAX@1@$$QEAU?$pair@$$CBV?$basic_string@DU?$char_traits@D@std@@V?$allocator@D@2@@std@@Uendpoint_t@zmq@@@1@U_Nil@1@@Z 000000018000cd50 f i libzmq:ctx.obj
 0001:0000c020       ??$_Insert_at@U?$pair@$$CBV?$basic_string@DU?$char_traits@D@std@@V?$allocator@D@2@@std@@Upending_connection_t@ctx_t@zmq@@@std@@U_Nil@2@@?$_Tree@V?$_Tmap_traits@V?$basic_string@DU?$char_traits@D@std@@V?$allocator@D@2@@std@@Upending_connection_t@ctx_t@zmq@@U?$less@V?$basic_string@DU?$char_traits@D@std@@V?$allocator@D@2@@std@@@2@V?$allocator@U?$pair@$$CBV?$basic_string@DU?$char_traits@D@std@@V?$allocator@D@2@@std@@Upending_connection_t@ctx_t@zmq@@@std@@@2@$00@std@@@std@@IEAA?AV?$_Tree_iterator@V?$_Tree_val@U?$_Tree_simple_types@U?$pair@$$CBV?$basic_string@DU?$char_traits@D@std@@V?$allocator@D@2@@std@@Upending_connection_t@ctx_t@zmq@@@std@@@std@@@std@@@1@_NPEAU?$_Tree_node@U?$pair@$$CBV?$basic_string@DU?$char_traits@D@std@@V?$allocator@D@2@@std@@Upending_connection_t@ctx_t@zmq@@@std@@PEAX@1@$$QEAU?$pair@$$CBV?$basic_string@DU?$char_traits@D@std@@V?$allocator@D@2@@std@@Upending_connection_t@ctx_t@zmq@@@1@U_Nil@1@@Z 000000018000d020 f i libzmq:ctx.obj
 0001:0000c2f0       ??$_Insert_hint@AEAU?$pair@$$CBV?$basic_string@DU?$char_traits@D@std@@V?$allocator@D@2@@std@@Uendpoint_t@zmq@@@std@@PEAU?$_Tree_node@U?$pair@$$CBV?$basic_string@DU?$char_traits@D@std@@V?$allocator@D@2@@std@@Uendpoint_t@zmq@@@std@@PEAX@2@@?$_Tree@V?$_Tmap_traits@V?$basic_string@DU?$char_traits@D@std@@V?$allocator@D@2@@std@@Uendpoint_t@zmq@@U?$less@V?$basic_string@DU?$char_traits@D@std@@V?$allocator@D@2@@std@@@2@V?$allocator@U?$pair@$$CBV?$basic_string@DU?$char_traits@D@std@@V?$allocator@D@2@@std@@Uendpoint_t@zmq@@@std@@@2@$0A@@std@@@std@@IEAA?AV?$_Tree_iterator@V?$_Tree_val@U?$_Tree_simple_types@U?$pair@$$CBV?$basic_string@DU?$char_traits@D@std@@V?$allocator@D@2@@std@@Uendpoint_t@zmq@@@std@@@std@@@std@@@1@V?$_Tree_const_iterator@V?$_Tree_val@U?$_Tree_simple_types@U?$pair@$$CBV?$basic_string@DU?$char_traits@D@std@@V?$allocator@D@2@@std@@Uendpoint_t@zmq@@@std@@@std@@@std@@@1@AEAU?$pair@$$CBV?$basic_string@DU?$char_traits@D@std@@V?$allocator@D@2@@std@@Uendpoint_t@zmq@@@1@PEAU?$_Tree_node@U?$pair@$$CBV?$basic_string@DU?$char_traits@D@std@@V?$allocator@D@2@@std@@Uendpoint_t@zmq@@@std@@PEAX@1@@Z 000000018000d2f0 f i libzmq:ctx.obj
 0001:0000c5b0       ??$_Insert_nohint@AEAU?$pair@$$CBV?$basic_string@DU?$char_traits@D@std@@V?$allocator@D@2@@std@@Uendpoint_t@zmq@@@std@@PEAU?$_Tree_node@U?$pair@$$CBV?$basic_string@DU?$char_traits@D@std@@V?$allocator@D@2@@std@@Uendpoint_t@zmq@@@std@@PEAX@2@@?$_Tree@V?$_Tmap_traits@V?$basic_string@DU?$char_traits@D@std@@V?$allocator@D@2@@std@@Uendpoint_t@zmq@@U?$less@V?$basic_string@DU?$char_traits@D@std@@V?$allocator@D@2@@std@@@2@V?$allocator@U?$pair@$$CBV?$basic_string@DU?$char_traits@D@std@@V?$allocator@D@2@@std@@Uendpoint_t@zmq@@@std@@@2@$0A@@std@@@std@@IEAA?AU?$pair@V?$_Tree_iterator@V?$_Tree_val@U?$_Tree_simple_types@U?$pair@$$CBV?$basic_string@DU?$char_traits@D@std@@V?$allocator@D@2@@std@@Uendpoint_t@zmq@@@std@@@std@@@std@@@std@@_N@1@_NAEAU?$pair@$$CBV?$basic_string@DU?$char_traits@D@std@@V?$allocator@D@2@@std@@Uendpoint_t@zmq@@@1@PEAU?$_Tree_node@U?$pair@$$CBV?$basic_string@DU?$char_traits@D@std@@V?$allocator@D@2@@std@@Uendpoint_t@zmq@@@std@@PEAX@1@@Z 000000018000d5b0 f i libzmq:ctx.obj
 0001:0000c830       ??$_Insert_nohint@U?$pair@$$CBV?$basic_string@DU?$char_traits@D@std@@V?$allocator@D@2@@std@@Uendpoint_t@zmq@@@std@@U_Nil@2@@?$_Tree@V?$_Tmap_traits@V?$basic_string@DU?$char_traits@D@std@@V?$allocator@D@2@@std@@Uendpoint_t@zmq@@U?$less@V?$basic_string@DU?$char_traits@D@std@@V?$allocator@D@2@@std@@@2@V?$allocator@U?$pair@$$CBV?$basic_string@DU?$char_traits@D@std@@V?$allocator@D@2@@std@@Uendpoint_t@zmq@@@std@@@2@$0A@@std@@@std@@IEAA?AU?$pair@V?$_Tree_iterator@V?$_Tree_val@U?$_Tree_simple_types@U?$pair@$$CBV?$basic_string@DU?$char_traits@D@std@@V?$allocator@D@2@@std@@Uendpoint_t@zmq@@@std@@@std@@@std@@@std@@_N@1@_N$$QEAU?$pair@$$CBV?$basic_string@DU?$char_traits@D@std@@V?$allocator@D@2@@std@@Uendpoint_t@zmq@@@1@U_Nil@1@@Z 000000018000d830 f i libzmq:ctx.obj
 0001:0000ca90       ??$_Insert_nohint@U?$pair@$$CBV?$basic_string@DU?$char_traits@D@std@@V?$allocator@D@2@@std@@Upending_connection_t@ctx_t@zmq@@@std@@U_Nil@2@@?$_Tree@V?$_Tmap_traits@V?$basic_string@DU?$char_traits@D@std@@V?$allocator@D@2@@std@@Upending_connection_t@ctx_t@zmq@@U?$less@V?$basic_string@DU?$char_traits@D@std@@V?$allocator@D@2@@std@@@2@V?$allocator@U?$pair@$$CBV?$basic_string@DU?$char_traits@D@std@@V?$allocator@D@2@@std@@Upending_connection_t@ctx_t@zmq@@@std@@@2@$00@std@@@std@@IEAA?AU?$pair@V?$_Tree_iterator@V?$_Tree_val@U?$_Tree_simple_types@U?$pair@$$CBV?$basic_string@DU?$char_traits@D@std@@V?$allocator@D@2@@std@@Upending_connection_t@ctx_t@zmq@@@std@@@std@@@std@@@std@@_N@1@_N$$QEAU?$pair@$$CBV?$basic_string@DU?$char_traits@D@std@@V?$allocator@D@2@@std@@Upending_connection_t@ctx_t@zmq@@@1@U_Nil@1@@Z 000000018000da90 f i libzmq:ctx.obj
 0001:0000cc00       ??$_Uninitialized_copy_al_unchecked1@PEBVtcp_address_mask_t@zmq@@PEAV12@V?$allocator@Vtcp_address_mask_t@zmq@@@std@@@std@@YAPEAVtcp_address_mask_t@zmq@@PEBV12@0PEAV12@AEAU?$_Wrap_alloc@V?$allocator@Vtcp_address_mask_t@zmq@@@std@@@0@U_General_ptr_iterator_tag@0@U_Any_tag@0@@Z 000000018000dc00 f i libzmq:ctx.obj
 0001:0000ccb0       ??$construct@U?$pair@$$CBV?$basic_string@DU?$char_traits@D@std@@V?$allocator@D@2@@std@@Uendpoint_t@zmq@@@std@@U12@@?$_Wrap_alloc@V?$allocator@U?$_Tree_node@U?$pair@$$CBV?$basic_string@DU?$char_traits@D@std@@V?$allocator@D@2@@std@@Uendpoint_t@zmq@@@std@@PEAX@std@@@std@@@std@@QEAAXPEAU?$pair@$$CBV?$basic_string@DU?$char_traits@D@std@@V?$allocator@D@2@@std@@Uendpoint_t@zmq@@@1@$$QEAU21@@Z 000000018000dcb0 f i libzmq:ctx.obj
 0001:0000cd30       ??0?$pair@$$CBV?$basic_string@DU?$char_traits@D@std@@V?$allocator@D@2@@std@@Upending_connection_t@ctx_t@zmq@@@std@@QEAA@$$QEAU01@@Z 000000018000dd30 f i libzmq:ctx.obj
 0001:0000cda0       ??0?$pair@$$CBV?$basic_string@DU?$char_traits@D@std@@V?$allocator@D@2@@std@@Upending_connection_t@ctx_t@zmq@@@std@@QEAA@AEBU01@@Z 000000018000dda0 f i libzmq:ctx.obj
 0001:0000ce40       ??0?$vector@Vtcp_address_mask_t@zmq@@V?$allocator@Vtcp_address_mask_t@zmq@@@std@@@std@@QEAA@AEBV01@@Z 000000018000de40 f i libzmq:ctx.obj
 0001:0000cf20       ??0ctx_t@zmq@@QEAA@XZ      000000018000df20 f   libzmq:ctx.obj
 0001:0000d070       ??0options_t@zmq@@QEAA@$$QEAU01@@Z 000000018000e070 f i libzmq:ctx.obj
 0001:0000d480       ??0options_t@zmq@@QEAA@AEBU01@@Z 000000018000e480 f i libzmq:ctx.obj
 0001:0000d8e0       ??1?$map@V?$basic_string@DU?$char_traits@D@std@@V?$allocator@D@2@@std@@Uendpoint_t@zmq@@U?$less@V?$basic_string@DU?$char_traits@D@std@@V?$allocator@D@2@@std@@@2@V?$allocator@U?$pair@$$CBV?$basic_string@DU?$char_traits@D@std@@V?$allocator@D@2@@std@@Uendpoint_t@zmq@@@std@@@2@@std@@QEAA@XZ 000000018000e8e0 f i libzmq:ctx.obj
 0001:0000d920       ??1?$multimap@V?$basic_string@DU?$char_traits@D@std@@V?$allocator@D@2@@std@@Upending_connection_t@ctx_t@zmq@@U?$less@V?$basic_string@DU?$char_traits@D@std@@V?$allocator@D@2@@std@@@2@V?$allocator@U?$pair@$$CBV?$basic_string@DU?$char_traits@D@std@@V?$allocator@D@2@@std@@Upending_connection_t@ctx_t@zmq@@@std@@@2@@std@@QEAA@XZ 000000018000e920 f i libzmq:ctx.obj
 0001:0000d960       ??1?$pair@$$CBV?$basic_string@DU?$char_traits@D@std@@V?$allocator@D@2@@std@@Uendpoint_t@zmq@@@std@@QEAA@XZ 000000018000e960 f i libzmq:ctx.obj
 0001:0000d960       ??1?$pair@$$CBV?$basic_string@DU?$char_traits@D@std@@V?$allocator@D@2@@std@@Upending_connection_t@ctx_t@zmq@@@std@@QEAA@XZ 000000018000e960 f i libzmq:ctx.obj
 0001:0000d9d0       ??1?$vector@IV?$allocator@I@std@@@std@@QEAA@XZ 000000018000e9d0 f i libzmq:ctx.obj
 0001:0000da10       ??1?$vector@Vtcp_address_mask_t@zmq@@V?$allocator@Vtcp_address_mask_t@zmq@@@std@@@std@@QEAA@XZ 000000018000ea10 f i libzmq:ctx.obj
 0001:0000da20       ??1ctx_t@zmq@@QEAA@XZ      000000018000ea20 f   libzmq:ctx.obj
 0001:0000dd80       ??1endpoint_t@zmq@@QEAA@XZ 000000018000ed80 f i libzmq:ctx.obj
 0001:0000dd80       ??1pending_connection_t@ctx_t@zmq@@QEAA@XZ 000000018000ed80 f i libzmq:ctx.obj
 0001:0000ddf0       ??1scoped_lock_t@zmq@@QEAA@XZ 000000018000edf0 f i libzmq:ctx.obj
 0001:0000de00       ??_Gtcp_address_mask_t@zmq@@UEAAPEAXI@Z 000000018000ee00 f i libzmq:ctx.obj
 0001:0000de00       ??_Etcp_address_mask_t@zmq@@UEAAPEAXI@Z 000000018000ee00 f i libzmq:ctx.obj
 0001:0000de40       ??_Gtcp_address_t@zmq@@UEAAPEAXI@Z 000000018000ee40 f i libzmq:ctx.obj
 0001:0000de40       ??_Etcp_address_t@zmq@@UEAAPEAXI@Z 000000018000ee40 f i libzmq:ctx.obj
 0001:0000de80       ?_Assign_rv@?$basic_string@DU?$char_traits@D@std@@V?$allocator@D@2@@std@@QEAAX$$QEAV12@@Z 000000018000ee80 f i libzmq:ctx.obj
 0001:0000df00       ?_Buyheadnode@?$_Tree_comp_alloc@V?$_Tmap_traits@V?$basic_string@DU?$char_traits@D@std@@V?$allocator@D@2@@std@@Uendpoint_t@zmq@@U?$less@V?$basic_string@DU?$char_traits@D@std@@V?$allocator@D@2@@std@@@2@V?$allocator@U?$pair@$$CBV?$basic_string@DU?$char_traits@D@std@@V?$allocator@D@2@@std@@Uendpoint_t@zmq@@@std@@@2@$0A@@std@@@std@@QEAAPEAU?$_Tree_node@U?$pair@$$CBV?$basic_string@DU?$char_traits@D@std@@V?$allocator@D@2@@std@@Uendpoint_t@zmq@@@std@@PEAX@2@XZ 000000018000ef00 f i libzmq:ctx.obj
 0001:0000df60       ?_Buyheadnode@?$_Tree_comp_alloc@V?$_Tmap_traits@V?$basic_string@DU?$char_traits@D@std@@V?$allocator@D@2@@std@@Upending_connection_t@ctx_t@zmq@@U?$less@V?$basic_string@DU?$char_traits@D@std@@V?$allocator@D@2@@std@@@2@V?$allocator@U?$pair@$$CBV?$basic_string@DU?$char_traits@D@std@@V?$allocator@D@2@@std@@Upending_connection_t@ctx_t@zmq@@@std@@@2@$00@std@@@std@@QEAAPEAU?$_Tree_node@U?$pair@$$CBV?$basic_string@DU?$char_traits@D@std@@V?$allocator@D@2@@std@@Upending_connection_t@ctx_t@zmq@@@std@@PEAX@2@XZ 000000018000ef60 f i libzmq:ctx.obj
 0001:0000dfc0       ?_Buynode0@?$_Tree_comp_alloc@V?$_Tmap_traits@V?$basic_string@DU?$char_traits@D@std@@V?$allocator@D@2@@std@@Uendpoint_t@zmq@@U?$less@V?$basic_string@DU?$char_traits@D@std@@V?$allocator@D@2@@std@@@2@V?$allocator@U?$pair@$$CBV?$basic_string@DU?$char_traits@D@std@@V?$allocator@D@2@@std@@Uendpoint_t@zmq@@@std@@@2@$0A@@std@@@std@@QEAAPEAU?$_Tree_node@U?$pair@$$CBV?$basic_string@DU?$char_traits@D@std@@V?$allocator@D@2@@std@@Uendpoint_t@zmq@@@std@@PEAX@2@XZ 000000018000efc0 f i libzmq:ctx.obj
 0001:0000e020       ?_Buynode0@?$_Tree_comp_alloc@V?$_Tmap_traits@V?$basic_string@DU?$char_traits@D@std@@V?$allocator@D@2@@std@@Upending_connection_t@ctx_t@zmq@@U?$less@V?$basic_string@DU?$char_traits@D@std@@V?$allocator@D@2@@std@@@2@V?$allocator@U?$pair@$$CBV?$basic_string@DU?$char_traits@D@std@@V?$allocator@D@2@@std@@Upending_connection_t@ctx_t@zmq@@@std@@@2@$00@std@@@std@@QEAAPEAU?$_Tree_node@U?$pair@$$CBV?$basic_string@DU?$char_traits@D@std@@V?$allocator@D@2@@std@@Upending_connection_t@ctx_t@zmq@@@std@@PEAX@2@XZ 000000018000f020 f i libzmq:ctx.obj
 0001:0000e080       ?_Erase@?$_Tree@V?$_Tmap_traits@V?$basic_string@DU?$char_traits@D@std@@V?$allocator@D@2@@std@@Uendpoint_t@zmq@@U?$less@V?$basic_string@DU?$char_traits@D@std@@V?$allocator@D@2@@std@@@2@V?$allocator@U?$pair@$$CBV?$basic_string@DU?$char_traits@D@std@@V?$allocator@D@2@@std@@Uendpoint_t@zmq@@@std@@@2@$0A@@std@@@std@@IEAAXPEAU?$_Tree_node@U?$pair@$$CBV?$basic_string@DU?$char_traits@D@std@@V?$allocator@D@2@@std@@Uendpoint_t@zmq@@@std@@PEAX@2@@Z 000000018000f080 f i libzmq:ctx.obj
 0001:0000e5b0       ?_Erase@?$_Tree@V?$_Tmap_traits@V?$basic_string@DU?$char_traits@D@std@@V?$allocator@D@2@@std@@Upending_connection_t@ctx_t@zmq@@U?$less@V?$basic_string@DU?$char_traits@D@std@@V?$allocator@D@2@@std@@@2@V?$allocator@U?$pair@$$CBV?$basic_string@DU?$char_traits@D@std@@V?$allocator@D@2@@std@@Upending_connection_t@ctx_t@zmq@@@std@@@2@$00@std@@@std@@IEAAXPEAU?$_Tree_node@U?$pair@$$CBV?$basic_string@DU?$char_traits@D@std@@V?$allocator@D@2@@std@@Upending_connection_t@ctx_t@zmq@@@std@@PEAX@2@@Z 000000018000f5b0 f i libzmq:ctx.obj
 0001:0000ea60       ?_Reallocate@?$vector@IV?$allocator@I@std@@@std@@IEAAX_K@Z 000000018000fa60 f i libzmq:ctx.obj
 0001:0000eaf0       ?_Reallocate@?$vector@PEAVio_thread_t@zmq@@V?$allocator@PEAVio_thread_t@zmq@@@std@@@std@@IEAAX_K@Z 000000018000faf0 f i libzmq:ctx.obj
 0001:0000eb80       ?_Reallocate@?$vector@PEAVsocket_base_t@zmq@@V?$allocator@PEAVsocket_base_t@zmq@@@std@@@std@@IEAAX_K@Z 000000018000fb80 f i libzmq:ctx.obj
 0001:0000ec10       ?_Reserve@?$vector@IV?$allocator@I@std@@@std@@IEAAX_K@Z 000000018000fc10 f i libzmq:ctx.obj
 0001:0000eca0       ?_Reserve@?$vector@PEAVio_thread_t@zmq@@V?$allocator@PEAVio_thread_t@zmq@@@std@@@std@@IEAAX_K@Z 000000018000fca0 f i libzmq:ctx.obj
 0001:0000ed30       ?_Reserve@?$vector@PEAVsocket_base_t@zmq@@V?$allocator@PEAVsocket_base_t@zmq@@@std@@@std@@IEAAX_K@Z 000000018000fd30 f i libzmq:ctx.obj
 0001:0000edc0       ?_Tidy@?$vector@Vtcp_address_mask_t@zmq@@V?$allocator@Vtcp_address_mask_t@zmq@@@std@@@std@@IEAAXXZ 000000018000fdc0 f i libzmq:ctx.obj
 0001:0000ee40       ?allocate@?$allocator@I@std@@QEAAPEAI_K@Z 000000018000fe40 f i libzmq:ctx.obj
 0001:0000eec0       ?allocate@?$allocator@PEAVpipe_t@zmq@@@std@@QEAAPEAPEAVpipe_t@zmq@@_K@Z 000000018000fec0 f i libzmq:socket_base.obj
 0001:0000eec0       ?allocate@?$allocator@PEAVio_thread_t@zmq@@@std@@QEAAPEAPEAVio_thread_t@zmq@@_K@Z 000000018000fec0 f i libzmq:ctx.obj
 0001:0000eec0       ?allocate@?$allocator@PEAVsocket_base_t@zmq@@@std@@QEAAPEAPEAVsocket_base_t@zmq@@_K@Z 000000018000fec0 f i libzmq:ctx.obj
 0001:0000eec0       ?allocate@?$allocator@PEAVsignaler_t@zmq@@@std@@QEAAPEAPEAVsignaler_t@zmq@@_K@Z 000000018000fec0 f i libzmq:mailbox_safe.obj
 0001:0000ef40       ?allocate@?$allocator@Vtcp_address_mask_t@zmq@@@std@@QEAAPEAVtcp_address_mask_t@zmq@@_K@Z 000000018000ff40 f i libzmq:ctx.obj
 0001:0000efc0       ?check_tag@ctx_t@zmq@@QEAA_NXZ 000000018000ffc0 f   libzmq:ctx.obj
 0001:0000efd0       ?choose_io_thread@ctx_t@zmq@@QEAAPEAVio_thread_t@2@_K@Z 000000018000ffd0 f   libzmq:ctx.obj
 0001:0000f080       ?clipped_maxsocket@@YAHH@Z 0000000180010080 f   libzmq:ctx.obj
 0001:0000f0b0       ?connect_inproc_sockets@ctx_t@zmq@@AEAAXPEAVsocket_base_t@2@AEAUoptions_t@2@AEBUpending_connection_t@12@W4side@12@@Z 00000001800100b0 f   libzmq:ctx.obj
 0001:0000f3e0       ?connect_pending@ctx_t@zmq@@QEAAXPEBDPEAVsocket_base_t@2@@Z 00000001800103e0 f   libzmq:ctx.obj
 0001:0000f720       ?create_socket@ctx_t@zmq@@QEAAPEAVsocket_base_t@2@H@Z 0000000180010720 f   libzmq:ctx.obj
 0001:0000fd40       ?deallocate@?$allocator@I@std@@QEAAXPEAI_K@Z 0000000180010d40 f i libzmq:ctx.obj
 0001:0000fdb0       ?deallocate@?$allocator@Vtcp_address_mask_t@zmq@@@std@@QEAAXPEAVtcp_address_mask_t@zmq@@_K@Z 0000000180010db0 f i libzmq:ctx.obj
 0001:0000fe20       ?destroy_socket@ctx_t@zmq@@QEAAXPEAVsocket_base_t@2@@Z 0000000180010e20 f   libzmq:ctx.obj
 0001:0000ff70       ?erase@?$_Tree@V?$_Tmap_traits@V?$basic_string@DU?$char_traits@D@std@@V?$allocator@D@2@@std@@Uendpoint_t@zmq@@U?$less@V?$basic_string@DU?$char_traits@D@std@@V?$allocator@D@2@@std@@@2@V?$allocator@U?$pair@$$CBV?$basic_string@DU?$char_traits@D@std@@V?$allocator@D@2@@std@@Uendpoint_t@zmq@@@std@@@2@$0A@@std@@@std@@QEAA?AV?$_Tree_iterator@V?$_Tree_val@U?$_Tree_simple_types@U?$pair@$$CBV?$basic_string@DU?$char_traits@D@std@@V?$allocator@D@2@@std@@Uendpoint_t@zmq@@@std@@@std@@@std@@@2@V?$_Tree_const_iterator@V?$_Tree_val@U?$_Tree_simple_types@U?$pair@$$CBV?$basic_string@DU?$char_traits@D@std@@V?$allocator@D@2@@std@@Uendpoint_t@zmq@@@std@@@std@@@std@@@2@0@Z 0000000180010f70 f i libzmq:ctx.obj
 0001:00010060       ?erase@?$_Tree@V?$_Tmap_traits@V?$basic_string@DU?$char_traits@D@std@@V?$allocator@D@2@@std@@Uendpoint_t@zmq@@U?$less@V?$basic_string@DU?$char_traits@D@std@@V?$allocator@D@2@@std@@@2@V?$allocator@U?$pair@$$CBV?$basic_string@DU?$char_traits@D@std@@V?$allocator@D@2@@std@@Uendpoint_t@zmq@@@std@@@2@$0A@@std@@@std@@QEAA?AV?$_Tree_iterator@V?$_Tree_val@U?$_Tree_simple_types@U?$pair@$$CBV?$basic_string@DU?$char_traits@D@std@@V?$allocator@D@2@@std@@Uendpoint_t@zmq@@@std@@@std@@@std@@@2@V?$_Tree_const_iterator@V?$_Tree_val@U?$_Tree_simple_types@U?$pair@$$CBV?$basic_string@DU?$char_traits@D@std@@V?$allocator@D@2@@std@@Uendpoint_t@zmq@@@std@@@std@@@std@@@2@@Z 0000000180011060 f i libzmq:ctx.obj
 0001:00010860       ?erase@?$_Tree@V?$_Tmap_traits@V?$basic_string@DU?$char_traits@D@std@@V?$allocator@D@2@@std@@Upending_connection_t@ctx_t@zmq@@U?$less@V?$basic_string@DU?$char_traits@D@std@@V?$allocator@D@2@@std@@@2@V?$allocator@U?$pair@$$CBV?$basic_string@DU?$char_traits@D@std@@V?$allocator@D@2@@std@@Upending_connection_t@ctx_t@zmq@@@std@@@2@$00@std@@@std@@QEAA?AV?$_Tree_iterator@V?$_Tree_val@U?$_Tree_simple_types@U?$pair@$$CBV?$basic_string@DU?$char_traits@D@std@@V?$allocator@D@2@@std@@Upending_connection_t@ctx_t@zmq@@@std@@@std@@@std@@@2@V?$_Tree_const_iterator@V?$_Tree_val@U?$_Tree_simple_types@U?$pair@$$CBV?$basic_string@DU?$char_traits@D@std@@V?$allocator@D@2@@std@@Upending_connection_t@ctx_t@zmq@@@std@@@std@@@std@@@2@0@Z 0000000180011860 f i libzmq:ctx.obj
 0001:00010950       ?erase@?$_Tree@V?$_Tmap_traits@V?$basic_string@DU?$char_traits@D@std@@V?$allocator@D@2@@std@@Upending_connection_t@ctx_t@zmq@@U?$less@V?$basic_string@DU?$char_traits@D@std@@V?$allocator@D@2@@std@@@2@V?$allocator@U?$pair@$$CBV?$basic_string@DU?$char_traits@D@std@@V?$allocator@D@2@@std@@Upending_connection_t@ctx_t@zmq@@@std@@@2@$00@std@@@std@@QEAA?AV?$_Tree_iterator@V?$_Tree_val@U?$_Tree_simple_types@U?$pair@$$CBV?$basic_string@DU?$char_traits@D@std@@V?$allocator@D@2@@std@@Upending_connection_t@ctx_t@zmq@@@std@@@std@@@std@@@2@V?$_Tree_const_iterator@V?$_Tree_val@U?$_Tree_simple_types@U?$pair@$$CBV?$basic_string@DU?$char_traits@D@std@@V?$allocator@D@2@@std@@Upending_connection_t@ctx_t@zmq@@@std@@@std@@@std@@@2@@Z 0000000180011950 f i libzmq:ctx.obj
 0001:00011150       ?find_endpoint@ctx_t@zmq@@QEAA?AUendpoint_t@2@PEBD@Z 0000000180012150 f   libzmq:ctx.obj
 0001:000114f0       ?get@ctx_t@zmq@@QEAAHH@Z   00000001800124f0 f   libzmq:ctx.obj
 0001:00011570       ?get_reaper@ctx_t@zmq@@QEAAPEAVobject_t@2@XZ 0000000180012570 f   libzmq:ctx.obj
 0001:00011580       ?pend_connection@ctx_t@zmq@@QEAAXAEBV?$basic_string@DU?$char_traits@D@std@@V?$allocator@D@2@@std@@AEBUendpoint_t@2@PEAPEAVpipe_t@2@@Z 0000000180012580 f   libzmq:ctx.obj
 0001:000117e0       ?register_endpoint@ctx_t@zmq@@QEAAHPEBDAEBUendpoint_t@2@@Z 00000001800127e0 f   libzmq:ctx.obj
 0001:000119d0       ?send_command@ctx_t@zmq@@QEAAXIAEBUcommand_t@2@@Z 00000001800129d0 f   libzmq:ctx.obj
 0001:000119f0       ?set@ctx_t@zmq@@QEAAHHH@Z  00000001800129f0 f   libzmq:ctx.obj
 0001:00011c00       ?start_thread@ctx_t@zmq@@QEBAXAEAVthread_t@2@P6AXPEAX@Z1@Z 0000000180012c00 f   libzmq:ctx.obj
 0001:00011c40       ?terminate@ctx_t@zmq@@QEAAHXZ 0000000180012c40 f   libzmq:ctx.obj
 0001:00011fa0       ?unregister_endpoint@ctx_t@zmq@@QEAAHAEBV?$basic_string@DU?$char_traits@D@std@@V?$allocator@D@2@@std@@PEAVsocket_base_t@2@@Z 0000000180012fa0 f   libzmq:ctx.obj
 0001:00012050       ?unregister_endpoints@ctx_t@zmq@@QEAAXPEAVsocket_base_t@2@@Z 0000000180013050 f   libzmq:ctx.obj
 0001:00012190       ??$?0U?$_Wrap_alloc@V?$allocator@U?$_Tree_node@U?$pair@$$CBV?$basic_string@DU?$char_traits@D@std@@V?$allocator@D@2@@std@@V12@@std@@PEAX@std@@@std@@@std@@@?$_Tree@V?$_Tmap_traits@V?$basic_string@DU?$char_traits@D@std@@V?$allocator@D@2@@std@@V12@U?$less@V?$basic_string@DU?$char_traits@D@std@@V?$allocator@D@2@@std@@@2@V?$allocator@U?$pair@$$CBV?$basic_string@DU?$char_traits@D@std@@V?$allocator@D@2@@std@@V12@@std@@@2@$0A@@std@@@std@@QEAA@AEBV01@$$QEAU?$_Wrap_alloc@V?$allocator@U?$_Tree_node@U?$pair@$$CBV?$basic_string@DU?$char_traits@D@std@@V?$allocator@D@2@@std@@V12@@std@@PEAX@std@@@std@@@1@@Z 0000000180013190 f i libzmq:metadata.obj
 0001:000121f0       ??$_Buynode@AEAU?$pair@$$CBV?$basic_string@DU?$char_traits@D@std@@V?$allocator@D@2@@std@@V12@@std@@@?$_Tree_comp_alloc@V?$_Tmap_traits@V?$basic_string@DU?$char_traits@D@std@@V?$allocator@D@2@@std@@V12@U?$less@V?$basic_string@DU?$char_traits@D@std@@V?$allocator@D@2@@std@@@2@V?$allocator@U?$pair@$$CBV?$basic_string@DU?$char_traits@D@std@@V?$allocator@D@2@@std@@V12@@std@@@2@$0A@@std@@@std@@QEAAPEAU?$_Tree_node@U?$pair@$$CBV?$basic_string@DU?$char_traits@D@std@@V?$allocator@D@2@@std@@V12@@std@@PEAX@1@AEAU?$pair@$$CBV?$basic_string@DU?$char_traits@D@std@@V?$allocator@D@2@@std@@V12@@1@@Z 00000001800131f0 f i libzmq:metadata.obj
 0001:00012250       ??$_Copy@U_Copy_tag@?$_Tree@V?$_Tmap_traits@V?$basic_string@DU?$char_traits@D@std@@V?$allocator@D@2@@std@@V12@U?$less@V?$basic_string@DU?$char_traits@D@std@@V?$allocator@D@2@@std@@@2@V?$allocator@U?$pair@$$CBV?$basic_string@DU?$char_traits@D@std@@V?$allocator@D@2@@std@@V12@@std@@@2@$0A@@std@@@std@@@?$_Tree@V?$_Tmap_traits@V?$basic_string@DU?$char_traits@D@std@@V?$allocator@D@2@@std@@V12@U?$less@V?$basic_string@DU?$char_traits@D@std@@V?$allocator@D@2@@std@@@2@V?$allocator@U?$pair@$$CBV?$basic_string@DU?$char_traits@D@std@@V?$allocator@D@2@@std@@V12@@std@@@2@$0A@@std@@@std@@IEAAXAEBV01@U_Copy_tag@01@@Z 0000000180013250 f i libzmq:metadata.obj
 0001:00012300       ??$_Copy_nodes@U_Copy_tag@?$_Tree@V?$_Tmap_traits@V?$basic_string@DU?$char_traits@D@std@@V?$allocator@D@2@@std@@V12@U?$less@V?$basic_string@DU?$char_traits@D@std@@V?$allocator@D@2@@std@@@2@V?$allocator@U?$pair@$$CBV?$basic_string@DU?$char_traits@D@std@@V?$allocator@D@2@@std@@V12@@std@@@2@$0A@@std@@@std@@@?$_Tree@V?$_Tmap_traits@V?$basic_string@DU?$char_traits@D@std@@V?$allocator@D@2@@std@@V12@U?$less@V?$basic_string@DU?$char_traits@D@std@@V?$allocator@D@2@@std@@@2@V?$allocator@U?$pair@$$CBV?$basic_string@DU?$char_traits@D@std@@V?$allocator@D@2@@std@@V12@@std@@@2@$0A@@std@@@std@@IEAAPEAU?$_Tree_node@U?$pair@$$CBV?$basic_string@DU?$char_traits@D@std@@V?$allocator@D@2@@std@@V12@@std@@PEAX@1@PEAU21@0U_Copy_tag@01@@Z 0000000180013300 f i libzmq:metadata.obj
 0001:000123a0       ??$_Lbound@V?$basic_string@DU?$char_traits@D@std@@V?$allocator@D@2@@std@@@?$_Tree@V?$_Tmap_traits@V?$basic_string@DU?$char_traits@D@std@@V?$allocator@D@2@@std@@V12@U?$less@V?$basic_string@DU?$char_traits@D@std@@V?$allocator@D@2@@std@@@2@V?$allocator@U?$pair@$$CBV?$basic_string@DU?$char_traits@D@std@@V?$allocator@D@2@@std@@V12@@std@@@2@$0A@@std@@@std@@IEBAPEAU?$_Tree_node@U?$pair@$$CBV?$basic_string@DU?$char_traits@D@std@@V?$allocator@D@2@@std@@V12@@std@@PEAX@1@AEBV?$basic_string@DU?$char_traits@D@std@@V?$allocator@D@2@@1@@Z 00000001800133a0 f i libzmq:metadata.obj
 0001:000123a0       ??$_Lbound@V?$basic_string@DU?$char_traits@D@std@@V?$allocator@D@2@@std@@@?$_Tree@V?$_Tmap_traits@V?$basic_string@DU?$char_traits@D@std@@V?$allocator@D@2@@std@@Uendpoint_t@zmq@@U?$less@V?$basic_string@DU?$char_traits@D@std@@V?$allocator@D@2@@std@@@2@V?$allocator@U?$pair@$$CBV?$basic_string@DU?$char_traits@D@std@@V?$allocator@D@2@@std@@Uendpoint_t@zmq@@@std@@@2@$0A@@std@@@std@@IEBAPEAU?$_Tree_node@U?$pair@$$CBV?$basic_string@DU?$char_traits@D@std@@V?$allocator@D@2@@std@@Uendpoint_t@zmq@@@std@@PEAX@1@AEBV?$basic_string@DU?$char_traits@D@std@@V?$allocator@D@2@@1@@Z 00000001800133a0 f i libzmq:ctx.obj
 0001:000123a0       ??$_Lbound@V?$basic_string@DU?$char_traits@D@std@@V?$allocator@D@2@@std@@@?$_Tree@V?$_Tset_traits@V?$basic_string@DU?$char_traits@D@std@@V?$allocator@D@2@@std@@U?$less@V?$basic_string@DU?$char_traits@D@std@@V?$allocator@D@2@@std@@@2@V?$allocator@V?$basic_string@DU?$char_traits@D@std@@V?$allocator@D@2@@std@@@2@$0A@@std@@@std@@IEBAPEAU?$_Tree_node@V?$basic_string@DU?$char_traits@D@std@@V?$allocator@D@2@@std@@PEAX@1@AEBV?$basic_string@DU?$char_traits@D@std@@V?$allocator@D@2@@1@@Z 00000001800133a0 f i libzmq:dish.obj
 0001:00012440       ??0?$pair@$$CBV?$basic_string@DU?$char_traits@D@std@@V?$allocator@D@2@@std@@V12@@std@@QEAA@AEBU01@@Z 0000000180013440 f i libzmq:metadata.obj
 0001:000124e0       ??0metadata_t@zmq@@QEAA@AEBV?$map@V?$basic_string@DU?$char_traits@D@std@@V?$allocator@D@2@@std@@V12@U?$less@V?$basic_string@DU?$char_traits@D@std@@V?$allocator@D@2@@std@@@2@V?$allocator@U?$pair@$$CBV?$basic_string@DU?$char_traits@D@std@@V?$allocator@D@2@@std@@V12@@std@@@2@@std@@@Z 00000001800134e0 f   libzmq:metadata.obj
 0001:00012510       ??1?$_Tree_comp_alloc@V?$_Tmap_traits@V?$basic_string@DU?$char_traits@D@std@@V?$allocator@D@2@@std@@V12@U?$less@V?$basic_string@DU?$char_traits@D@std@@V?$allocator@D@2@@std@@@2@V?$allocator@U?$pair@$$CBV?$basic_string@DU?$char_traits@D@std@@V?$allocator@D@2@@std@@V12@@std@@@2@$0A@@std@@@std@@QEAA@XZ 0000000180013510 f i libzmq:metadata.obj
 0001:00012510       ??1?$_Tree_comp_alloc@V?$_Tmap_traits@V?$basic_string@DU?$char_traits@D@std@@V?$allocator@D@2@@std@@Upending_connection_t@ctx_t@zmq@@U?$less@V?$basic_string@DU?$char_traits@D@std@@V?$allocator@D@2@@std@@@2@V?$allocator@U?$pair@$$CBV?$basic_string@DU?$char_traits@D@std@@V?$allocator@D@2@@std@@Upending_connection_t@ctx_t@zmq@@@std@@@2@$00@std@@@std@@QEAA@XZ 0000000180013510 f i libzmq:ctx.obj
 0001:00012520       ?_Buyheadnode@?$_Tree_comp_alloc@V?$_Tmap_traits@V?$basic_string@DU?$char_traits@D@std@@V?$allocator@D@2@@std@@V12@U?$less@V?$basic_string@DU?$char_traits@D@std@@V?$allocator@D@2@@std@@@2@V?$allocator@U?$pair@$$CBV?$basic_string@DU?$char_traits@D@std@@V?$allocator@D@2@@std@@V12@@std@@@2@$0A@@std@@@std@@QEAAPEAU?$_Tree_node@U?$pair@$$CBV?$basic_string@DU?$char_traits@D@std@@V?$allocator@D@2@@std@@V12@@std@@PEAX@2@XZ 0000000180013520 f i libzmq:metadata.obj
 0001:00012580       ?_Buynode0@?$_Tree_comp_alloc@V?$_Tmap_traits@V?$basic_string@DU?$char_traits@D@std@@V?$allocator@D@2@@std@@V12@U?$less@V?$basic_string@DU?$char_traits@D@std@@V?$allocator@D@2@@std@@@2@V?$allocator@U?$pair@$$CBV?$basic_string@DU?$char_traits@D@std@@V?$allocator@D@2@@std@@V12@@std@@@2@$0A@@std@@@std@@QEAAPEAU?$_Tree_node@U?$pair@$$CBV?$basic_string@DU?$char_traits@D@std@@V?$allocator@D@2@@std@@V12@@std@@PEAX@2@XZ 0000000180013580 f i libzmq:metadata.obj
 0001:000125e0       ?_Erase@?$_Tree@V?$_Tmap_traits@V?$basic_string@DU?$char_traits@D@std@@V?$allocator@D@2@@std@@V12@U?$less@V?$basic_string@DU?$char_traits@D@std@@V?$allocator@D@2@@std@@@2@V?$allocator@U?$pair@$$CBV?$basic_string@DU?$char_traits@D@std@@V?$allocator@D@2@@std@@V12@@std@@@2@$0A@@std@@@std@@IEAAXPEAU?$_Tree_node@U?$pair@$$CBV?$basic_string@DU?$char_traits@D@std@@V?$allocator@D@2@@std@@V12@@std@@PEAX@2@@Z 00000001800135e0 f i libzmq:metadata.obj
 0001:00012760       ?_Lrotate@?$_Tree@V?$_Tmap_traits@IUoutpipe_t@server_t@zmq@@U?$less@I@std@@V?$allocator@U?$pair@$$CBIUoutpipe_t@server_t@zmq@@@std@@@5@$0A@@std@@@std@@IEAAXPEAU?$_Tree_node@U?$pair@$$CBIUoutpipe_t@server_t@zmq@@@std@@PEAX@2@@Z 0000000180013760 f i libzmq:server.obj
 0001:00012760       ?_Lrotate@?$_Tree@V?$_Tmap_traits@V?$basic_string@DU?$char_traits@D@std@@V?$allocator@D@2@@std@@V12@U?$less@V?$basic_string@DU?$char_traits@D@std@@V?$allocator@D@2@@std@@@2@V?$allocator@U?$pair@$$CBV?$basic_string@DU?$char_traits@D@std@@V?$allocator@D@2@@std@@V12@@std@@@2@$0A@@std@@@std@@IEAAXPEAU?$_Tree_node@U?$pair@$$CBV?$basic_string@DU?$char_traits@D@std@@V?$allocator@D@2@@std@@V12@@std@@PEAX@2@@Z 0000000180013760 f i libzmq:metadata.obj
 0001:00012760       ?_Lrotate@?$_Tree@V?$_Tset_traits@PEAVown_t@zmq@@U?$less@PEAVown_t@zmq@@@std@@V?$allocator@PEAVown_t@zmq@@@4@$0A@@std@@@std@@IEAAXPEAU?$_Tree_node@PEAVown_t@zmq@@PEAX@2@@Z 0000000180013760 f i libzmq:own.obj
 0001:00012760       ?_Lrotate@?$_Tree@V?$_Tset_traits@V?$basic_string@DU?$char_traits@D@std@@V?$allocator@D@2@@std@@U?$less@V?$basic_string@DU?$char_traits@D@std@@V?$allocator@D@2@@std@@@2@V?$allocator@V?$basic_string@DU?$char_traits@D@std@@V?$allocator@D@2@@std@@@2@$0A@@std@@@std@@IEAAXPEAU?$_Tree_node@V?$basic_string@DU?$char_traits@D@std@@V?$allocator@D@2@@std@@PEAX@2@@Z 0000000180013760 f i libzmq:dish.obj
 0001:00012760       ?_Lrotate@?$_Tree@V?$_Tmap_traits@GUfamily_entry_t@select_t@zmq@@U?$less@G@std@@V?$allocator@U?$pair@$$CBGUfamily_entry_t@select_t@zmq@@@std@@@5@$0A@@std@@@std@@IEAAXPEAU?$_Tree_node@U?$pair@$$CBGUfamily_entry_t@select_t@zmq@@@std@@PEAX@2@@Z 0000000180013760 f i libzmq:select.obj
 0001:00012760       ?_Lrotate@?$_Tree@V?$_Tmap_traits@V?$basic_string@DU?$char_traits@D@std@@V?$allocator@D@2@@std@@U?$pair@PEAVown_t@zmq@@PEAVpipe_t@2@@2@U?$less@V?$basic_string@DU?$char_traits@D@std@@V?$allocator@D@2@@std@@@2@V?$allocator@U?$pair@$$CBV?$basic_string@DU?$char_traits@D@std@@V?$allocator@D@2@@std@@U?$pair@PEAVown_t@zmq@@PEAVpipe_t@2@@2@@std@@@2@$00@std@@@std@@IEAAXPEAU?$_Tree_node@U?$pair@$$CBV?$basic_string@DU?$char_traits@D@std@@V?$allocator@D@2@@std@@U?$pair@PEAVown_t@zmq@@PEAVpipe_t@2@@2@@std@@PEAX@2@@Z 0000000180013760 f i libzmq:socket_base.obj
 0001:00012760       ?_Lrotate@?$_Tree@V?$_Tmap_traits@V?$basic_string@EU?$char_traits@E@std@@V?$allocator@E@2@@std@@Uoutpipe_t@stream_t@zmq@@U?$less@V?$basic_string@EU?$char_traits@E@std@@V?$allocator@E@2@@std@@@2@V?$allocator@U?$pair@$$CBV?$basic_string@EU?$char_traits@E@std@@V?$allocator@E@2@@std@@Uoutpipe_t@stream_t@zmq@@@std@@@2@$0A@@std@@@std@@IEAAXPEAU?$_Tree_node@U?$pair@$$CBV?$basic_string@EU?$char_traits@E@std@@V?$allocator@E@2@@std@@Uoutpipe_t@stream_t@zmq@@@std@@PEAX@2@@Z 0000000180013760 f i libzmq:stream.obj
 0001:00012760       ?_Lrotate@?$_Tree@V?$_Tmap_traits@V?$basic_string@EU?$char_traits@E@std@@V?$allocator@E@2@@std@@Uoutpipe_t@router_t@zmq@@U?$less@V?$basic_string@EU?$char_traits@E@std@@V?$allocator@E@2@@std@@@2@V?$allocator@U?$pair@$$CBV?$basic_string@EU?$char_traits@E@std@@V?$allocator@E@2@@std@@Uoutpipe_t@router_t@zmq@@@std@@@2@$0A@@std@@@std@@IEAAXPEAU?$_Tree_node@U?$pair@$$CBV?$basic_string@EU?$char_traits@E@std@@V?$allocator@E@2@@std@@Uoutpipe_t@router_t@zmq@@@std@@PEAX@2@@Z 0000000180013760 f i libzmq:router.obj
 0001:00012760       ?_Lrotate@?$_Tree@V?$_Tmap_traits@V?$basic_string@DU?$char_traits@D@std@@V?$allocator@D@2@@std@@Upending_connection_t@ctx_t@zmq@@U?$less@V?$basic_string@DU?$char_traits@D@std@@V?$allocator@D@2@@std@@@2@V?$allocator@U?$pair@$$CBV?$basic_string@DU?$char_traits@D@std@@V?$allocator@D@2@@std@@Upending_connection_t@ctx_t@zmq@@@std@@@2@$00@std@@@std@@IEAAXPEAU?$_Tree_node@U?$pair@$$CBV?$basic_string@DU?$char_traits@D@std@@V?$allocator@D@2@@std@@Upending_connection_t@ctx_t@zmq@@@std@@PEAX@2@@Z 0000000180013760 f i libzmq:ctx.obj
 0001:00012760       ?_Lrotate@?$_Tree@V?$_Tset_traits@PEAVpipe_t@zmq@@U?$less@PEAVpipe_t@zmq@@@std@@V?$allocator@PEAVpipe_t@zmq@@@4@$0A@@std@@@std@@IEAAXPEAU?$_Tree_node@PEAVpipe_t@zmq@@PEAX@2@@Z 0000000180013760 f i libzmq:session_base.obj
 0001:00012760       ?_Lrotate@?$_Tree@V?$_Tmap_traits@V?$basic_string@DU?$char_traits@D@std@@V?$allocator@D@2@@std@@Uendpoint_t@zmq@@U?$less@V?$basic_string@DU?$char_traits@D@std@@V?$allocator@D@2@@std@@@2@V?$allocator@U?$pair@$$CBV?$basic_string@DU?$char_traits@D@std@@V?$allocator@D@2@@std@@Uendpoint_t@zmq@@@std@@@2@$0A@@std@@@std@@IEAAXPEAU?$_Tree_node@U?$pair@$$CBV?$basic_string@DU?$char_traits@D@std@@V?$allocator@D@2@@std@@Uendpoint_t@zmq@@@std@@PEAX@2@@Z 0000000180013760 f i libzmq:ctx.obj
 0001:00012760       ?_Lrotate@?$_Tree@V?$_Tmap_traits@_KUtimer_info_t@poller_base_t@zmq@@U?$less@_K@std@@V?$allocator@U?$pair@$$CB_KUtimer_info_t@poller_base_t@zmq@@@std@@@5@$00@std@@@std@@IEAAXPEAU?$_Tree_node@U?$pair@$$CB_KUtimer_info_t@poller_base_t@zmq@@@std@@PEAX@2@@Z 0000000180013760 f i libzmq:poller_base.obj
 0001:00012760       ?_Lrotate@?$_Tree@V?$_Tmap_traits@V?$basic_string@DU?$char_traits@D@std@@V?$allocator@D@2@@std@@PEAVpipe_t@zmq@@U?$less@V?$basic_string@DU?$char_traits@D@std@@V?$allocator@D@2@@std@@@2@V?$allocator@U?$pair@$$CBV?$basic_string@DU?$char_traits@D@std@@V?$allocator@D@2@@std@@PEAVpipe_t@zmq@@@std@@@2@$00@std@@@std@@IEAAXPEAU?$_Tree_node@U?$pair@$$CBV?$basic_string@DU?$char_traits@D@std@@V?$allocator@D@2@@std@@PEAVpipe_t@zmq@@@std@@PEAX@2@@Z 0000000180013760 f i libzmq:socket_base.obj
 0001:000127c0       ?add_ref@metadata_t@zmq@@QEAAXXZ 00000001800137c0 f   libzmq:metadata.obj
 0001:000127d0       ?drop_ref@metadata_t@zmq@@QEAA_NXZ 00000001800137d0 f   libzmq:metadata.obj
 0001:000127e0       ?erase@?$_Tree@V?$_Tmap_traits@V?$basic_string@DU?$char_traits@D@std@@V?$allocator@D@2@@std@@V12@U?$less@V?$basic_string@DU?$char_traits@D@std@@V?$allocator@D@2@@std@@@2@V?$allocator@U?$pair@$$CBV?$basic_string@DU?$char_traits@D@std@@V?$allocator@D@2@@std@@V12@@std@@@2@$0A@@std@@@std@@QEAA?AV?$_Tree_iterator@V?$_Tree_val@U?$_Tree_simple_types@U?$pair@$$CBV?$basic_string@DU?$char_traits@D@std@@V?$allocator@D@2@@std@@V12@@std@@@std@@@std@@@2@V?$_Tree_const_iterator@V?$_Tree_val@U?$_Tree_simple_types@U?$pair@$$CBV?$basic_string@DU?$char_traits@D@std@@V?$allocator@D@2@@std@@V12@@std@@@std@@@std@@@2@0@Z 00000001800137e0 f i libzmq:metadata.obj
 0001:000128d0       ?erase@?$_Tree@V?$_Tmap_traits@V?$basic_string@DU?$char_traits@D@std@@V?$allocator@D@2@@std@@V12@U?$less@V?$basic_string@DU?$char_traits@D@std@@V?$allocator@D@2@@std@@@2@V?$allocator@U?$pair@$$CBV?$basic_string@DU?$char_traits@D@std@@V?$allocator@D@2@@std@@V12@@std@@@2@$0A@@std@@@std@@QEAA?AV?$_Tree_iterator@V?$_Tree_val@U?$_Tree_simple_types@U?$pair@$$CBV?$basic_string@DU?$char_traits@D@std@@V?$allocator@D@2@@std@@V12@@std@@@std@@@std@@@2@V?$_Tree_const_iterator@V?$_Tree_val@U?$_Tree_simple_types@U?$pair@$$CBV?$basic_string@DU?$char_traits@D@std@@V?$allocator@D@2@@std@@V12@@std@@@std@@@std@@@2@@Z 00000001800138d0 f i libzmq:metadata.obj
 0001:00012db0       ?get@metadata_t@zmq@@QEBAPEBDAEBV?$basic_string@DU?$char_traits@D@std@@V?$allocator@D@2@@std@@@Z 0000000180013db0 f   libzmq:metadata.obj
 0001:00012e20       ?add_refs@msg_t@zmq@@QEAAXH@Z 0000000180013e20 f   libzmq:msg.obj
 0001:00012f20       ?check@msg_t@zmq@@QEAA_NXZ 0000000180013f20 f   libzmq:msg.obj
 0001:00012f30       ?close@msg_t@zmq@@QEAAHXZ  0000000180013f30 f   libzmq:msg.obj
 0001:000130a0       ?copy@msg_t@zmq@@QEAAHAEAV12@@Z 00000001800140a0 f   libzmq:msg.obj
 0001:00013190       ?data@msg_t@zmq@@QEAAPEAXXZ 0000000180014190 f   libzmq:msg.obj
 0001:00013290       ?flags@msg_t@zmq@@QEAAEXZ  0000000180014290 f   libzmq:msg.obj
 0001:000132a0       ?get_routing_id@msg_t@zmq@@QEAAIXZ 00000001800142a0 f   libzmq:msg.obj
 0001:000132b0       ?group@msg_t@zmq@@QEAAPEBDXZ 00000001800142b0 f   libzmq:msg.obj
 0001:000132c0       ?init@msg_t@zmq@@QEAAHPEAX_KP6AX00@Z0PEAUcontent_t@12@@Z 00000001800142c0 f   libzmq:msg.obj
 0001:00013380       ?init@msg_t@zmq@@QEAAHXZ   0000000180014380 f   libzmq:msg.obj
 0001:000133a0       ?init_data@msg_t@zmq@@QEAAHPEAX_KP6AX00@Z0@Z 00000001800143a0 f   libzmq:msg.obj
 0001:000134b0       ?init_delimiter@msg_t@zmq@@QEAAHXZ 00000001800144b0 f   libzmq:msg.obj
 0001:000134d0       ?init_external_storage@msg_t@zmq@@QEAAHPEAUcontent_t@12@PEAX_KP6AX11@Z1@Z 00000001800144d0 f   libzmq:msg.obj
 0001:000135f0       ?init_join@msg_t@zmq@@QEAAHXZ 00000001800145f0 f   libzmq:msg.obj
 0001:00013610       ?init_leave@msg_t@zmq@@QEAAHXZ 0000000180014610 f   libzmq:msg.obj
 0001:00013630       ?init_size@msg_t@zmq@@QEAAH_K@Z 0000000180014630 f   libzmq:msg.obj
 0001:00013700       ?is_cmsg@msg_t@zmq@@QEBA_NXZ 0000000180014700 f   libzmq:msg.obj
 0001:00013710       ?is_credential@msg_t@zmq@@QEBA_NXZ 0000000180014710 f   libzmq:msg.obj
 0001:00013720       ?is_delimiter@msg_t@zmq@@QEBA_NXZ 0000000180014720 f   libzmq:msg.obj
 0001:00013730       ?is_identity@msg_t@zmq@@QEBA_NXZ 0000000180014730 f   libzmq:msg.obj
 0001:00013740       ?is_join@msg_t@zmq@@QEBA_NXZ 0000000180014740 f   libzmq:msg.obj
 0001:00013750       ?is_leave@msg_t@zmq@@QEBA_NXZ 0000000180014750 f   libzmq:msg.obj
 0001:00013760       ?is_vsm@msg_t@zmq@@QEBA_NXZ 0000000180014760 f   libzmq:msg.obj
 0001:00013770       ?is_zcmsg@msg_t@zmq@@QEBA_NXZ 0000000180014770 f   libzmq:msg.obj
 0001:00013780       ?metadata@msg_t@zmq@@QEBAPEAVmetadata_t@2@XZ 0000000180014780 f   libzmq:msg.obj
 0001:00013790       ?move@msg_t@zmq@@QEAAHAEAV12@@Z 0000000180014790 f   libzmq:msg.obj
 0001:00013810       ?refcnt@msg_t@zmq@@AEAAPEAVatomic_counter_t@2@XZ 0000000180014810 f   libzmq:msg.obj
 0001:00013890       ?reset_flags@msg_t@zmq@@QEAAXE@Z 0000000180014890 f   libzmq:msg.obj
 0001:000138a0       ?reset_metadata@msg_t@zmq@@QEAAXXZ 00000001800148a0 f   libzmq:msg.obj
 0001:00013930       ?reset_routing_id@msg_t@zmq@@QEAAHXZ 0000000180014930 f   libzmq:msg.obj
 0001:00013940       ?rm_refs@msg_t@zmq@@QEAA_NH@Z 0000000180014940 f   libzmq:msg.obj
 0001:00013ac0       ?set_flags@msg_t@zmq@@QEAAXE@Z 0000000180014ac0 f   libzmq:msg.obj
 0001:00013ad0       ?set_group@msg_t@zmq@@QEAAHPEBD@Z 0000000180014ad0 f   libzmq:msg.obj
 0001:00013af0       ?set_group@msg_t@zmq@@QEAAHPEBD_K@Z 0000000180014af0 f   libzmq:msg.obj
 0001:00013b40       ?set_metadata@msg_t@zmq@@QEAAXPEAVmetadata_t@2@@Z 0000000180014b40 f   libzmq:msg.obj
 0001:00013b70       ?set_routing_id@msg_t@zmq@@QEAAHI@Z 0000000180014b70 f   libzmq:msg.obj
 0001:00013ba0       ?size@msg_t@zmq@@QEAA_KXZ  0000000180014ba0 f   libzmq:msg.obj
 0001:00013ca0       ??$_Buynode@U?$pair@$$CBV?$basic_string@DU?$char_traits@D@std@@V?$allocator@D@2@@std@@PEAVpipe_t@zmq@@@std@@@?$_Tree_comp_alloc@V?$_Tmap_traits@V?$basic_string@DU?$char_traits@D@std@@V?$allocator@D@2@@std@@PEAVpipe_t@zmq@@U?$less@V?$basic_string@DU?$char_traits@D@std@@V?$allocator@D@2@@std@@@2@V?$allocator@U?$pair@$$CBV?$basic_string@DU?$char_traits@D@std@@V?$allocator@D@2@@std@@PEAVpipe_t@zmq@@@std@@@2@$00@std@@@std@@QEAAPEAU?$_Tree_node@U?$pair@$$CBV?$basic_string@DU?$char_traits@D@std@@V?$allocator@D@2@@std@@PEAVpipe_t@zmq@@@std@@PEAX@1@$$QEAU?$pair@$$CBV?$basic_string@DU?$char_traits@D@std@@V?$allocator@D@2@@std@@PEAVpipe_t@zmq@@@1@@Z 0000000180014ca0 f i libzmq:socket_base.obj
 0001:00013d00       ??$_Buynode@U?$pair@$$CBV?$basic_string@DU?$char_traits@D@std@@V?$allocator@D@2@@std@@U?$pair@PEAVown_t@zmq@@PEAVpipe_t@2@@2@@std@@@?$_Tree_comp_alloc@V?$_Tmap_traits@V?$basic_string@DU?$char_traits@D@std@@V?$allocator@D@2@@std@@U?$pair@PEAVown_t@zmq@@PEAVpipe_t@2@@2@U?$less@V?$basic_string@DU?$char_traits@D@std@@V?$allocator@D@2@@std@@@2@V?$allocator@U?$pair@$$CBV?$basic_string@DU?$char_traits@D@std@@V?$allocator@D@2@@std@@U?$pair@PEAVown_t@zmq@@PEAVpipe_t@2@@2@@std@@@2@$00@std@@@std@@QEAAPEAU?$_Tree_node@U?$pair@$$CBV?$basic_string@DU?$char_traits@D@std@@V?$allocator@D@2@@std@@U?$pair@PEAVown_t@zmq@@PEAVpipe_t@2@@2@@std@@PEAX@1@$$QEAU?$pair@$$CBV?$basic_string@DU?$char_traits@D@std@@V?$allocator@D@2@@std@@U?$pair@PEAVown_t@zmq@@PEAVpipe_t@2@@2@@1@@Z 0000000180014d00 f i libzmq:socket_base.obj
 0001:00013d60       ??$_Eqrange@V?$basic_string@DU?$char_traits@D@std@@V?$allocator@D@2@@std@@@?$_Tree@V?$_Tmap_traits@V?$basic_string@DU?$char_traits@D@std@@V?$allocator@D@2@@std@@PEAVpipe_t@zmq@@U?$less@V?$basic_string@DU?$char_traits@D@std@@V?$allocator@D@2@@std@@@2@V?$allocator@U?$pair@$$CBV?$basic_string@DU?$char_traits@D@std@@V?$allocator@D@2@@std@@PEAVpipe_t@zmq@@@std@@@2@$00@std@@@std@@IEBA?AU?$pair@V?$_Tree_const_iterator@V?$_Tree_val@U?$_Tree_simple_types@U?$pair@$$CBV?$basic_string@DU?$char_traits@D@std@@V?$allocator@D@2@@std@@PEAVpipe_t@zmq@@@std@@@std@@@std@@@std@@V12@@1@AEBV?$basic_string@DU?$char_traits@D@std@@V?$allocator@D@2@@1@@Z 0000000180014d60 f i libzmq:socket_base.obj
 0001:00013d60       ??$_Eqrange@V?$basic_string@DU?$char_traits@D@std@@V?$allocator@D@2@@std@@@?$_Tree@V?$_Tmap_traits@V?$basic_string@DU?$char_traits@D@std@@V?$allocator@D@2@@std@@Upending_connection_t@ctx_t@zmq@@U?$less@V?$basic_string@DU?$char_traits@D@std@@V?$allocator@D@2@@std@@@2@V?$allocator@U?$pair@$$CBV?$basic_string@DU?$char_traits@D@std@@V?$allocator@D@2@@std@@Upending_connection_t@ctx_t@zmq@@@std@@@2@$00@std@@@std@@IEBA?AU?$pair@V?$_Tree_const_iterator@V?$_Tree_val@U?$_Tree_simple_types@U?$pair@$$CBV?$basic_string@DU?$char_traits@D@std@@V?$allocator@D@2@@std@@Upending_connection_t@ctx_t@zmq@@@std@@@std@@@std@@@std@@V12@@1@AEBV?$basic_string@DU?$char_traits@D@std@@V?$allocator@D@2@@1@@Z 0000000180014d60 f i libzmq:ctx.obj
 0001:00013d60       ??$_Eqrange@V?$basic_string@DU?$char_traits@D@std@@V?$allocator@D@2@@std@@@?$_Tree@V?$_Tmap_traits@V?$basic_string@DU?$char_traits@D@std@@V?$allocator@D@2@@std@@U?$pair@PEAVown_t@zmq@@PEAVpipe_t@2@@2@U?$less@V?$basic_string@DU?$char_traits@D@std@@V?$allocator@D@2@@std@@@2@V?$allocator@U?$pair@$$CBV?$basic_string@DU?$char_traits@D@std@@V?$allocator@D@2@@std@@U?$pair@PEAVown_t@zmq@@PEAVpipe_t@2@@2@@std@@@2@$00@std@@@std@@IEBA?AU?$pair@V?$_Tree_const_iterator@V?$_Tree_val@U?$_Tree_simple_types@U?$pair@$$CBV?$basic_string@DU?$char_traits@D@std@@V?$allocator@D@2@@std@@U?$pair@PEAVown_t@zmq@@PEAVpipe_t@2@@2@@std@@@std@@@std@@@std@@V12@@1@AEBV?$basic_string@DU?$char_traits@D@std@@V?$allocator@D@2@@1@@Z 0000000180014d60 f i libzmq:socket_base.obj
 0001:00013f00       ??$_Insert_at@U?$pair@$$CBV?$basic_string@DU?$char_traits@D@std@@V?$allocator@D@2@@std@@PEAVpipe_t@zmq@@@std@@U_Nil@2@@?$_Tree@V?$_Tmap_traits@V?$basic_string@DU?$char_traits@D@std@@V?$allocator@D@2@@std@@PEAVpipe_t@zmq@@U?$less@V?$basic_string@DU?$char_traits@D@std@@V?$allocator@D@2@@std@@@2@V?$allocator@U?$pair@$$CBV?$basic_string@DU?$char_traits@D@std@@V?$allocator@D@2@@std@@PEAVpipe_t@zmq@@@std@@@2@$00@std@@@std@@IEAA?AV?$_Tree_iterator@V?$_Tree_val@U?$_Tree_simple_types@U?$pair@$$CBV?$basic_string@DU?$char_traits@D@std@@V?$allocator@D@2@@std@@PEAVpipe_t@zmq@@@std@@@std@@@std@@@1@_NPEAU?$_Tree_node@U?$pair@$$CBV?$basic_string@DU?$char_traits@D@std@@V?$allocator@D@2@@std@@PEAVpipe_t@zmq@@@std@@PEAX@1@$$QEAU?$pair@$$CBV?$basic_string@DU?$char_traits@D@std@@V?$allocator@D@2@@std@@PEAVpipe_t@zmq@@@1@U_Nil@1@@Z 0000000180014f00 f i libzmq:socket_base.obj
 0001:000141d0       ??$_Insert_at@U?$pair@$$CBV?$basic_string@DU?$char_traits@D@std@@V?$allocator@D@2@@std@@U?$pair@PEAVown_t@zmq@@PEAVpipe_t@2@@2@@std@@U_Nil@2@@?$_Tree@V?$_Tmap_traits@V?$basic_string@DU?$char_traits@D@std@@V?$allocator@D@2@@std@@U?$pair@PEAVown_t@zmq@@PEAVpipe_t@2@@2@U?$less@V?$basic_string@DU?$char_traits@D@std@@V?$allocator@D@2@@std@@@2@V?$allocator@U?$pair@$$CBV?$basic_string@DU?$char_traits@D@std@@V?$allocator@D@2@@std@@U?$pair@PEAVown_t@zmq@@PEAVpipe_t@2@@2@@std@@@2@$00@std@@@std@@IEAA?AV?$_Tree_iterator@V?$_Tree_val@U?$_Tree_simple_types@U?$pair@$$CBV?$basic_string@DU?$char_traits@D@std@@V?$allocator@D@2@@std@@U?$pair@PEAVown_t@zmq@@PEAVpipe_t@2@@2@@std@@@std@@@std@@@1@_NPEAU?$_Tree_node@U?$pair@$$CBV?$basic_string@DU?$char_traits@D@std@@V?$allocator@D@2@@std@@U?$pair@PEAVown_t@zmq@@PEAVpipe_t@2@@2@@std@@PEAX@1@$$QEAU?$pair@$$CBV?$basic_string@DU?$char_traits@D@std@@V?$allocator@D@2@@std@@U?$pair@PEAVown_t@zmq@@PEAVpipe_t@2@@2@@1@U_Nil@1@@Z 00000001800151d0 f i libzmq:socket_base.obj
 0001:000144a0       ??$_Insert_nohint@U?$pair@$$CBV?$basic_string@DU?$char_traits@D@std@@V?$allocator@D@2@@std@@PEAVpipe_t@zmq@@@std@@U_Nil@2@@?$_Tree@V?$_Tmap_traits@V?$basic_string@DU?$char_traits@D@std@@V?$allocator@D@2@@std@@PEAVpipe_t@zmq@@U?$less@V?$basic_string@DU?$char_traits@D@std@@V?$allocator@D@2@@std@@@2@V?$allocator@U?$pair@$$CBV?$basic_string@DU?$char_traits@D@std@@V?$allocator@D@2@@std@@PEAVpipe_t@zmq@@@std@@@2@$00@std@@@std@@IEAA?AU?$pair@V?$_Tree_iterator@V?$_Tree_val@U?$_Tree_simple_types@U?$pair@$$CBV?$basic_string@DU?$char_traits@D@std@@V?$allocator@D@2@@std@@PEAVpipe_t@zmq@@@std@@@std@@@std@@@std@@_N@1@_N$$QEAU?$pair@$$CBV?$basic_string@DU?$char_traits@D@std@@V?$allocator@D@2@@std@@PEAVpipe_t@zmq@@@1@U_Nil@1@@Z 00000001800154a0 f i libzmq:socket_base.obj
 0001:00014610       ??$_Insert_nohint@U?$pair@$$CBV?$basic_string@DU?$char_traits@D@std@@V?$allocator@D@2@@std@@U?$pair@PEAVown_t@zmq@@PEAVpipe_t@2@@2@@std@@U_Nil@2@@?$_Tree@V?$_Tmap_traits@V?$basic_string@DU?$char_traits@D@std@@V?$allocator@D@2@@std@@U?$pair@PEAVown_t@zmq@@PEAVpipe_t@2@@2@U?$less@V?$basic_string@DU?$char_traits@D@std@@V?$allocator@D@2@@std@@@2@V?$allocator@U?$pair@$$CBV?$basic_string@DU?$char_traits@D@std@@V?$allocator@D@2@@std@@U?$pair@PEAVown_t@zmq@@PEAVpipe_t@2@@2@@std@@@2@$00@std@@@std@@IEAA?AU?$pair@V?$_Tree_iterator@V?$_Tree_val@U?$_Tree_simple_types@U?$pair@$$CBV?$basic_string@DU?$char_traits@D@std@@V?$allocator@D@2@@std@@U?$pair@PEAVown_t@zmq@@PEAVpipe_t@2@@2@@std@@@std@@@std@@@std@@_N@1@_N$$QEAU?$pair@$$CBV?$basic_string@DU?$char_traits@D@std@@V?$allocator@D@2@@std@@U?$pair@PEAVown_t@zmq@@PEAVpipe_t@2@@2@@1@U_Nil@1@@Z 0000000180015610 f i libzmq:socket_base.obj
 0001:00014780       ??$construct@U?$pair@$$CBV?$basic_string@DU?$char_traits@D@std@@V?$allocator@D@2@@std@@PEAVpipe_t@zmq@@@std@@U12@@?$_Wrap_alloc@V?$allocator@U?$_Tree_node@U?$pair@$$CBV?$basic_string@DU?$char_traits@D@std@@V?$allocator@D@2@@std@@PEAVpipe_t@zmq@@@std@@PEAX@std@@@std@@@std@@QEAAXPEAU?$pair@$$CBV?$basic_string@DU?$char_traits@D@std@@V?$allocator@D@2@@std@@PEAVpipe_t@zmq@@@1@$$QEAU21@@Z 0000000180015780 f i libzmq:socket_base.obj
 0001:000147f0       ??$construct@U?$pair@$$CBV?$basic_string@DU?$char_traits@D@std@@V?$allocator@D@2@@std@@U?$pair@PEAVown_t@zmq@@PEAVpipe_t@2@@2@@std@@U12@@?$_Wrap_alloc@V?$allocator@U?$_Tree_node@U?$pair@$$CBV?$basic_string@DU?$char_traits@D@std@@V?$allocator@D@2@@std@@U?$pair@PEAVown_t@zmq@@PEAVpipe_t@2@@2@@std@@PEAX@std@@@std@@@std@@QEAAXPEAU?$pair@$$CBV?$basic_string@DU?$char_traits@D@std@@V?$allocator@D@2@@std@@U?$pair@PEAVown_t@zmq@@PEAVpipe_t@2@@2@@1@$$QEAU21@@Z 00000001800157f0 f i libzmq:socket_base.obj
 0001:00014860       ??0socket_base_t@zmq@@IEAA@PEAVctx_t@1@IH_N@Z 0000000180015860 f   libzmq:socket_base.obj
 0001:00014ab0       ??1?$array_item_t@$0A@@zmq@@UEAA@XZ 0000000180015ab0 f i libzmq:socket_base.obj
 0001:00014ac0       ??1?$vector@PEAVsignaler_t@zmq@@V?$allocator@PEAVsignaler_t@zmq@@@std@@@std@@QEAA@XZ 0000000180015ac0 f i libzmq:mailbox_safe.obj
 0001:00014ac0       ??1?$array_t@Vpipe_t@zmq@@$02@zmq@@QEAA@XZ 0000000180015ac0 f i libzmq:socket_base.obj
 0001:00014ac0       ??1?$vector@PEAVpipe_t@zmq@@V?$allocator@PEAVpipe_t@zmq@@@std@@@std@@QEAA@XZ 0000000180015ac0 f i libzmq:radio.obj
 0001:00014ac0       ??1?$array_t@Vsocket_base_t@zmq@@$0A@@zmq@@QEAA@XZ 0000000180015ac0 f i libzmq:ctx.obj
 0001:00014ac0       ??1?$vector@PEAVio_thread_t@zmq@@V?$allocator@PEAVio_thread_t@zmq@@@std@@@std@@QEAA@XZ 0000000180015ac0 f i libzmq:ctx.obj
 0001:00014b00       ??1?$multimap@V?$basic_string@DU?$char_traits@D@std@@V?$allocator@D@2@@std@@PEAVpipe_t@zmq@@U?$less@V?$basic_string@DU?$char_traits@D@std@@V?$allocator@D@2@@std@@@2@V?$allocator@U?$pair@$$CBV?$basic_string@DU?$char_traits@D@std@@V?$allocator@D@2@@std@@PEAVpipe_t@zmq@@@std@@@2@@std@@QEAA@XZ 0000000180015b00 f i libzmq:socket_base.obj
 0001:00014b40       ??1?$multimap@V?$basic_string@DU?$char_traits@D@std@@V?$allocator@D@2@@std@@U?$pair@PEAVown_t@zmq@@PEAVpipe_t@2@@2@U?$less@V?$basic_string@DU?$char_traits@D@std@@V?$allocator@D@2@@std@@@2@V?$allocator@U?$pair@$$CBV?$basic_string@DU?$char_traits@D@std@@V?$allocator@D@2@@std@@U?$pair@PEAVown_t@zmq@@PEAVpipe_t@2@@2@@std@@@2@@std@@QEAA@XZ 0000000180015b40 f i libzmq:socket_base.obj
 0001:00014b80       ??1i_pipe_events@zmq@@UEAA@XZ 0000000180015b80 f i libzmq:socket_base.obj
 0001:00014b90       ??1scoped_optional_lock_t@zmq@@QEAA@XZ 0000000180015b90 f i libzmq:socket_base.obj
 0001:00014ba0       ??1socket_base_t@zmq@@MEAA@XZ 0000000180015ba0 f   libzmq:socket_base.obj
 0001:00014dd0       ??4?$basic_string@DU?$char_traits@D@std@@V?$allocator@D@2@@std@@QEAAAEAV01@$$QEAV01@@Z 0000000180015dd0 f i libzmq:socket_base.obj
 0001:00014e88       ??_Esocket_base_t@zmq@@ODCI@EAAPEAXI@Z 0000000180015e88 f i libzmq:socket_base.obj
 0001:00014e94       ??_Esocket_base_t@zmq@@ODDI@EAAPEAXI@Z 0000000180015e94 f i libzmq:socket_base.obj
 0001:00014ea0       ??_Esocket_base_t@zmq@@ODEA@EAAPEAXI@Z 0000000180015ea0 f i libzmq:socket_base.obj
 0001:00014eb0       ??_E?$array_item_t@$0A@@zmq@@UEAAPEAXI@Z 0000000180015eb0 f i libzmq:socket_base.obj
 0001:00014eb0       ??_G?$array_item_t@$0A@@zmq@@UEAAPEAXI@Z 0000000180015eb0 f i libzmq:socket_base.obj
 0001:00014ee0       ??_Ei_pipe_events@zmq@@UEAAPEAXI@Z 0000000180015ee0 f i libzmq:socket_base.obj
 0001:00014ee0       ??_Gi_pipe_events@zmq@@UEAAPEAXI@Z 0000000180015ee0 f i libzmq:socket_base.obj
 0001:00014f10       ??_Ei_poll_events@zmq@@UEAAPEAXI@Z 0000000180015f10 f i libzmq:socket_base.obj
 0001:00014f10       ??_Gi_poll_events@zmq@@UEAAPEAXI@Z 0000000180015f10 f i libzmq:socket_base.obj
 0001:00014f40       ??_Esocket_base_t@zmq@@MEAAPEAXI@Z 0000000180015f40 f i libzmq:socket_base.obj
 0001:00014f40       ??_Gsocket_base_t@zmq@@MEAAPEAXI@Z 0000000180015f40 f i libzmq:socket_base.obj
 0001:00014f80       ?_Buyheadnode@?$_Tree_comp_alloc@V?$_Tmap_traits@V?$basic_string@DU?$char_traits@D@std@@V?$allocator@D@2@@std@@PEAVpipe_t@zmq@@U?$less@V?$basic_string@DU?$char_traits@D@std@@V?$allocator@D@2@@std@@@2@V?$allocator@U?$pair@$$CBV?$basic_string@DU?$char_traits@D@std@@V?$allocator@D@2@@std@@PEAVpipe_t@zmq@@@std@@@2@$00@std@@@std@@QEAAPEAU?$_Tree_node@U?$pair@$$CBV?$basic_string@DU?$char_traits@D@std@@V?$allocator@D@2@@std@@PEAVpipe_t@zmq@@@std@@PEAX@2@XZ 0000000180015f80 f i libzmq:socket_base.obj
 0001:00014fe0       ?_Buyheadnode@?$_Tree_comp_alloc@V?$_Tmap_traits@V?$basic_string@DU?$char_traits@D@std@@V?$allocator@D@2@@std@@U?$pair@PEAVown_t@zmq@@PEAVpipe_t@2@@2@U?$less@V?$basic_string@DU?$char_traits@D@std@@V?$allocator@D@2@@std@@@2@V?$allocator@U?$pair@$$CBV?$basic_string@DU?$char_traits@D@std@@V?$allocator@D@2@@std@@U?$pair@PEAVown_t@zmq@@PEAVpipe_t@2@@2@@std@@@2@$00@std@@@std@@QEAAPEAU?$_Tree_node@U?$pair@$$CBV?$basic_string@DU?$char_traits@D@std@@V?$allocator@D@2@@std@@U?$pair@PEAVown_t@zmq@@PEAVpipe_t@2@@2@@std@@PEAX@2@XZ 0000000180015fe0 f i libzmq:socket_base.obj
 0001:00015040       ?_Buynode0@?$_Tree_comp_alloc@V?$_Tmap_traits@V?$basic_string@DU?$char_traits@D@std@@V?$allocator@D@2@@std@@PEAVpipe_t@zmq@@U?$less@V?$basic_string@DU?$char_traits@D@std@@V?$allocator@D@2@@std@@@2@V?$allocator@U?$pair@$$CBV?$basic_string@DU?$char_traits@D@std@@V?$allocator@D@2@@std@@PEAVpipe_t@zmq@@@std@@@2@$00@std@@@std@@QEAAPEAU?$_Tree_node@U?$pair@$$CBV?$basic_string@DU?$char_traits@D@std@@V?$allocator@D@2@@std@@PEAVpipe_t@zmq@@@std@@PEAX@2@XZ 0000000180016040 f i libzmq:socket_base.obj
 0001:000150a0       ?_Buynode0@?$_Tree_comp_alloc@V?$_Tmap_traits@V?$basic_string@DU?$char_traits@D@std@@V?$allocator@D@2@@std@@U?$pair@PEAVown_t@zmq@@PEAVpipe_t@2@@2@U?$less@V?$basic_string@DU?$char_traits@D@std@@V?$allocator@D@2@@std@@@2@V?$allocator@U?$pair@$$CBV?$basic_string@DU?$char_traits@D@std@@V?$allocator@D@2@@std@@U?$pair@PEAVown_t@zmq@@PEAVpipe_t@2@@2@@std@@@2@$00@std@@@std@@QEAAPEAU?$_Tree_node@U?$pair@$$CBV?$basic_string@DU?$char_traits@D@std@@V?$allocator@D@2@@std@@U?$pair@PEAVown_t@zmq@@PEAVpipe_t@2@@2@@std@@PEAX@2@XZ 00000001800160a0 f i libzmq:socket_base.obj
 0001:00015100       ?_Reallocate@?$vector@PEAVpipe_t@zmq@@V?$allocator@PEAVpipe_t@zmq@@@std@@@std@@IEAAX_K@Z 0000000180016100 f i libzmq:socket_base.obj
 0001:00015190       ?_Reserve@?$vector@PEAVpipe_t@zmq@@V?$allocator@PEAVpipe_t@zmq@@@std@@@std@@IEAAX_K@Z 0000000180016190 f i libzmq:socket_base.obj
 0001:00015220       ?add_endpoint@socket_base_t@zmq@@AEAAXPEBDPEAVown_t@2@PEAVpipe_t@2@@Z 0000000180016220 f   libzmq:socket_base.obj
 0001:000153a0       ?add_signaler@socket_base_t@zmq@@QEAAHPEAVsignaler_t@2@@Z 00000001800163a0 f   libzmq:socket_base.obj
 0001:00015440       ?attach_pipe@socket_base_t@zmq@@AEAAXPEAVpipe_t@2@_N@Z 0000000180016440 f   libzmq:socket_base.obj
 0001:000154e0       ?bind@socket_base_t@zmq@@QEAAHPEBD@Z 00000001800164e0 f   libzmq:socket_base.obj
 0001:00015e00       ?check_destroy@socket_base_t@zmq@@AEAAXXZ 0000000180016e00 f   libzmq:socket_base.obj
 0001:00015e50       ?check_protocol@socket_base_t@zmq@@AEAAHAEBV?$basic_string@DU?$char_traits@D@std@@V?$allocator@D@2@@std@@@Z 0000000180016e50 f   libzmq:socket_base.obj
 0001:00015fa0       ?check_tag@socket_base_t@zmq@@QEAA_NXZ 0000000180016fa0 f   libzmq:socket_base.obj
 0001:00015fb0       ?close@socket_base_t@zmq@@QEAAHXZ 0000000180016fb0 f   libzmq:socket_base.obj
 0001:00016040       ?compare@?$basic_string@DU?$char_traits@D@std@@V?$allocator@D@2@@std@@QEBAHPEBD@Z 0000000180017040 f i libzmq:socket_base.obj
 0001:000160c0       ?connect@socket_base_t@zmq@@QEAAHPEBD@Z 00000001800170c0 f   libzmq:socket_base.obj
 0001:00017090       ?create@socket_base_t@zmq@@SAPEAV12@HPEAVctx_t@2@IH@Z 0000000180018090 f   libzmq:socket_base.obj
 0001:000175d0       ?deallocate@?$allocator@PEAVsocket_base_t@zmq@@@std@@QEAAXPEAPEAVsocket_base_t@zmq@@_K@Z 00000001800185d0 f i libzmq:ctx.obj
 0001:000175d0       ?deallocate@?$allocator@PEAVio_thread_t@zmq@@@std@@QEAAXPEAPEAVio_thread_t@zmq@@_K@Z 00000001800185d0 f i libzmq:ctx.obj
 0001:000175d0       ?deallocate@?$allocator@PEAVpipe_t@zmq@@@std@@QEAAXPEAPEAVpipe_t@zmq@@_K@Z 00000001800185d0 f i libzmq:socket_base.obj
 0001:000175d0       ?deallocate@?$allocator@PEAVsignaler_t@zmq@@@std@@QEAAXPEAPEAVsignaler_t@zmq@@_K@Z 00000001800185d0 f i libzmq:mailbox_safe.obj
 0001:00017640       ?erase@?$_Tree@V?$_Tmap_traits@V?$basic_string@DU?$char_traits@D@std@@V?$allocator@D@2@@std@@PEAVpipe_t@zmq@@U?$less@V?$basic_string@DU?$char_traits@D@std@@V?$allocator@D@2@@std@@@2@V?$allocator@U?$pair@$$CBV?$basic_string@DU?$char_traits@D@std@@V?$allocator@D@2@@std@@PEAVpipe_t@zmq@@@std@@@2@$00@std@@@std@@QEAA?AV?$_Tree_iterator@V?$_Tree_val@U?$_Tree_simple_types@U?$pair@$$CBV?$basic_string@DU?$char_traits@D@std@@V?$allocator@D@2@@std@@PEAVpipe_t@zmq@@@std@@@std@@@std@@@2@V?$_Tree_const_iterator@V?$_Tree_val@U?$_Tree_simple_types@U?$pair@$$CBV?$basic_string@DU?$char_traits@D@std@@V?$allocator@D@2@@std@@PEAVpipe_t@zmq@@@std@@@std@@@std@@@2@0@Z 0000000180018640 f i libzmq:socket_base.obj
 0001:00017730       ?erase@?$_Tree@V?$_Tmap_traits@V?$basic_string@EU?$char_traits@E@std@@V?$allocator@E@2@@std@@Uoutpipe_t@router_t@zmq@@U?$less@V?$basic_string@EU?$char_traits@E@std@@V?$allocator@E@2@@std@@@2@V?$allocator@U?$pair@$$CBV?$basic_string@EU?$char_traits@E@std@@V?$allocator@E@2@@std@@Uoutpipe_t@router_t@zmq@@@std@@@2@$0A@@std@@@std@@QEAA?AV?$_Tree_iterator@V?$_Tree_val@U?$_Tree_simple_types@U?$pair@$$CBV?$basic_string@EU?$char_traits@E@std@@V?$allocator@E@2@@std@@Uoutpipe_t@router_t@zmq@@@std@@@std@@@std@@@2@V?$_Tree_const_iterator@V?$_Tree_val@U?$_Tree_simple_types@U?$pair@$$CBV?$basic_string@EU?$char_traits@E@std@@V?$allocator@E@2@@std@@Uoutpipe_t@router_t@zmq@@@std@@@std@@@std@@@2@@Z 0000000180018730 f i libzmq:router.obj
 0001:00017730       ?erase@?$_Tree@V?$_Tmap_traits@V?$basic_string@EU?$char_traits@E@std@@V?$allocator@E@2@@std@@Uoutpipe_t@stream_t@zmq@@U?$less@V?$basic_string@EU?$char_traits@E@std@@V?$allocator@E@2@@std@@@2@V?$allocator@U?$pair@$$CBV?$basic_string@EU?$char_traits@E@std@@V?$allocator@E@2@@std@@Uoutpipe_t@stream_t@zmq@@@std@@@2@$0A@@std@@@std@@QEAA?AV?$_Tree_iterator@V?$_Tree_val@U?$_Tree_simple_types@U?$pair@$$CBV?$basic_string@EU?$char_traits@E@std@@V?$allocator@E@2@@std@@Uoutpipe_t@stream_t@zmq@@@std@@@std@@@std@@@2@V?$_Tree_const_iterator@V?$_Tree_val@U?$_Tree_simple_types@U?$pair@$$CBV?$basic_string@EU?$char_traits@E@std@@V?$allocator@E@2@@std@@Uoutpipe_t@stream_t@zmq@@@std@@@std@@@std@@@2@@Z 0000000180018730 f i libzmq:stream.obj
 0001:00017730       ?erase@?$_Tree@V?$_Tset_traits@V?$basic_string@DU?$char_traits@D@std@@V?$allocator@D@2@@std@@U?$less@V?$basic_string@DU?$char_traits@D@std@@V?$allocator@D@2@@std@@@2@V?$allocator@V?$basic_string@DU?$char_traits@D@std@@V?$allocator@D@2@@std@@@2@$0A@@std@@@std@@QEAA?AV?$_Tree_const_iterator@V?$_Tree_val@U?$_Tree_simple_types@V?$basic_string@DU?$char_traits@D@std@@V?$allocator@D@2@@std@@@std@@@std@@@2@V32@@Z 0000000180018730 f i libzmq:dish.obj
 0001:00017730       ?erase@?$_Tree@V?$_Tmap_traits@V?$basic_string@DU?$char_traits@D@std@@V?$allocator@D@2@@std@@PEAVpipe_t@zmq@@U?$less@V?$basic_string@DU?$char_traits@D@std@@V?$allocator@D@2@@std@@@2@V?$allocator@U?$pair@$$CBV?$basic_string@DU?$char_traits@D@std@@V?$allocator@D@2@@std@@PEAVpipe_t@zmq@@@std@@@2@$00@std@@@std@@QEAA?AV?$_Tree_iterator@V?$_Tree_val@U?$_Tree_simple_types@U?$pair@$$CBV?$basic_string@DU?$char_traits@D@std@@V?$allocator@D@2@@std@@PEAVpipe_t@zmq@@@std@@@std@@@std@@@2@V?$_Tree_const_iterator@V?$_Tree_val@U?$_Tree_simple_types@U?$pair@$$CBV?$basic_string@DU?$char_traits@D@std@@V?$allocator@D@2@@std@@PEAVpipe_t@zmq@@@std@@@std@@@std@@@2@@Z 0000000180018730 f i libzmq:socket_base.obj
 0001:00017730       ?erase@?$_Tree@V?$_Tmap_traits@V?$basic_string@DU?$char_traits@D@std@@V?$allocator@D@2@@std@@U?$pair@PEAVown_t@zmq@@PEAVpipe_t@2@@2@U?$less@V?$basic_string@DU?$char_traits@D@std@@V?$allocator@D@2@@std@@@2@V?$allocator@U?$pair@$$CBV?$basic_string@DU?$char_traits@D@std@@V?$allocator@D@2@@std@@U?$pair@PEAVown_t@zmq@@PEAVpipe_t@2@@2@@std@@@2@$00@std@@@std@@QEAA?AV?$_Tree_iterator@V?$_Tree_val@U?$_Tree_simple_types@U?$pair@$$CBV?$basic_string@DU?$char_traits@D@std@@V?$allocator@D@2@@std@@U?$pair@PEAVown_t@zmq@@PEAVpipe_t@2@@2@@std@@@std@@@std@@@2@V?$_Tree_const_iterator@V?$_Tree_val@U?$_Tree_simple_types@U?$pair@$$CBV?$basic_string@DU?$char_traits@D@std@@V?$allocator@D@2@@std@@U?$pair@PEAVown_t@zmq@@PEAVpipe_t@2@@2@@std@@@std@@@std@@@2@@Z 0000000180018730 f i libzmq:socket_base.obj
 0001:00017b80       ?erase@?$_Tree@V?$_Tmap_traits@V?$basic_string@DU?$char_traits@D@std@@V?$allocator@D@2@@std@@U?$pair@PEAVown_t@zmq@@PEAVpipe_t@2@@2@U?$less@V?$basic_string@DU?$char_traits@D@std@@V?$allocator@D@2@@std@@@2@V?$allocator@U?$pair@$$CBV?$basic_string@DU?$char_traits@D@std@@V?$allocator@D@2@@std@@U?$pair@PEAVown_t@zmq@@PEAVpipe_t@2@@2@@std@@@2@$00@std@@@std@@QEAA?AV?$_Tree_iterator@V?$_Tree_val@U?$_Tree_simple_types@U?$pair@$$CBV?$basic_string@DU?$char_traits@D@std@@V?$allocator@D@2@@std@@U?$pair@PEAVown_t@zmq@@PEAVpipe_t@2@@2@@std@@@std@@@std@@@2@V?$_Tree_const_iterator@V?$_Tree_val@U?$_Tree_simple_types@U?$pair@$$CBV?$basic_string@DU?$char_traits@D@std@@V?$allocator@D@2@@std@@U?$pair@PEAVown_t@zmq@@PEAVpipe_t@2@@2@@std@@@std@@@std@@@2@0@Z 0000000180018b80 f i libzmq:socket_base.obj
 0001:00017c70       ?event@socket_base_t@zmq@@AEAAXAEBV?$basic_string@DU?$char_traits@D@std@@V?$allocator@D@2@@std@@_JH@Z 0000000180018c70 f   libzmq:socket_base.obj
 0001:00017cf0       ?event_accept_failed@socket_base_t@zmq@@QEAAXAEBV?$basic_string@DU?$char_traits@D@std@@V?$allocator@D@2@@std@@H@Z 0000000180018cf0 f   libzmq:socket_base.obj
 0001:00017d00       ?event_accepted@socket_base_t@zmq@@QEAAXAEBV?$basic_string@DU?$char_traits@D@std@@V?$allocator@D@2@@std@@_K@Z 0000000180018d00 f   libzmq:socket_base.obj
 0001:00017d10       ?event_bind_failed@socket_base_t@zmq@@QEAAXAEBV?$basic_string@DU?$char_traits@D@std@@V?$allocator@D@2@@std@@H@Z 0000000180018d10 f   libzmq:socket_base.obj
 0001:00017d20       ?event_closed@socket_base_t@zmq@@QEAAXAEBV?$basic_string@DU?$char_traits@D@std@@V?$allocator@D@2@@std@@_K@Z 0000000180018d20 f   libzmq:socket_base.obj
 0001:00017d30       ?event_connect_delayed@socket_base_t@zmq@@QEAAXAEBV?$basic_string@DU?$char_traits@D@std@@V?$allocator@D@2@@std@@H@Z 0000000180018d30 f   libzmq:socket_base.obj
 0001:00017d40       ?event_connect_retried@socket_base_t@zmq@@QEAAXAEBV?$basic_string@DU?$char_traits@D@std@@V?$allocator@D@2@@std@@H@Z 0000000180018d40 f   libzmq:socket_base.obj
 0001:00017d50       ?event_connected@socket_base_t@zmq@@QEAAXAEBV?$basic_string@DU?$char_traits@D@std@@V?$allocator@D@2@@std@@_K@Z 0000000180018d50 f   libzmq:socket_base.obj
 0001:00017d60       ?event_disconnected@socket_base_t@zmq@@QEAAXAEBV?$basic_string@DU?$char_traits@D@std@@V?$allocator@D@2@@std@@_K@Z 0000000180018d60 f   libzmq:socket_base.obj
 0001:00017d70       ?event_listening@socket_base_t@zmq@@QEAAXAEBV?$basic_string@DU?$char_traits@D@std@@V?$allocator@D@2@@std@@_K@Z 0000000180018d70 f   libzmq:socket_base.obj
 0001:00017d80       ?extract_flags@socket_base_t@zmq@@AEAAXPEAVmsg_t@2@@Z 0000000180018d80 f   libzmq:socket_base.obj
 0001:00017e10       ?find@?$basic_string@DU?$char_traits@D@std@@V?$allocator@D@2@@std@@QEBA_KPEBD_K1@Z 0000000180018e10 f i libzmq:socket_base.obj
 0001:00017f00       ?get_credential@socket_base_t@zmq@@MEBA?AV?$basic_string@EU?$char_traits@E@std@@V?$allocator@E@2@@std@@XZ 0000000180018f00 f   libzmq:socket_base.obj
 0001:00017f20       ?get_mailbox@socket_base_t@zmq@@QEAAPEAVi_mailbox@2@XZ 0000000180018f20 f   libzmq:socket_base.obj
 0001:00017f30       ?getsockopt@socket_base_t@zmq@@QEAAHHPEAXPEA_K@Z 0000000180018f30 f   libzmq:socket_base.obj
 0001:000181e0       ?has_in@socket_base_t@zmq@@QEAA_NXZ 00000001800191e0 f   libzmq:socket_base.obj
 0001:000181f0       ?has_out@socket_base_t@zmq@@QEAA_NXZ 00000001800191f0 f   libzmq:socket_base.obj
 0001:00018200       ?hiccuped@socket_base_t@zmq@@UEAAXPEAVpipe_t@2@@Z 0000000180019200 f   libzmq:socket_base.obj
 0001:00018230       ?in_event@socket_base_t@zmq@@UEAAXXZ 0000000180019230 f   libzmq:socket_base.obj
 0001:000182c0       ?monitor@socket_base_t@zmq@@QEAAHPEBDH@Z 00000001800192c0 f   libzmq:socket_base.obj
 0001:00018560       ?monitor_event@socket_base_t@zmq@@AEAAXH_JAEBV?$basic_string@DU?$char_traits@D@std@@V?$allocator@D@2@@std@@@Z 0000000180019560 f   libzmq:socket_base.obj
 0001:00018630       ?out_event@socket_base_t@zmq@@UEAAXXZ 0000000180019630 f   libzmq:socket_base.obj
 0001:00018690       ?parse_uri@socket_base_t@zmq@@AEAAHPEBDAEAV?$basic_string@DU?$char_traits@D@std@@V?$allocator@D@2@@std@@1@Z 0000000180019690 f   libzmq:socket_base.obj
 0001:00018900       ?pipe_terminated@socket_base_t@zmq@@UEAAXPEAVpipe_t@2@@Z 0000000180019900 f   libzmq:socket_base.obj
 0001:00018a20       ?process_bind@socket_base_t@zmq@@EEAAXPEAVpipe_t@2@@Z 0000000180019a20 f   libzmq:socket_base.obj
 0001:00018a30       ?process_commands@socket_base_t@zmq@@AEAAHH_N@Z 0000000180019a30 f   libzmq:socket_base.obj
 0001:00018b70       ?process_destroy@socket_base_t@zmq@@MEAAXXZ 0000000180019b70 f   libzmq:socket_base.obj
 0001:00018b80       ?process_stop@socket_base_t@zmq@@EEAAXXZ 0000000180019b80 f   libzmq:socket_base.obj
 0001:00018be0       ?process_term@socket_base_t@zmq@@EEAAXH@Z 0000000180019be0 f   libzmq:socket_base.obj
 0001:00018c80       ?push_back@?$vector@PEAVpipe_t@zmq@@V?$allocator@PEAVpipe_t@zmq@@@std@@@std@@QEAAXAEBQEAVpipe_t@zmq@@@Z 0000000180019c80 f i libzmq:socket_base.obj
 0001:00018d10       ?read_activated@socket_base_t@zmq@@UEAAXPEAVpipe_t@2@@Z 0000000180019d10 f   libzmq:socket_base.obj
 0001:00018d30       ?recv@socket_base_t@zmq@@QEAAHPEAVmsg_t@2@H@Z 0000000180019d30 f   libzmq:socket_base.obj
 0001:00018f30       ?remove_signaler@socket_base_t@zmq@@QEAAHPEAVsignaler_t@2@@Z 0000000180019f30 f   libzmq:socket_base.obj
 0001:00018fd0       ?send@socket_base_t@zmq@@QEAAHPEAVmsg_t@2@H@Z 0000000180019fd0 f   libzmq:socket_base.obj
 0001:00019170       ?setsockopt@socket_base_t@zmq@@QEAAHHPEBX_K@Z 000000018001a170 f   libzmq:socket_base.obj
 0001:00019260       ?start_reaping@socket_base_t@zmq@@QEAAXPEAVselect_t@2@@Z 000000018001a260 f   libzmq:socket_base.obj
 0001:00019360       ?stop_monitor@socket_base_t@zmq@@AEAAX_N@Z 000000018001a360 f   libzmq:socket_base.obj
 0001:00019410       ?substr@?$basic_string@DU?$char_traits@D@std@@V?$allocator@D@2@@std@@QEBA?AV12@_K0@Z 000000018001a410 f i libzmq:socket_base.obj
 0001:00019450       ?term_endpoint@socket_base_t@zmq@@QEAAHPEBD@Z 000000018001a450 f   libzmq:socket_base.obj
 0001:00019a80       ?timer_event@socket_base_t@zmq@@UEAAXH@Z 000000018001aa80 f   libzmq:socket_base.obj
 0001:00019ae0       ?update_pipe_options@socket_base_t@zmq@@AEAAXH@Z 000000018001aae0 f   libzmq:socket_base.obj
 0001:00019b50       ?write_activated@socket_base_t@zmq@@UEAAXPEAVpipe_t@2@@Z 000000018001ab50 f   libzmq:socket_base.obj
 0001:00019b70       ?xhas_in@radio_t@zmq@@UEAA_NXZ 000000018001ab70 f   libzmq:radio.obj
 0001:00019b70       ?xhas_in@pub_t@zmq@@UEAA_NXZ 000000018001ab70 f   libzmq:pub.obj
 0001:00019b70       ?xhas_out@socket_base_t@zmq@@MEAA_NXZ 000000018001ab70 f   libzmq:socket_base.obj
 0001:00019b70       ?unwrite@?$ypipe_conflate_t@Vmsg_t@zmq@@@zmq@@UEAA_NPEAVmsg_t@2@@Z 000000018001ab70 f   libzmq:pipe.obj
 0001:00019b70       ?xhas_out@sub_t@zmq@@MEAA_NXZ 000000018001ab70 f   libzmq:sub.obj
 0001:00019b70       ?xhas_in@socket_base_t@zmq@@MEAA_NXZ 000000018001ab70 f   libzmq:socket_base.obj
 0001:00019b80       ?xhiccuped@socket_base_t@zmq@@MEAAXPEAVpipe_t@2@@Z 000000018001ab80 f   libzmq:socket_base.obj
 0001:00019be0       ?xrecv@pub_t@zmq@@UEAAHPEAVmsg_t@2@@Z 000000018001abe0 f   libzmq:pub.obj
 0001:00019be0       ?xleave@socket_base_t@zmq@@MEAAHPEBD@Z 000000018001abe0 f   libzmq:socket_base.obj
 0001:00019be0       ?xrecv@radio_t@zmq@@UEAAHPEAVmsg_t@2@@Z 000000018001abe0 f   libzmq:radio.obj
 0001:00019be0       ?xrecv@socket_base_t@zmq@@MEAAHPEAVmsg_t@2@@Z 000000018001abe0 f   libzmq:socket_base.obj
 0001:00019be0       ?xsend@dish_t@zmq@@MEAAHPEAVmsg_t@2@@Z 000000018001abe0 f   libzmq:dish.obj
 0001:00019be0       ?xsend@socket_base_t@zmq@@MEAAHPEAVmsg_t@2@@Z 000000018001abe0 f   libzmq:socket_base.obj
 0001:00019be0       ?xsend@sub_t@zmq@@MEAAHPEAVmsg_t@2@@Z 000000018001abe0 f   libzmq:sub.obj
 0001:00019be0       ?xjoin@socket_base_t@zmq@@MEAAHPEBD@Z 000000018001abe0 f   libzmq:socket_base.obj
 0001:00019be0       zmq_curve_keypair          000000018001abe0 f   libzmq:zmq_utils.obj
 0001:00019c00       ?xread_activated@socket_base_t@zmq@@MEAAXPEAVpipe_t@2@@Z 000000018001ac00 f   libzmq:socket_base.obj
 0001:00019c60       ?xsetsockopt@socket_base_t@zmq@@MEAAHHPEBX_K@Z 000000018001ac60 f   libzmq:socket_base.obj
 0001:00019c80       ?xwrite_activated@socket_base_t@zmq@@MEAAXPEAVpipe_t@2@@Z 000000018001ac80 f   libzmq:socket_base.obj
 0001:00019ce0       ??0socket_poller_t@zmq@@QEAA@XZ 000000018001ace0 f   libzmq:socket_poller.obj
 0001:00019d30       ??1socket_poller_t@zmq@@QEAA@XZ 000000018001ad30 f   libzmq:socket_poller.obj
 0001:00019e40       ?_Reallocate@?$vector@Uitem_t@socket_poller_t@zmq@@V?$allocator@Uitem_t@socket_poller_t@zmq@@@std@@@std@@IEAAX_K@Z 000000018001ae40 f i libzmq:socket_poller.obj
 0001:00019ed0       ?_Reserve@?$vector@Uitem_t@socket_poller_t@zmq@@V?$allocator@Uitem_t@socket_poller_t@zmq@@@std@@@std@@IEAAX_K@Z 000000018001aed0 f i libzmq:socket_poller.obj
 0001:00019f60       ?add@socket_poller_t@zmq@@QEAAHPEAVsocket_base_t@2@PEAXF@Z 000000018001af60 f   libzmq:socket_poller.obj
 0001:0001a0c0       ?add_fd@socket_poller_t@zmq@@QEAAH_KPEAXF@Z 000000018001b0c0 f   libzmq:socket_poller.obj
 0001:0001a1e0       ?allocate@?$allocator@Uitem_t@socket_poller_t@zmq@@@std@@QEAAPEAUitem_t@socket_poller_t@zmq@@_K@Z 000000018001b1e0 f i libzmq:socket_poller.obj
 0001:0001a260       ?check_tag@socket_poller_t@zmq@@QEAA_NXZ 000000018001b260 f   libzmq:socket_poller.obj
 0001:0001a270       ?deallocate@?$_Wrap_alloc@V?$allocator@Uitem_t@socket_poller_t@zmq@@@std@@@std@@QEAAXPEAUitem_t@socket_poller_t@zmq@@_K@Z 000000018001b270 f i libzmq:socket_poller.obj
 0001:0001a2e0       ?modify@socket_poller_t@zmq@@QEAAHPEAVsocket_base_t@2@F@Z 000000018001b2e0 f   libzmq:socket_poller.obj
 0001:0001a330       ?modify_fd@socket_poller_t@zmq@@QEAAH_KF@Z 000000018001b330 f   libzmq:socket_poller.obj
 0001:0001a380       ?rebuild@socket_poller_t@zmq@@AEAAHXZ 000000018001b380 f   libzmq:socket_poller.obj
 0001:0001a690       ?wait@socket_poller_t@zmq@@QEAAHPEAUevent_t@12@HJ@Z 000000018001b690 f   libzmq:socket_poller.obj
 0001:0001abc0       ??0clock_t@zmq@@QEAA@XZ    000000018001bbc0 f   libzmq:clock.obj
 0001:0001abf0       ?compatible_get_tick_count64@@YA_KXZ 000000018001bbf0 f   libzmq:clock.obj
 0001:0001ac50       ?init_compatible_get_tick_count64@@YAP6A_KXZXZ 000000018001bc50 f   libzmq:clock.obj
 0001:0001acb0       ?now_ms@clock_t@zmq@@QEAA_KXZ 000000018001bcb0 f   libzmq:clock.obj
 0001:0001ad10       ?rdtsc@clock_t@zmq@@SA_KXZ 000000018001bd10 f   libzmq:clock.obj
 0001:0001ad20       ?start@thread_t@zmq@@QEAAXP6AXPEAX@Z0@Z 000000018001bd20 f   libzmq:thread.obj
 0001:0001ade0       ?stop@thread_t@zmq@@QEAAXXZ 000000018001bde0 f   libzmq:thread.obj
 0001:0001af10       ??$?6U?$char_traits@D@std@@@std@@YAAEAV?$basic_ostream@DU?$char_traits@D@std@@@0@AEAV10@PEBD@Z 000000018001bf10 f i libzmq:tcp_address.obj
 0001:0001b160       ??$_Immortalize@V_Iostream_error_category@std@@@std@@YAAEAV_Iostream_error_category@0@XZ 000000018001c160 f i libzmq:tcp_address.obj
 0001:0001b1e0       ??$use_facet@V?$ctype@D@std@@@std@@YAAEBV?$ctype@D@0@AEBVlocale@0@@Z 000000018001c1e0 f i libzmq:tcp_address.obj
 0001:0001b320       ??$use_facet@V?$num_put@DV?$ostreambuf_iterator@DU?$char_traits@D@std@@@std@@@std@@@std@@YAAEBV?$num_put@DV?$ostreambuf_iterator@DU?$char_traits@D@std@@@std@@@0@AEBVlocale@0@@Z 000000018001c320 f i libzmq:tcp_address.obj
 0001:0001b460       ??$use_facet@V?$numpunct@D@std@@@std@@YAAEBV?$numpunct@D@0@AEBVlocale@0@@Z 000000018001c460 f i libzmq:tcp_address.obj
 0001:0001b5a0       ??0?$basic_streambuf@DU?$char_traits@D@std@@@std@@IEAA@XZ 000000018001c5a0 f i libzmq:tcp_address.obj
 0001:0001b660       ??0_Locinfo@std@@QEAA@PEBD@Z 000000018001c660 f i libzmq:tcp_address.obj
 0001:0001b730       ??0_System_error@std@@IEAA@Verror_code@1@AEBV?$basic_string@DU?$char_traits@D@std@@V?$allocator@D@2@@1@@Z 000000018001c730 f i libzmq:tcp_address.obj
 0001:0001b870       ??0_System_error@std@@QEAA@AEBV01@@Z 000000018001c870 f i libzmq:tcp_address.obj
 0001:0001b8c0       ??0bad_cast@std@@QEAA@AEBV01@@Z 000000018001c8c0 f i libzmq:tcp_address.obj
 0001:0001b900       ??0exception@std@@QEAA@AEBV01@@Z 000000018001c900 f i libzmq:tcp_address.obj
 0001:0001b940       ??0failure@ios_base@std@@QEAA@AEBV012@@Z 000000018001c940 f i libzmq:tcp_address.obj
 0001:0001b9a0       ??0runtime_error@std@@QEAA@AEBV01@@Z 000000018001c9a0 f i libzmq:tcp_address.obj
 0001:0001b9e0       ??0sentry@?$basic_ostream@DU?$char_traits@D@std@@@std@@QEAA@AEAV12@@Z 000000018001c9e0 f i libzmq:tcp_address.obj
 0001:0001ba60       ??0system_error@std@@QEAA@AEBV01@@Z 000000018001ca60 f i libzmq:tcp_address.obj
 0001:0001bac0       ??0tcp_address_mask_t@zmq@@QEAA@XZ 000000018001cac0 f   libzmq:tcp_address.obj
 0001:0001baf0       ??0tcp_address_t@zmq@@QEAA@PEBUsockaddr@@H@Z 000000018001caf0 f   libzmq:tcp_address.obj
 0001:0001bbf0       ??0tcp_address_t@zmq@@QEAA@XZ 000000018001cbf0 f   libzmq:tcp_address.obj
 0001:0001bc20       ??1?$_Yarn@_W@std@@QEAA@XZ 000000018001cc20 f i libzmq:tcp_address.obj
 0001:0001bc20       ??1?$_Yarn@D@std@@QEAA@XZ  000000018001cc20 f i libzmq:tcp_address.obj
 0001:0001bc50       ??1?$basic_ios@DU?$char_traits@D@std@@@std@@UEAA@XZ 000000018001cc50 f i libzmq:tcp_address.obj
 0001:0001bc80       ??1?$basic_iostream@DU?$char_traits@D@std@@@std@@UEAA@XZ 000000018001cc80 f i libzmq:tcp_address.obj
 0001:0001bd00       ??1?$basic_istream@DU?$char_traits@D@std@@@std@@UEAA@XZ 000000018001cd00 f i libzmq:tcp_address.obj
 0001:0001bd30       ??1?$basic_ostream@DU?$char_traits@D@std@@@std@@UEAA@XZ 000000018001cd30 f i libzmq:tcp_address.obj
 0001:0001bd60       ??1?$basic_streambuf@DU?$char_traits@D@std@@@std@@UEAA@XZ 000000018001cd60 f i libzmq:tcp_address.obj
 0001:0001bdc0       ??1?$basic_stringbuf@DU?$char_traits@D@std@@V?$allocator@D@2@@std@@UEAA@XZ 000000018001cdc0 f i libzmq:tcp_address.obj
 0001:0001be40       ??1?$basic_stringstream@DU?$char_traits@D@std@@V?$allocator@D@2@@std@@UEAA@XZ 000000018001ce40 f i libzmq:tcp_address.obj
 0001:0001bf20       ??1_Locinfo@std@@QEAA@XZ   000000018001cf20 f i libzmq:tcp_address.obj
 0001:0001bfd0       ??1_Sentry_base@?$basic_ostream@DU?$char_traits@D@std@@@std@@QEAA@XZ 000000018001cfd0 f i libzmq:tcp_address.obj
 0001:0001c000       ??1facet@locale@std@@MEAA@XZ 000000018001d000 f i libzmq:tcp_address.obj
 0001:0001c010       ??1locale@std@@QEAA@XZ     000000018001d010 f i libzmq:tcp_address.obj
 0001:0001c050       ??1sentry@?$basic_ostream@DU?$char_traits@D@std@@@std@@QEAA@XZ 000000018001d050 f i libzmq:tcp_address.obj
 0001:0001c0a0       ??1tcp_address_t@zmq@@UEAA@XZ 000000018001d0a0 f   libzmq:tcp_address.obj
 0001:0001c0b0       ??6?$basic_ostream@DU?$char_traits@D@std@@@std@@QEAAAEAV01@G@Z 000000018001d0b0 f i libzmq:tcp_address.obj
 0001:0001c250       ??6?$basic_ostream@DU?$char_traits@D@std@@@std@@QEAAAEAV01@H@Z 000000018001d250 f i libzmq:tcp_address.obj
 0001:0001c3e0       ??_D?$basic_iostream@DU?$char_traits@D@std@@@std@@QEAAXXZ 000000018001d3e0 f i libzmq:tcp_address.obj
 0001:0001c480       ??_D?$basic_stringstream@DU?$char_traits@D@std@@V?$allocator@D@2@@std@@QEAAXXZ 000000018001d480 f i libzmq:tcp_address.obj
 0001:0001c4b8       ??_E?$basic_iostream@DU?$char_traits@D@std@@@std@@$4PPPPPPPM@A@EAAPEAXI@Z 000000018001d4b8 f i libzmq:tcp_address.obj
 0001:0001c4c4       ??_E?$basic_istream@DU?$char_traits@D@std@@@std@@$4PPPPPPPM@A@EAAPEAXI@Z 000000018001d4c4 f i libzmq:tcp_address.obj
 0001:0001c4d0       ??_E?$basic_ostream@DU?$char_traits@D@std@@@std@@$4PPPPPPPM@A@EAAPEAXI@Z 000000018001d4d0 f i libzmq:tcp_address.obj
 0001:0001c4dc       ??_E?$basic_stringstream@DU?$char_traits@D@std@@V?$allocator@D@2@@std@@$4PPPPPPPM@A@EAAPEAXI@Z 000000018001d4dc f i libzmq:tcp_address.obj
 0001:0001c4f0       ??_G?$basic_iostream@DU?$char_traits@D@std@@@std@@UEAAPEAXI@Z 000000018001d4f0 f i libzmq:tcp_address.obj
 0001:0001c4f0       ??_E?$basic_iostream@DU?$char_traits@D@std@@@std@@UEAAPEAXI@Z 000000018001d4f0 f i libzmq:tcp_address.obj
 0001:0001c530       ??_G?$basic_istream@DU?$char_traits@D@std@@@std@@UEAAPEAXI@Z 000000018001d530 f i libzmq:tcp_address.obj
 0001:0001c530       ??_E?$basic_istream@DU?$char_traits@D@std@@@std@@UEAAPEAXI@Z 000000018001d530 f i libzmq:tcp_address.obj
 0001:0001c5a0       ??_E?$basic_ostream@DU?$char_traits@D@std@@@std@@UEAAPEAXI@Z 000000018001d5a0 f i libzmq:tcp_address.obj
 0001:0001c5a0       ??_G?$basic_ostream@DU?$char_traits@D@std@@@std@@UEAAPEAXI@Z 000000018001d5a0 f i libzmq:tcp_address.obj
 0001:0001c610       ??_G?$basic_streambuf@DU?$char_traits@D@std@@@std@@UEAAPEAXI@Z 000000018001d610 f i libzmq:tcp_address.obj
 0001:0001c610       ??_E?$basic_streambuf@DU?$char_traits@D@std@@@std@@UEAAPEAXI@Z 000000018001d610 f i libzmq:tcp_address.obj
 0001:0001c6a0       ??_G?$basic_stringbuf@DU?$char_traits@D@std@@V?$allocator@D@2@@std@@UEAAPEAXI@Z 000000018001d6a0 f i libzmq:tcp_address.obj
 0001:0001c6a0       ??_E?$basic_stringbuf@DU?$char_traits@D@std@@V?$allocator@D@2@@std@@UEAAPEAXI@Z 000000018001d6a0 f i libzmq:tcp_address.obj
 0001:0001c6e0       ??_E?$basic_stringstream@DU?$char_traits@D@std@@V?$allocator@D@2@@std@@UEAAPEAXI@Z 000000018001d6e0 f i libzmq:tcp_address.obj
 0001:0001c6e0       ??_G?$basic_stringstream@DU?$char_traits@D@std@@V?$allocator@D@2@@std@@UEAAPEAXI@Z 000000018001d6e0 f i libzmq:tcp_address.obj
 0001:0001c740       ??_E?$ctype@D@std@@MEAAPEAXI@Z 000000018001d740 f i libzmq:tcp_address.obj
 0001:0001c740       ??_G?$ctype@D@std@@MEAAPEAXI@Z 000000018001d740 f i libzmq:tcp_address.obj
 0001:0001c7b0       ??_G?$num_put@DV?$ostreambuf_iterator@DU?$char_traits@D@std@@@std@@@std@@MEAAPEAXI@Z 000000018001d7b0 f i libzmq:tcp_address.obj
 0001:0001c7b0       ??_E?$num_put@DV?$ostreambuf_iterator@DU?$char_traits@D@std@@@std@@@std@@MEAAPEAXI@Z 000000018001d7b0 f i libzmq:tcp_address.obj
 0001:0001c7e0       ??_G?$numpunct@D@std@@MEAAPEAXI@Z 000000018001d7e0 f i libzmq:tcp_address.obj
 0001:0001c7e0       ??_E?$numpunct@D@std@@MEAAPEAXI@Z 000000018001d7e0 f i libzmq:tcp_address.obj
 0001:0001c840       ??_G_Facet_base@std@@UEAAPEAXI@Z 000000018001d840 f i libzmq:tcp_address.obj
 0001:0001c840       ??_E_Facet_base@std@@UEAAPEAXI@Z 000000018001d840 f i libzmq:tcp_address.obj
 0001:0001c870       ??_Eerror_category@std@@UEAAPEAXI@Z 000000018001d870 f i libzmq:tcp_address.obj
 0001:0001c870       ??_E_Iostream_error_category@std@@UEAAPEAXI@Z 000000018001d870 f i libzmq:tcp_address.obj
 0001:0001c870       ??_G_Iostream_error_category@std@@UEAAPEAXI@Z 000000018001d870 f i libzmq:tcp_address.obj
 0001:0001c870       ??_Gerror_category@std@@UEAAPEAXI@Z 000000018001d870 f i libzmq:tcp_address.obj
 0001:0001c8a0       ??_Gsystem_error@std@@UEAAPEAXI@Z 000000018001d8a0 f i libzmq:tcp_address.obj
 0001:0001c8a0       ??_Esystem_error@std@@UEAAPEAXI@Z 000000018001d8a0 f i libzmq:tcp_address.obj
 0001:0001c8a0       ??_Gfailure@ios_base@std@@UEAAPEAXI@Z 000000018001d8a0 f i libzmq:tcp_address.obj
 0001:0001c8a0       ??_E_System_error@std@@UEAAPEAXI@Z 000000018001d8a0 f i libzmq:tcp_address.obj
 0001:0001c8a0       ??_Efailure@ios_base@std@@UEAAPEAXI@Z 000000018001d8a0 f i libzmq:tcp_address.obj
 0001:0001c8a0       ??_G_System_error@std@@UEAAPEAXI@Z 000000018001d8a0 f i libzmq:tcp_address.obj
 0001:0001c8f0       ??_Gios_base@std@@UEAAPEAXI@Z 000000018001d8f0 f i libzmq:tcp_address.obj
 0001:0001c8f0       ??_Eios_base@std@@UEAAPEAXI@Z 000000018001d8f0 f i libzmq:tcp_address.obj
 0001:0001c940       ?_Decref@facet@locale@std@@UEAAPEAV_Facet_base@3@XZ 000000018001d940 f i libzmq:tcp_address.obj
 0001:0001c950       ?_Fput@?$num_put@DV?$ostreambuf_iterator@DU?$char_traits@D@std@@@std@@@std@@AEBA?AV?$ostreambuf_iterator@DU?$char_traits@D@std@@@2@V32@AEAVios_base@2@DPEBD_K@Z 000000018001d950 f i libzmq:tcp_address.obj
 0001:0001d100       ?_Getcat@?$ctype@D@std@@SA_KPEAPEBVfacet@locale@2@PEBV42@@Z 000000018001e100 f i libzmq:tcp_address.obj
 0001:0001d1f0       ?_Getcat@?$num_put@DV?$ostreambuf_iterator@DU?$char_traits@D@std@@@std@@@std@@SA_KPEAPEBVfacet@locale@2@PEBV42@@Z 000000018001e1f0 f i libzmq:tcp_address.obj
 0001:0001d2c0       ?_Getcat@?$numpunct@D@std@@SA_KPEAPEBVfacet@locale@2@PEBV42@@Z 000000018001e2c0 f i libzmq:tcp_address.obj
 0001:0001d3a0       ?_Gnavail@?$basic_streambuf@DU?$char_traits@D@std@@@std@@IEBA_JXZ 000000018001e3a0 f i libzmq:tcp_address.obj
 0001:0001d3c0       ?_Incref@facet@locale@std@@UEAAXXZ 000000018001e3c0 f i libzmq:tcp_address.obj
 0001:0001d3d0       ?_Init@?$numpunct@D@std@@IEAAXAEBV_Locinfo@2@_N@Z 000000018001e3d0 f i libzmq:tcp_address.obj
 0001:0001d540       ?_Init@ios_base@std@@IEAAXXZ 000000018001e540 f i libzmq:tcp_address.obj
 0001:0001d5d0       ?_Iput@?$num_put@DV?$ostreambuf_iterator@DU?$char_traits@D@std@@@std@@@std@@AEBA?AV?$ostreambuf_iterator@DU?$char_traits@D@std@@@2@V32@AEAVios_base@2@DPEAD_K@Z 000000018001e5d0 f i libzmq:tcp_address.obj
 0001:0001dc20       ?_Makestr@_System_error@std@@CA?AV?$basic_string@DU?$char_traits@D@std@@V?$allocator@D@2@@2@Verror_code@2@V32@@Z 000000018001ec20 f i libzmq:tcp_address.obj
 0001:0001dd40       ?_Myptr@?$_String_alloc@U?$_String_base_types@DV?$allocator@D@std@@@std@@@std@@QEBAPEBDXZ 000000018001ed40 f i libzmq:tcp_address.obj
 0001:0001dd50       ?_Osfx@?$basic_ostream@DU?$char_traits@D@std@@@std@@QEAAXXZ 000000018001ed50 f i libzmq:tcp_address.obj
 0001:0001ddc0       ?_Pnavail@?$basic_streambuf@DU?$char_traits@D@std@@@std@@IEBA_JXZ 000000018001edc0 f i libzmq:tcp_address.obj
 0001:0001dde0       ?_Tidy@?$basic_stringbuf@DU?$char_traits@D@std@@V?$allocator@D@2@@std@@IEAAXXZ 000000018001ede0 f i libzmq:tcp_address.obj
 0001:0001dea0       ?_Tidy@?$numpunct@D@std@@AEAAXXZ 000000018001eea0 f i libzmq:tcp_address.obj
 0001:0001ded0       ?addrlen@tcp_address_t@zmq@@QEBAHXZ 000000018001eed0 f   libzmq:tcp_address.obj
 0001:0001ded0       ?src_addrlen@tcp_address_t@zmq@@QEBAHXZ 000000018001eed0 f   libzmq:tcp_address.obj
 0001:0001def0       ?append@?$basic_string@DU?$char_traits@D@std@@V?$allocator@D@2@@std@@QEAAAEAV12@AEBV12@_K1@Z 000000018001eef0 f i libzmq:tcp_address.obj
 0001:0001e020       ?append@?$basic_string@DU?$char_traits@D@std@@V?$allocator@D@2@@std@@QEAAAEAV12@PEBD_K@Z 000000018001f020 f i libzmq:tcp_address.obj
 0001:0001e170       ?append@?$basic_string@DU?$char_traits@D@std@@V?$allocator@D@2@@std@@QEAAAEAV12@_KD@Z 000000018001f170 f i libzmq:tcp_address.obj
 0001:0001e280       ?assign@?$basic_string@DU?$char_traits@D@std@@V?$allocator@D@2@@std@@QEAAAEAV12@$$QEAV12@@Z 000000018001f280 f i libzmq:tcp_address.obj
 0001:0001e340       ?assign@?$basic_string@DU?$char_traits@D@std@@V?$allocator@D@2@@std@@QEAAAEAV12@_KD@Z 000000018001f340 f i libzmq:tcp_address.obj
 0001:0001e440       ?clear@ios_base@std@@QEAAXH_N@Z 000000018001f440 f i libzmq:tcp_address.obj
 0001:0001e710       ?deallocate@?$allocator@D@std@@QEAAXPEAD_K@Z 000000018001f710 f i libzmq:tcp_address.obj
 0001:0001e770       ?default_error_condition@error_category@std@@UEBA?AVerror_condition@2@H@Z 000000018001f770 f i libzmq:tcp_address.obj
 0001:0001e780       ?do_decimal_point@?$numpunct@D@std@@MEBADXZ 000000018001f780 f i libzmq:tcp_address.obj
 0001:0001e790       ?do_falsename@?$numpunct@D@std@@MEBA?AV?$basic_string@DU?$char_traits@D@std@@V?$allocator@D@2@@2@XZ 000000018001f790 f i libzmq:tcp_address.obj
 0001:0001e7e0       ?do_grouping@?$numpunct@D@std@@MEBA?AV?$basic_string@DU?$char_traits@D@std@@V?$allocator@D@2@@2@XZ 000000018001f7e0 f i libzmq:tcp_address.obj
 0001:0001e830       ?do_widen@?$ctype@D@std@@MEBADD@Z 000000018001f830 f i libzmq:tcp_address.obj
 0001:0001e830       ?do_narrow@?$ctype@D@std@@MEBADDD@Z 000000018001f830 f i libzmq:tcp_address.obj
 0001:0001e840       ?do_narrow@?$ctype@D@std@@MEBAPEBDPEBD0DPEAD@Z 000000018001f840 f i libzmq:tcp_address.obj
 0001:0001e860       ?do_put@?$num_put@DV?$ostreambuf_iterator@DU?$char_traits@D@std@@@std@@@std@@MEBA?AV?$ostreambuf_iterator@DU?$char_traits@D@std@@@2@V32@AEAVios_base@2@DJ@Z 000000018001f860 f i libzmq:tcp_address.obj
 0001:0001e960       ?do_put@?$num_put@DV?$ostreambuf_iterator@DU?$char_traits@D@std@@@std@@@std@@MEBA?AV?$ostreambuf_iterator@DU?$char_traits@D@std@@@2@V32@AEAVios_base@2@DK@Z 000000018001f960 f i libzmq:tcp_address.obj
 0001:0001ea60       ?do_put@?$num_put@DV?$ostreambuf_iterator@DU?$char_traits@D@std@@@std@@@std@@MEBA?AV?$ostreambuf_iterator@DU?$char_traits@D@std@@@2@V32@AEAVios_base@2@DN@Z 000000018001fa60 f i libzmq:tcp_address.obj
 0001:0001ecd0       ?do_put@?$num_put@DV?$ostreambuf_iterator@DU?$char_traits@D@std@@@std@@@std@@MEBA?AV?$ostreambuf_iterator@DU?$char_traits@D@std@@@2@V32@AEAVios_base@2@DO@Z 000000018001fcd0 f i libzmq:tcp_address.obj
 0001:0001ef50       ?do_put@?$num_put@DV?$ostreambuf_iterator@DU?$char_traits@D@std@@@std@@@std@@MEBA?AV?$ostreambuf_iterator@DU?$char_traits@D@std@@@2@V32@AEAVios_base@2@DPEBX@Z 000000018001ff50 f i libzmq:tcp_address.obj
 0001:0001eff0       ?do_put@?$num_put@DV?$ostreambuf_iterator@DU?$char_traits@D@std@@@std@@@std@@MEBA?AV?$ostreambuf_iterator@DU?$char_traits@D@std@@@2@V32@AEAVios_base@2@D_J@Z 000000018001fff0 f i libzmq:tcp_address.obj
 0001:0001f0f0       ?do_put@?$num_put@DV?$ostreambuf_iterator@DU?$char_traits@D@std@@@std@@@std@@MEBA?AV?$ostreambuf_iterator@DU?$char_traits@D@std@@@2@V32@AEAVios_base@2@D_K@Z 00000001800200f0 f i libzmq:tcp_address.obj
 0001:0001f1f0       ?do_put@?$num_put@DV?$ostreambuf_iterator@DU?$char_traits@D@std@@@std@@@std@@MEBA?AV?$ostreambuf_iterator@DU?$char_traits@D@std@@@2@V32@AEAVios_base@2@D_N@Z 00000001800201f0 f i libzmq:tcp_address.obj
 0001:0001f5b0       ?do_thousands_sep@?$numpunct@D@std@@MEBADXZ 00000001800205b0 f i libzmq:tcp_address.obj
 0001:0001f5c0       ?do_tolower@?$ctype@D@std@@MEBADD@Z 00000001800205c0 f i libzmq:tcp_address.obj
 0001:0001f5d0       ?do_tolower@?$ctype@D@std@@MEBAPEBDPEADPEBD@Z 00000001800205d0 f i libzmq:tcp_address.obj
 0001:0001f630       ?do_toupper@?$ctype@D@std@@MEBADD@Z 0000000180020630 f i libzmq:tcp_address.obj
 0001:0001f640       ?do_toupper@?$ctype@D@std@@MEBAPEBDPEADPEBD@Z 0000000180020640 f i libzmq:tcp_address.obj
 0001:0001f6a0       ?do_truename@?$numpunct@D@std@@MEBA?AV?$basic_string@DU?$char_traits@D@std@@V?$allocator@D@2@@2@XZ 00000001800206a0 f i libzmq:tcp_address.obj
 0001:0001f6f0       ?do_widen@?$ctype@D@std@@MEBAPEBDPEBD0PEAD@Z 00000001800206f0 f i libzmq:tcp_address.obj
 0001:0001f710       ?equivalent@error_category@std@@UEBA_NAEBVerror_code@2@H@Z 0000000180020710 f i libzmq:tcp_address.obj
 0001:0001f730       ?equivalent@error_category@std@@UEBA_NHAEBVerror_condition@2@@Z 0000000180020730 f i libzmq:tcp_address.obj
 0001:0001f770       ?falsename@?$numpunct@D@std@@QEBA?AV?$basic_string@DU?$char_traits@D@std@@V?$allocator@D@2@@2@XZ 0000000180020770 f i libzmq:tcp_address.obj
 0001:0001f790       ?family@tcp_address_t@zmq@@QEBAGXZ 0000000180020790 f   libzmq:tcp_address.obj
 0001:0001f7a0       ?flush@?$basic_ostream@DU?$char_traits@D@std@@@std@@QEAAAEAV12@XZ 00000001800207a0 f i libzmq:tcp_address.obj
 0001:0001f850       ?get_interface_name@tcp_address_t@zmq@@IEBAHKPEAPEAD@Z 0000000180020850 f   libzmq:tcp_address.obj
 0001:0001f900       ?getloc@ios_base@std@@QEBA?AVlocale@2@XZ 0000000180020900 f i libzmq:tcp_address.obj
 0001:0001f940       ?grouping@?$numpunct@D@std@@QEBA?AV?$basic_string@DU?$char_traits@D@std@@V?$allocator@D@2@@2@XZ 0000000180020940 f i libzmq:tcp_address.obj
 0001:0001f960       ?has_src_addr@tcp_address_t@zmq@@QEBA_NXZ 0000000180020960 f   libzmq:tcp_address.obj
 0001:0001f970       ?init@?$basic_ios@DU?$char_traits@D@std@@@std@@IEAAXPEAV?$basic_streambuf@DU?$char_traits@D@std@@@2@_N@Z 0000000180020970 f i libzmq:tcp_address.obj
 0001:0001fa30       ?insert@?$basic_string@DU?$char_traits@D@std@@V?$allocator@D@2@@std@@QEAAAEAV12@_K0D@Z 0000000180020a30 f i libzmq:tcp_address.obj
 0001:0001fba0       ?match_address@tcp_address_mask_t@zmq@@QEBA_NPEBUsockaddr@@H@Z 0000000180020ba0 f   libzmq:tcp_address.obj
 0001:0001fd90       ?message@_Generic_error_category@std@@UEBA?AV?$basic_string@DU?$char_traits@D@std@@V?$allocator@D@2@@2@H@Z 0000000180020d90 f i libzmq:tcp_address.obj
 0001:0001fdf0       ?message@_Iostream_error_category@std@@UEBA?AV?$basic_string@DU?$char_traits@D@std@@V?$allocator@D@2@@2@H@Z 0000000180020df0 f i libzmq:tcp_address.obj
 0001:0001fe40       ?message@error_code@std@@QEBA?AV?$basic_string@DU?$char_traits@D@std@@V?$allocator@D@2@@2@XZ 0000000180020e40 f i libzmq:tcp_address.obj
 0001:0001fe70       ?name@_Iostream_error_category@std@@UEBAPEBDXZ 0000000180020e70 f i libzmq:tcp_address.obj
 0001:0001fe80       ?overflow@?$basic_stringbuf@DU?$char_traits@D@std@@V?$allocator@D@2@@std@@MEAAHH@Z 0000000180020e80 f i libzmq:tcp_address.obj
 0001:000200f0       ?underflow@?$basic_streambuf@DU?$char_traits@D@std@@@std@@MEAAHXZ 00000001800210f0 f i libzmq:tcp_address.obj
 0001:000200f0       ?overflow@?$basic_streambuf@DU?$char_traits@D@std@@@std@@MEAAHH@Z 00000001800210f0 f i libzmq:tcp_address.obj
 0001:000200f0       ?pbackfail@?$basic_streambuf@DU?$char_traits@D@std@@@std@@MEAAHH@Z 00000001800210f0 f i libzmq:tcp_address.obj
 0001:00020100       ?pbackfail@?$basic_stringbuf@DU?$char_traits@D@std@@V?$allocator@D@2@@std@@MEAAHH@Z 0000000180021100 f i libzmq:tcp_address.obj
 0001:00020150       ?resolve@tcp_address_mask_t@zmq@@QEAAHPEBD_N@Z 0000000180021150 f   libzmq:tcp_address.obj
 0001:000203e0       ?resolve@tcp_address_t@zmq@@QEAAHPEBD_N11@Z 00000001800213e0 f   libzmq:tcp_address.obj
 0001:00020940       ?resolve_hostname@tcp_address_t@zmq@@IEAAHPEBD_N1@Z 0000000180021940 f   libzmq:tcp_address.obj
 0001:00020a90       ?resolve_interface@tcp_address_t@zmq@@IEAAHPEBD_N1@Z 0000000180021a90 f   libzmq:tcp_address.obj
 0001:00020d40       ?resolve_nic_name@tcp_address_t@zmq@@IEAAHPEBD_N1@Z 0000000180021d40 f   libzmq:tcp_address.obj
 0001:00020f90       ?seekoff@?$basic_stringbuf@DU?$char_traits@D@std@@V?$allocator@D@2@@std@@MEAA?AV?$fpos@U_Mbstatet@@@2@_JHH@Z 0000000180021f90 f i libzmq:tcp_address.obj
 0001:00021120       ?seekoff@?$basic_streambuf@DU?$char_traits@D@std@@@std@@MEAA?AV?$fpos@U_Mbstatet@@@2@_JHH@Z 0000000180022120 f i libzmq:tcp_address.obj
 0001:00021120       ?seekpos@?$basic_streambuf@DU?$char_traits@D@std@@@std@@MEAA?AV?$fpos@U_Mbstatet@@@2@V32@H@Z 0000000180022120 f i libzmq:tcp_address.obj
 0001:00021140       ?seekpos@?$basic_stringbuf@DU?$char_traits@D@std@@V?$allocator@D@2@@std@@MEAA?AV?$fpos@U_Mbstatet@@@2@V32@H@Z 0000000180022140 f i libzmq:tcp_address.obj
 0001:00021250       ?src_addr@tcp_address_t@zmq@@QEBAPEBUsockaddr@@XZ 0000000180022250 f   libzmq:tcp_address.obj
 0001:00021260       ?str@?$basic_stringbuf@DU?$char_traits@D@std@@V?$allocator@D@2@@std@@QEBA?AV?$basic_string@DU?$char_traits@D@std@@V?$allocator@D@2@@2@XZ 0000000180022260 f i libzmq:tcp_address.obj
 0001:000214d0       ?str@?$basic_stringstream@DU?$char_traits@D@std@@V?$allocator@D@2@@std@@QEBA?AV?$basic_string@DU?$char_traits@D@std@@V?$allocator@D@2@@2@XZ 00000001800224d0 f i libzmq:tcp_address.obj
 0001:00021500       ?to_string@tcp_address_mask_t@zmq@@UEAAHAEAV?$basic_string@DU?$char_traits@D@std@@V?$allocator@D@2@@std@@@Z 0000000180022500 f   libzmq:tcp_address.obj
 0001:000218e0       ?to_string@tcp_address_t@zmq@@UEAAHAEAV?$basic_string@DU?$char_traits@D@std@@V?$allocator@D@2@@std@@@Z 00000001800228e0 f   libzmq:tcp_address.obj
 0001:00021d80       ?truename@?$numpunct@D@std@@QEBA?AV?$basic_string@DU?$char_traits@D@std@@V?$allocator@D@2@@2@XZ 0000000180022d80 f i libzmq:tcp_address.obj
 0001:00021da0       ?uflow@?$basic_streambuf@DU?$char_traits@D@std@@@std@@MEAAHXZ 0000000180022da0 f i libzmq:tcp_address.obj
 0001:00021de0       ?underflow@?$basic_stringbuf@DU?$char_traits@D@std@@V?$allocator@D@2@@std@@MEAAHXZ 0000000180022de0 f i libzmq:tcp_address.obj
 0001:00021e40       ?wchar_to_utf8@tcp_address_t@zmq@@IEBAHPEB_WPEAPEAD@Z 0000000180022e40 f   libzmq:tcp_address.obj
 0001:00021f40       ?what@exception@std@@UEBAPEBDXZ 0000000180022f40 f i libzmq:tcp_address.obj
 0001:00021f60       ?xsgetn@?$basic_streambuf@DU?$char_traits@D@std@@@std@@MEAA_JPEAD_J@Z 0000000180022f60 f i libzmq:tcp_address.obj
 0001:00022020       ?xsputn@?$basic_streambuf@DU?$char_traits@D@std@@@std@@MEAA_JPEBD_J@Z 0000000180023020 f i libzmq:tcp_address.obj
 0001:000220e0       sprintf_s                  00000001800230e0 f i libzmq:tcp_address.obj
 0001:00022140       ??$_Uninitialized_move_al_unchecked1@PEAVtcp_address_mask_t@zmq@@PEAV12@V?$allocator@Vtcp_address_mask_t@zmq@@@std@@@std@@YAPEAVtcp_address_mask_t@zmq@@PEAV12@00AEAU?$_Wrap_alloc@V?$allocator@Vtcp_address_mask_t@zmq@@@std@@@0@U_General_ptr_iterator_tag@0@U_Any_tag@0@@Z 0000000180023140 f i libzmq:options.obj
 0001:000221f0       ??0options_t@zmq@@QEAA@XZ  00000001800231f0 f   libzmq:options.obj
 0001:000223b0       ??1tcp_address_mask_t@zmq@@UEAA@XZ 00000001800233b0 f i libzmq:options.obj
 0001:000223c0       ?_Reallocate@?$vector@Vtcp_address_mask_t@zmq@@V?$allocator@Vtcp_address_mask_t@zmq@@@std@@@std@@IEAAX_K@Z 00000001800233c0 f i libzmq:options.obj
 0001:000224d0       ?_Reserve@?$vector@Vtcp_address_mask_t@zmq@@V?$allocator@Vtcp_address_mask_t@zmq@@@std@@@std@@IEAAX_K@Z 00000001800234d0 f i libzmq:options.obj
 0001:000225a0       ?clear@?$vector@Vtcp_address_mask_t@zmq@@V?$allocator@Vtcp_address_mask_t@zmq@@@std@@@std@@QEAAXXZ 00000001800235a0 f i libzmq:options.obj
 0001:00022600       ?getsockopt@options_t@zmq@@QEBAHHPEAXPEA_K@Z 0000000180023600 f   libzmq:options.obj
 0001:00022d50       ?push_back@?$vector@Vtcp_address_mask_t@zmq@@V?$allocator@Vtcp_address_mask_t@zmq@@@std@@@std@@QEAAXAEBVtcp_address_mask_t@zmq@@@Z 0000000180023d50 f i libzmq:options.obj
 0001:00022eb0       ?setsockopt@options_t@zmq@@QEAAHHPEBX_K@Z 0000000180023eb0 f   libzmq:options.obj
 0001:000236b0       ??0?$ypipe_t@Ucommand_t@zmq@@$0BA@@zmq@@QEAA@XZ 00000001800246b0 f i libzmq:mailbox.obj
 0001:00023730       ??0?$yqueue_t@Ucommand_t@zmq@@$0BA@@zmq@@QEAA@XZ 0000000180024730 f i libzmq:mailbox.obj
 0001:000237c0       ??0mailbox_t@zmq@@QEAA@XZ  00000001800247c0 f   libzmq:mailbox.obj
 0001:00023880       ??1?$ypipe_base_t@Ucommand_t@zmq@@@zmq@@UEAA@XZ 0000000180024880 f i libzmq:mailbox.obj
 0001:00023890       ??1?$ypipe_t@Ucommand_t@zmq@@$0BA@@zmq@@UEAA@XZ 0000000180024890 f i libzmq:mailbox.obj
 0001:00023900       ??1?$yqueue_t@Ucommand_t@zmq@@$0BA@@zmq@@QEAA@XZ 0000000180024900 f i libzmq:mailbox.obj
 0001:00023950       ??1i_mailbox@zmq@@UEAA@XZ  0000000180024950 f i libzmq:mailbox.obj
 0001:00023960       ??1mailbox_t@zmq@@UEAA@XZ  0000000180024960 f   libzmq:mailbox.obj
 0001:00023a20       ??_E?$ypipe_base_t@Ucommand_t@zmq@@@zmq@@UEAAPEAXI@Z 0000000180024a20 f i libzmq:mailbox.obj
 0001:00023a20       ??_G?$ypipe_base_t@Ucommand_t@zmq@@@zmq@@UEAAPEAXI@Z 0000000180024a20 f i libzmq:mailbox.obj
 0001:00023a50       ??_G?$ypipe_t@Ucommand_t@zmq@@$0BA@@zmq@@UEAAPEAXI@Z 0000000180024a50 f i libzmq:mailbox.obj
 0001:00023a50       ??_E?$ypipe_t@Ucommand_t@zmq@@$0BA@@zmq@@UEAAPEAXI@Z 0000000180024a50 f i libzmq:mailbox.obj
 0001:00023ae0       ??_Ei_mailbox@zmq@@UEAAPEAXI@Z 0000000180024ae0 f i libzmq:mailbox.obj
 0001:00023ae0       ??_Gi_mailbox@zmq@@UEAAPEAXI@Z 0000000180024ae0 f i libzmq:mailbox.obj
 0001:00023b10       ??_Emailbox_t@zmq@@UEAAPEAXI@Z 0000000180024b10 f i libzmq:mailbox.obj
 0001:00023b10       ??_Gmailbox_t@zmq@@UEAAPEAXI@Z 0000000180024b10 f i libzmq:mailbox.obj
 0001:00023b50       ?flush@?$ypipe_t@Ucommand_t@zmq@@$0BA@@zmq@@UEAA_NXZ 0000000180024b50 f i libzmq:mailbox.obj
 0001:00023b50       ?flush@?$ypipe_t@Vmsg_t@zmq@@$0BAA@@zmq@@UEAA_NXZ 0000000180024b50 f i libzmq:pipe.obj
 0001:00023b80       ?get_fd@mailbox_t@zmq@@QEBA_KXZ 0000000180024b80 f   libzmq:mailbox.obj
 0001:00023b90       ?push@?$yqueue_t@Ucommand_t@zmq@@$0BA@@zmq@@QEAAXXZ 0000000180024b90 f i libzmq:mailbox.obj
 0001:00023c70       ?read@?$ypipe_t@Ucommand_t@zmq@@$0BA@@zmq@@UEAA_NPEAUcommand_t@2@@Z 0000000180024c70 f i libzmq:mailbox.obj
 0001:00023d00       ?recv@mailbox_t@zmq@@UEAAHPEAUcommand_t@2@H@Z 0000000180024d00 f   libzmq:mailbox.obj
 0001:00023e90       ?send@mailbox_t@zmq@@UEAAXAEBUcommand_t@2@@Z 0000000180024e90 f   libzmq:mailbox.obj
 0001:00023f00       ?unpush@?$yqueue_t@Ucommand_t@zmq@@$0BA@@zmq@@QEAAXXZ 0000000180024f00 f i libzmq:mailbox.obj
 0001:00023f80       ?unwrite@?$ypipe_t@Ucommand_t@zmq@@$0BA@@zmq@@UEAA_NPEAUcommand_t@2@@Z 0000000180024f80 f i libzmq:mailbox.obj
 0001:00024000       ?write@?$ypipe_t@Ucommand_t@zmq@@$0BA@@zmq@@UEAAXAEBUcommand_t@2@_N@Z 0000000180025000 f i libzmq:mailbox.obj
 0001:00024080       ??0object_t@zmq@@QEAA@PEAV01@@Z 0000000180025080 f   libzmq:object.obj
 0001:000240a0       ??0object_t@zmq@@QEAA@PEAVctx_t@1@I@Z 00000001800250a0 f   libzmq:object.obj
 0001:000240c0       ??1object_t@zmq@@UEAA@XZ   00000001800250c0 f   libzmq:object.obj
 0001:000240d0       ??_Eobject_t@zmq@@UEAAPEAXI@Z 00000001800250d0 f i libzmq:object.obj
 0001:000240d0       ??_Gobject_t@zmq@@UEAAPEAXI@Z 00000001800250d0 f i libzmq:object.obj
 0001:00024110       ?choose_io_thread@object_t@zmq@@IEAAPEAVio_thread_t@2@_K@Z 0000000180025110 f   libzmq:object.obj
 0001:00024120       ?connect_pending@object_t@zmq@@IEAAXPEBDPEAVsocket_base_t@2@@Z 0000000180025120 f   libzmq:object.obj
 0001:00024130       ?destroy_socket@object_t@zmq@@IEAAXPEAVsocket_base_t@2@@Z 0000000180025130 f   libzmq:object.obj
 0001:00024140       ?find_endpoint@object_t@zmq@@IEAA?AUendpoint_t@2@PEBD@Z 0000000180025140 f   libzmq:object.obj
 0001:00024170       ?get_tid@object_t@zmq@@QEAAIXZ 0000000180025170 f   libzmq:object.obj
 0001:00024180       ?pend_connection@object_t@zmq@@IEAAXAEBV?$basic_string@DU?$char_traits@D@std@@V?$allocator@D@2@@std@@AEBUendpoint_t@2@PEAPEAVpipe_t@2@@Z 0000000180025180 f   libzmq:object.obj
 0001:00024190       ?process_activate_read@object_t@zmq@@MEAAXXZ 0000000180025190 f   libzmq:object.obj
 0001:000241f0       ?process_activate_write@object_t@zmq@@MEAAX_K@Z 00000001800251f0 f   libzmq:object.obj
 0001:00024250       ?process_attach@object_t@zmq@@MEAAXPEAUi_engine@2@@Z 0000000180025250 f   libzmq:object.obj
 0001:000242b0       ?process_bind@object_t@zmq@@MEAAXPEAVpipe_t@2@@Z 00000001800252b0 f   libzmq:object.obj
 0001:00024310       ?process_command@object_t@zmq@@QEAAXAEAUcommand_t@2@@Z 0000000180025310 f   libzmq:object.obj
 0001:00024500       ?process_hiccup@object_t@zmq@@MEAAXPEAX@Z 0000000180025500 f   libzmq:object.obj
 0001:00024560       ?process_own@object_t@zmq@@MEAAXPEAVown_t@2@@Z 0000000180025560 f   libzmq:object.obj
 0001:000245c0       ?process_pipe_term@object_t@zmq@@MEAAXXZ 00000001800255c0 f   libzmq:object.obj
 0001:00024620       ?process_pipe_term_ack@object_t@zmq@@MEAAXXZ 0000000180025620 f   libzmq:object.obj
 0001:00024680       ?process_plug@object_t@zmq@@MEAAXXZ 0000000180025680 f   libzmq:object.obj
 0001:000246e0       ?process_reap@object_t@zmq@@MEAAXPEAVsocket_base_t@2@@Z 00000001800256e0 f   libzmq:object.obj
 0001:00024740       ?process_reaped@object_t@zmq@@MEAAXXZ 0000000180025740 f   libzmq:object.obj
 0001:000247a0       ?process_seqnum@object_t@zmq@@MEAAXXZ 00000001800257a0 f   libzmq:object.obj
 0001:00024800       ?process_stop@object_t@zmq@@MEAAXXZ 0000000180025800 f   libzmq:object.obj
 0001:00024860       ?process_term@object_t@zmq@@MEAAXH@Z 0000000180025860 f   libzmq:object.obj
 0001:000248c0       ?process_term_ack@object_t@zmq@@MEAAXXZ 00000001800258c0 f   libzmq:object.obj
 0001:00024920       ?process_term_req@object_t@zmq@@MEAAXPEAVown_t@2@@Z 0000000180025920 f   libzmq:object.obj
 0001:00024980       ?register_endpoint@object_t@zmq@@IEAAHPEBDAEBUendpoint_t@2@@Z 0000000180025980 f   libzmq:object.obj
 0001:00024990       ?send_activate_read@object_t@zmq@@IEAAXPEAVpipe_t@2@@Z 0000000180025990 f   libzmq:object.obj
 0001:000249c0       ?send_activate_write@object_t@zmq@@IEAAXPEAVpipe_t@2@_K@Z 00000001800259c0 f   libzmq:object.obj
 0001:00024a00       ?send_attach@object_t@zmq@@IEAAXPEAVsession_base_t@2@PEAUi_engine@2@_N@Z 0000000180025a00 f   libzmq:object.obj
 0001:00024a70       ?send_bind@object_t@zmq@@QEAAXPEAVown_t@2@PEAVpipe_t@2@_N@Z 0000000180025a70 f   libzmq:object.obj
 0001:00024ae0       ?send_command@object_t@zmq@@AEAAXAEAUcommand_t@2@@Z 0000000180025ae0 f   libzmq:object.obj
 0001:00024b10       ?send_done@object_t@zmq@@IEAAXXZ 0000000180025b10 f   libzmq:object.obj
 0001:00024b50       ?send_hiccup@object_t@zmq@@IEAAXPEAVpipe_t@2@PEAX@Z 0000000180025b50 f   libzmq:object.obj
 0001:00024b90       ?send_inproc_connected@object_t@zmq@@QEAAXPEAVsocket_base_t@2@@Z 0000000180025b90 f   libzmq:object.obj
 0001:00024bc0       ?send_own@object_t@zmq@@IEAAXPEAVown_t@2@0@Z 0000000180025bc0 f   libzmq:object.obj
 0001:00024c30       ?send_pipe_term@object_t@zmq@@IEAAXPEAVpipe_t@2@@Z 0000000180025c30 f   libzmq:object.obj
 0001:00024c60       ?send_pipe_term_ack@object_t@zmq@@IEAAXPEAVpipe_t@2@@Z 0000000180025c60 f   libzmq:object.obj
 0001:00024c90       ?send_plug@object_t@zmq@@IEAAXPEAVown_t@2@_N@Z 0000000180025c90 f   libzmq:object.obj
 0001:00024cf0       ?send_reap@object_t@zmq@@IEAAXPEAVsocket_base_t@2@@Z 0000000180025cf0 f   libzmq:object.obj
 0001:00024d50       ?send_reaped@object_t@zmq@@IEAAXXZ 0000000180025d50 f   libzmq:object.obj
 0001:00024da0       ?send_stop@object_t@zmq@@IEAAXXZ 0000000180025da0 f   libzmq:object.obj
 0001:00024de0       ?send_term@object_t@zmq@@IEAAXPEAVown_t@2@H@Z 0000000180025de0 f   libzmq:object.obj
 0001:00024e20       ?send_term_ack@object_t@zmq@@IEAAXPEAVown_t@2@@Z 0000000180025e20 f   libzmq:object.obj
 0001:00024e50       ?send_term_req@object_t@zmq@@IEAAXPEAVown_t@2@0@Z 0000000180025e50 f   libzmq:object.obj
 0001:00024e90       ?set_tid@object_t@zmq@@QEAAXI@Z 0000000180025e90 f   libzmq:object.obj
 0001:00024ea0       ?unregister_endpoint@object_t@zmq@@IEAAHAEBV?$basic_string@DU?$char_traits@D@std@@V?$allocator@D@2@@std@@PEAVsocket_base_t@2@@Z 0000000180025ea0 f   libzmq:object.obj
 0001:00024eb0       ?unregister_endpoints@object_t@zmq@@IEAAXPEAVsocket_base_t@2@@Z 0000000180025eb0 f   libzmq:object.obj
 0001:00024ec0       ??$_Buynode@AEBQEAVown_t@zmq@@@?$_Tree_comp_alloc@V?$_Tset_traits@PEAVown_t@zmq@@U?$less@PEAVown_t@zmq@@@std@@V?$allocator@PEAVown_t@zmq@@@4@$0A@@std@@@std@@QEAAPEAU?$_Tree_node@PEAVown_t@zmq@@PEAX@1@AEBQEAVown_t@zmq@@@Z 0000000180025ec0 f i libzmq:own.obj
 0001:00024f00       ??$_Insert_at@AEBQEAVown_t@zmq@@U_Nil@std@@@?$_Tree@V?$_Tset_traits@PEAVown_t@zmq@@U?$less@PEAVown_t@zmq@@@std@@V?$allocator@PEAVown_t@zmq@@@4@$0A@@std@@@std@@IEAA?AV?$_Tree_const_iterator@V?$_Tree_val@U?$_Tree_simple_types@PEAVown_t@zmq@@@std@@@std@@@1@_NPEAU?$_Tree_node@PEAVown_t@zmq@@PEAX@1@AEBQEAVown_t@zmq@@U_Nil@1@@Z 0000000180025f00 f i libzmq:own.obj
 0001:000251d0       ??$_Insert_nohint@AEBQEAVown_t@zmq@@U_Nil@std@@@?$_Tree@V?$_Tset_traits@PEAVown_t@zmq@@U?$less@PEAVown_t@zmq@@@std@@V?$allocator@PEAVown_t@zmq@@@4@$0A@@std@@@std@@IEAA?AU?$pair@V?$_Tree_const_iterator@V?$_Tree_val@U?$_Tree_simple_types@PEAVown_t@zmq@@@std@@@std@@@std@@_N@1@_NAEBQEAVown_t@zmq@@U_Nil@1@@Z 00000001800261d0 f i libzmq:own.obj
 0001:00025330       ??0own_t@zmq@@QEAA@PEAVctx_t@1@I@Z 0000000180026330 f   libzmq:own.obj
 0001:000253c0       ??0own_t@zmq@@QEAA@PEAVio_thread_t@1@AEBUoptions_t@1@@Z 00000001800263c0 f   libzmq:own.obj
 0001:00025460       ??1options_t@zmq@@QEAA@XZ  0000000180026460 f i libzmq:own.obj
 0001:000254d0       ??1own_t@zmq@@MEAA@XZ      00000001800264d0 f   libzmq:own.obj
 0001:00025580       ??_Eown_t@zmq@@MEAAPEAXI@Z 0000000180026580 f i libzmq:own.obj
 0001:00025580       ??_Gown_t@zmq@@MEAAPEAXI@Z 0000000180026580 f i libzmq:own.obj
 0001:000255c0       ?_Buyheadnode@?$_Tree_comp_alloc@V?$_Tset_traits@PEAVown_t@zmq@@U?$less@PEAVown_t@zmq@@@std@@V?$allocator@PEAVown_t@zmq@@@4@$0A@@std@@@std@@QEAAPEAU?$_Tree_node@PEAVown_t@zmq@@PEAX@2@XZ 00000001800265c0 f i libzmq:own.obj
 0001:00025620       ?_Buynode0@?$_Tree_comp_alloc@V?$_Tset_traits@PEAVown_t@zmq@@U?$less@PEAVown_t@zmq@@@std@@V?$allocator@PEAVown_t@zmq@@@4@$0A@@std@@@std@@QEAAPEAU?$_Tree_node@PEAVown_t@zmq@@PEAX@2@XZ 0000000180026620 f i libzmq:own.obj
 0001:00025680       ?check_term_acks@own_t@zmq@@AEAAXXZ 0000000180026680 f   libzmq:own.obj
 0001:00025740       ?clear@?$_Tree@V?$_Tset_traits@PEAVown_t@zmq@@U?$less@PEAVown_t@zmq@@@std@@V?$allocator@PEAVown_t@zmq@@@4@$0A@@std@@@std@@QEAAXXZ 0000000180026740 f i libzmq:own.obj
 0001:000257c0       ?erase@?$_Tree@V?$_Tset_traits@PEAVown_t@zmq@@U?$less@PEAVown_t@zmq@@@std@@V?$allocator@PEAVown_t@zmq@@@4@$0A@@std@@@std@@QEAA?AV?$_Tree_const_iterator@V?$_Tree_val@U?$_Tree_simple_types@PEAVown_t@zmq@@@std@@@std@@@2@V32@0@Z 00000001800267c0 f i libzmq:own.obj
 0001:000258a0       ?inc_seqnum@own_t@zmq@@QEAAXXZ 00000001800268a0 f   libzmq:own.obj
 0001:000258b0       ?is_terminating@own_t@zmq@@IEAA_NXZ 00000001800268b0 f   libzmq:own.obj
 0001:000258c0       ?launch_child@own_t@zmq@@IEAAXPEAV12@@Z 00000001800268c0 f   libzmq:own.obj
 0001:00025910       ?process_destroy@own_t@zmq@@MEAAXXZ 0000000180026910 f   libzmq:own.obj
 0001:00025930       ?process_own@own_t@zmq@@EEAAXPEAV12@@Z 0000000180026930 f   libzmq:own.obj
 0001:000259a0       ?process_seqnum@own_t@zmq@@EEAAXXZ 00000001800269a0 f   libzmq:own.obj
 0001:000259b0       ?process_term@own_t@zmq@@MEAAXH@Z 00000001800269b0 f   libzmq:own.obj
 0001:00025b30       ?process_term_ack@own_t@zmq@@EEAAXXZ 0000000180026b30 f   libzmq:own.obj
 0001:00025b40       ?process_term_req@own_t@zmq@@EEAAXPEAV12@@Z 0000000180026b40 f   libzmq:own.obj
 0001:00025c10       ?register_term_acks@own_t@zmq@@QEAAXH@Z 0000000180026c10 f   libzmq:own.obj
 0001:00025c20       ?set_owner@own_t@zmq@@AEAAXPEAV12@@Z 0000000180026c20 f   libzmq:own.obj
 0001:00025cb0       ?term_child@own_t@zmq@@IEAAXPEAV12@@Z 0000000180026cb0 f   libzmq:own.obj
 0001:00025cc0       ?terminate@own_t@zmq@@IEAAXXZ 0000000180026cc0 f   libzmq:own.obj
 0001:00025cf0       ?unregister_term_ack@own_t@zmq@@QEAAXXZ 0000000180026cf0 f   libzmq:own.obj
 0001:00025d70       ??$_Buynode@AEBUpiecewise_construct_t@std@@V?$tuple@AEBG@2@V?$tuple@$$V@2@@?$_Tree_comp_alloc@V?$_Tmap_traits@GUfamily_entry_t@select_t@zmq@@U?$less@G@std@@V?$allocator@U?$pair@$$CBGUfamily_entry_t@select_t@zmq@@@std@@@5@$0A@@std@@@std@@QEAAPEAU?$_Tree_node@U?$pair@$$CBGUfamily_entry_t@select_t@zmq@@@std@@PEAX@1@AEBUpiecewise_construct_t@1@$$QEAV?$tuple@AEBG@1@$$QEAV?$tuple@$$V@1@@Z 0000000180026d70 f i libzmq:select.obj
 0001:00025dd0       ??$_Insert_at@AEAU?$pair@$$CBGUfamily_entry_t@select_t@zmq@@@std@@PEAU?$_Tree_node@U?$pair@$$CBGUfamily_entry_t@select_t@zmq@@@std@@PEAX@2@@?$_Tree@V?$_Tmap_traits@GUfamily_entry_t@select_t@zmq@@U?$less@G@std@@V?$allocator@U?$pair@$$CBGUfamily_entry_t@select_t@zmq@@@std@@@5@$0A@@std@@@std@@IEAA?AV?$_Tree_iterator@V?$_Tree_val@U?$_Tree_simple_types@U?$pair@$$CBGUfamily_entry_t@select_t@zmq@@@std@@@std@@@std@@@1@_NPEAU?$_Tree_node@U?$pair@$$CBGUfamily_entry_t@select_t@zmq@@@std@@PEAX@1@AEAU?$pair@$$CBGUfamily_entry_t@select_t@zmq@@@1@1@Z 0000000180026dd0 f i libzmq:select.obj
 0001:00026080       ??$_Insert_hint@AEAU?$pair@$$CBGUfamily_entry_t@select_t@zmq@@@std@@PEAU?$_Tree_node@U?$pair@$$CBGUfamily_entry_t@select_t@zmq@@@std@@PEAX@2@@?$_Tree@V?$_Tmap_traits@GUfamily_entry_t@select_t@zmq@@U?$less@G@std@@V?$allocator@U?$pair@$$CBGUfamily_entry_t@select_t@zmq@@@std@@@5@$0A@@std@@@std@@IEAA?AV?$_Tree_iterator@V?$_Tree_val@U?$_Tree_simple_types@U?$pair@$$CBGUfamily_entry_t@select_t@zmq@@@std@@@std@@@std@@@1@V?$_Tree_const_iterator@V?$_Tree_val@U?$_Tree_simple_types@U?$pair@$$CBGUfamily_entry_t@select_t@zmq@@@std@@@std@@@std@@@1@AEAU?$pair@$$CBGUfamily_entry_t@select_t@zmq@@@1@PEAU?$_Tree_node@U?$pair@$$CBGUfamily_entry_t@select_t@zmq@@@std@@PEAX@1@@Z 0000000180027080 f i libzmq:select.obj
 0001:000262f0       ??$_Insert_nohint@AEAU?$pair@$$CBGUfamily_entry_t@select_t@zmq@@@std@@PEAU?$_Tree_node@U?$pair@$$CBGUfamily_entry_t@select_t@zmq@@@std@@PEAX@2@@?$_Tree@V?$_Tmap_traits@GUfamily_entry_t@select_t@zmq@@U?$less@G@std@@V?$allocator@U?$pair@$$CBGUfamily_entry_t@select_t@zmq@@@std@@@5@$0A@@std@@@std@@IEAA?AU?$pair@V?$_Tree_iterator@V?$_Tree_val@U?$_Tree_simple_types@U?$pair@$$CBGUfamily_entry_t@select_t@zmq@@@std@@@std@@@std@@@std@@_N@1@_NAEAU?$pair@$$CBGUfamily_entry_t@select_t@zmq@@@1@PEAU?$_Tree_node@U?$pair@$$CBGUfamily_entry_t@select_t@zmq@@@std@@PEAX@1@@Z 00000001800272f0 f i libzmq:select.obj
 0001:00026450       ??0family_entry_t@select_t@zmq@@QEAA@XZ 0000000180027450 f   libzmq:select.obj
 0001:00026480       ??0fds_set_t@select_t@zmq@@QEAA@AEBU012@@Z 0000000180027480 f   libzmq:select.obj
 0001:000265f0       ??0fds_set_t@select_t@zmq@@QEAA@XZ 00000001800275f0 f   libzmq:select.obj
 0001:00026610       ??0select_t@zmq@@QEAA@AEBVctx_t@1@@Z 0000000180027610 f   libzmq:select.obj
 0001:00026690       ??0wsa_events_t@select_t@zmq@@QEAA@XZ 0000000180027690 f   libzmq:select.obj
 0001:00026830       ??1?$_Tree@V?$_Tmap_traits@GUfamily_entry_t@select_t@zmq@@U?$less@G@std@@V?$allocator@U?$pair@$$CBGUfamily_entry_t@select_t@zmq@@@std@@@5@$0A@@std@@@std@@QEAA@XZ 0000000180027830 f i libzmq:select.obj
 0001:000268a0       ??1select_t@zmq@@UEAA@XZ   00000001800278a0 f   libzmq:select.obj
 0001:000268e0       ??1wsa_events_t@select_t@zmq@@QEAA@XZ 00000001800278e0 f   libzmq:select.obj
 0001:00026aa0       ??_Gselect_t@zmq@@UEAAPEAXI@Z 0000000180027aa0 f i libzmq:select.obj
 0001:00026aa0       ??_Eselect_t@zmq@@UEAAPEAXI@Z 0000000180027aa0 f i libzmq:select.obj
 0001:00026ae0       ?_Buyheadnode@?$_Tree_comp_alloc@V?$_Tmap_traits@GUfamily_entry_t@select_t@zmq@@U?$less@G@std@@V?$allocator@U?$pair@$$CBGUfamily_entry_t@select_t@zmq@@@std@@@5@$0A@@std@@@std@@QEAAPEAU?$_Tree_node@U?$pair@$$CBGUfamily_entry_t@select_t@zmq@@@std@@PEAX@2@XZ 0000000180027ae0 f i libzmq:select.obj
 0001:00026b50       ?_Buynode0@?$_Tree_comp_alloc@V?$_Tmap_traits@GUfamily_entry_t@select_t@zmq@@U?$less@G@std@@V?$allocator@U?$pair@$$CBGUfamily_entry_t@select_t@zmq@@@std@@@5@$0A@@std@@@std@@QEAAPEAU?$_Tree_node@U?$pair@$$CBGUfamily_entry_t@select_t@zmq@@@std@@PEAX@2@XZ 0000000180027b50 f i libzmq:select.obj
 0001:00026bc0       ?_Destroy_if_not_nil@?$_Tree@V?$_Tmap_traits@GUfamily_entry_t@select_t@zmq@@U?$less@G@std@@V?$allocator@U?$pair@$$CBGUfamily_entry_t@select_t@zmq@@@std@@@5@$0A@@std@@@std@@IEAAXPEAU?$_Tree_node@U?$pair@$$CBGUfamily_entry_t@select_t@zmq@@@std@@PEAX@2@@Z 0000000180027bc0 f i libzmq:select.obj
 0001:00026c40       ?_Erase@?$_Tree@V?$_Tmap_traits@GUfamily_entry_t@select_t@zmq@@U?$less@G@std@@V?$allocator@U?$pair@$$CBGUfamily_entry_t@select_t@zmq@@@std@@@5@$0A@@std@@@std@@IEAAXPEAU?$_Tree_node@U?$pair@$$CBGUfamily_entry_t@select_t@zmq@@@std@@PEAX@2@@Z 0000000180027c40 f i libzmq:select.obj
 0001:00026d70       ?_Freenode0@?$_Tree_comp_alloc@V?$_Tmap_traits@GUfamily_entry_t@select_t@zmq@@U?$less@G@std@@V?$allocator@U?$pair@$$CBGUfamily_entry_t@select_t@zmq@@@std@@@5@$0A@@std@@@std@@QEAAXPEAU?$_Tree_node@U?$pair@$$CBGUfamily_entry_t@select_t@zmq@@@std@@PEAX@2@@Z 0000000180027d70 f i libzmq:select.obj
 0001:00026dc0       ?_Reallocate@?$vector@Ufd_entry_t@select_t@zmq@@V?$allocator@Ufd_entry_t@select_t@zmq@@@std@@@std@@IEAAX_K@Z 0000000180027dc0 f i libzmq:select.obj
 0001:00026e50       ?_Reserve@?$vector@Ufd_entry_t@select_t@zmq@@V?$allocator@Ufd_entry_t@select_t@zmq@@@std@@@std@@IEAAX_K@Z 0000000180027e50 f i libzmq:select.obj
 0001:00026ee0       ?_Rrotate@?$_Tree@V?$_Tmap_traits@V?$basic_string@DU?$char_traits@D@std@@V?$allocator@D@2@@std@@V12@U?$less@V?$basic_string@DU?$char_traits@D@std@@V?$allocator@D@2@@std@@@2@V?$allocator@U?$pair@$$CBV?$basic_string@DU?$char_traits@D@std@@V?$allocator@D@2@@std@@V12@@std@@@2@$0A@@std@@@std@@IEAAXPEAU?$_Tree_node@U?$pair@$$CBV?$basic_string@DU?$char_traits@D@std@@V?$allocator@D@2@@std@@V12@@std@@PEAX@2@@Z 0000000180027ee0 f i libzmq:metadata.obj
 0001:00026ee0       ?_Rrotate@?$_Tree@V?$_Tmap_traits@V?$basic_string@EU?$char_traits@E@std@@V?$allocator@E@2@@std@@Uoutpipe_t@router_t@zmq@@U?$less@V?$basic_string@EU?$char_traits@E@std@@V?$allocator@E@2@@std@@@2@V?$allocator@U?$pair@$$CBV?$basic_string@EU?$char_traits@E@std@@V?$allocator@E@2@@std@@Uoutpipe_t@router_t@zmq@@@std@@@2@$0A@@std@@@std@@IEAAXPEAU?$_Tree_node@U?$pair@$$CBV?$basic_string@EU?$char_traits@E@std@@V?$allocator@E@2@@std@@Uoutpipe_t@router_t@zmq@@@std@@PEAX@2@@Z 0000000180027ee0 f i libzmq:router.obj
 0001:00026ee0       ?_Rrotate@?$_Tree@V?$_Tmap_traits@V?$basic_string@DU?$char_traits@D@std@@V?$allocator@D@2@@std@@U?$pair@PEAVown_t@zmq@@PEAVpipe_t@2@@2@U?$less@V?$basic_string@DU?$char_traits@D@std@@V?$allocator@D@2@@std@@@2@V?$allocator@U?$pair@$$CBV?$basic_string@DU?$char_traits@D@std@@V?$allocator@D@2@@std@@U?$pair@PEAVown_t@zmq@@PEAVpipe_t@2@@2@@std@@@2@$00@std@@@std@@IEAAXPEAU?$_Tree_node@U?$pair@$$CBV?$basic_string@DU?$char_traits@D@std@@V?$allocator@D@2@@std@@U?$pair@PEAVown_t@zmq@@PEAVpipe_t@2@@2@@std@@PEAX@2@@Z 0000000180027ee0 f i libzmq:socket_base.obj
 0001:00026ee0       ?_Rrotate@?$_Tree@V?$_Tmap_traits@V?$basic_string@DU?$char_traits@D@std@@V?$allocator@D@2@@std@@PEAVpipe_t@zmq@@U?$less@V?$basic_string@DU?$char_traits@D@std@@V?$allocator@D@2@@std@@@2@V?$allocator@U?$pair@$$CBV?$basic_string@DU?$char_traits@D@std@@V?$allocator@D@2@@std@@PEAVpipe_t@zmq@@@std@@@2@$00@std@@@std@@IEAAXPEAU?$_Tree_node@U?$pair@$$CBV?$basic_string@DU?$char_traits@D@std@@V?$allocator@D@2@@std@@PEAVpipe_t@zmq@@@std@@PEAX@2@@Z 0000000180027ee0 f i libzmq:socket_base.obj
 0001:00026ee0       ?_Rrotate@?$_Tree@V?$_Tset_traits@PEAVpipe_t@zmq@@U?$less@PEAVpipe_t@zmq@@@std@@V?$allocator@PEAVpipe_t@zmq@@@4@$0A@@std@@@std@@IEAAXPEAU?$_Tree_node@PEAVpipe_t@zmq@@PEAX@2@@Z 0000000180027ee0 f i libzmq:session_base.obj
 0001:00026ee0       ?_Rrotate@?$_Tree@V?$_Tmap_traits@V?$basic_string@DU?$char_traits@D@std@@V?$allocator@D@2@@std@@Uendpoint_t@zmq@@U?$less@V?$basic_string@DU?$char_traits@D@std@@V?$allocator@D@2@@std@@@2@V?$allocator@U?$pair@$$CBV?$basic_string@DU?$char_traits@D@std@@V?$allocator@D@2@@std@@Uendpoint_t@zmq@@@std@@@2@$0A@@std@@@std@@IEAAXPEAU?$_Tree_node@U?$pair@$$CBV?$basic_string@DU?$char_traits@D@std@@V?$allocator@D@2@@std@@Uendpoint_t@zmq@@@std@@PEAX@2@@Z 0000000180027ee0 f i libzmq:ctx.obj
 0001:00026ee0       ?_Rrotate@?$_Tree@V?$_Tmap_traits@GUfamily_entry_t@select_t@zmq@@U?$less@G@std@@V?$allocator@U?$pair@$$CBGUfamily_entry_t@select_t@zmq@@@std@@@5@$0A@@std@@@std@@IEAAXPEAU?$_Tree_node@U?$pair@$$CBGUfamily_entry_t@select_t@zmq@@@std@@PEAX@2@@Z 0000000180027ee0 f i libzmq:select.obj
 0001:00026ee0       ?_Rrotate@?$_Tree@V?$_Tmap_traits@_KUtimer_info_t@poller_base_t@zmq@@U?$less@_K@std@@V?$allocator@U?$pair@$$CB_KUtimer_info_t@poller_base_t@zmq@@@std@@@5@$00@std@@@std@@IEAAXPEAU?$_Tree_node@U?$pair@$$CB_KUtimer_info_t@poller_base_t@zmq@@@std@@PEAX@2@@Z 0000000180027ee0 f i libzmq:poller_base.obj
 0001:00026ee0       ?_Rrotate@?$_Tree@V?$_Tmap_traits@V?$basic_string@EU?$char_traits@E@std@@V?$allocator@E@2@@std@@Uoutpipe_t@stream_t@zmq@@U?$less@V?$basic_string@EU?$char_traits@E@std@@V?$allocator@E@2@@std@@@2@V?$allocator@U?$pair@$$CBV?$basic_string@EU?$char_traits@E@std@@V?$allocator@E@2@@std@@Uoutpipe_t@stream_t@zmq@@@std@@@2@$0A@@std@@@std@@IEAAXPEAU?$_Tree_node@U?$pair@$$CBV?$basic_string@EU?$char_traits@E@std@@V?$allocator@E@2@@std@@Uoutpipe_t@stream_t@zmq@@@std@@PEAX@2@@Z 0000000180027ee0 f i libzmq:stream.obj
 0001:00026ee0       ?_Rrotate@?$_Tree@V?$_Tset_traits@V?$basic_string@DU?$char_traits@D@std@@V?$allocator@D@2@@std@@U?$less@V?$basic_string@DU?$char_traits@D@std@@V?$allocator@D@2@@std@@@2@V?$allocator@V?$basic_string@DU?$char_traits@D@std@@V?$allocator@D@2@@std@@@2@$0A@@std@@@std@@IEAAXPEAU?$_Tree_node@V?$basic_string@DU?$char_traits@D@std@@V?$allocator@D@2@@std@@PEAX@2@@Z 0000000180027ee0 f i libzmq:dish.obj
 0001:00026ee0       ?_Rrotate@?$_Tree@V?$_Tmap_traits@V?$basic_string@DU?$char_traits@D@std@@V?$allocator@D@2@@std@@Upending_connection_t@ctx_t@zmq@@U?$less@V?$basic_string@DU?$char_traits@D@std@@V?$allocator@D@2@@std@@@2@V?$allocator@U?$pair@$$CBV?$basic_string@DU?$char_traits@D@std@@V?$allocator@D@2@@std@@Upending_connection_t@ctx_t@zmq@@@std@@@2@$00@std@@@std@@IEAAXPEAU?$_Tree_node@U?$pair@$$CBV?$basic_string@DU?$char_traits@D@std@@V?$allocator@D@2@@std@@Upending_connection_t@ctx_t@zmq@@@std@@PEAX@2@@Z 0000000180027ee0 f i libzmq:ctx.obj
 0001:00026ee0       ?_Rrotate@?$_Tree@V?$_Tset_traits@PEAVown_t@zmq@@U?$less@PEAVown_t@zmq@@@std@@V?$allocator@PEAVown_t@zmq@@@4@$0A@@std@@@std@@IEAAXPEAU?$_Tree_node@PEAVown_t@zmq@@PEAX@2@@Z 0000000180027ee0 f i libzmq:own.obj
 0001:00026ee0       ?_Rrotate@?$_Tree@V?$_Tmap_traits@IUoutpipe_t@server_t@zmq@@U?$less@I@std@@V?$allocator@U?$pair@$$CBIUoutpipe_t@server_t@zmq@@@std@@@5@$0A@@std@@@std@@IEAAXPEAU?$_Tree_node@U?$pair@$$CBIUoutpipe_t@server_t@zmq@@@std@@PEAX@2@@Z 0000000180027ee0 f i libzmq:server.obj
 0001:00026f40       ?add_fd@select_t@zmq@@QEAA_K_KPEAUi_poll_events@2@@Z 0000000180027f40 f   libzmq:select.obj
 0001:00027120       ?allocate@?$allocator@Ufd_entry_t@select_t@zmq@@@std@@QEAAPEAUfd_entry_t@select_t@zmq@@_K@Z 0000000180028120 f i libzmq:select.obj
 0001:000271a0       ?deallocate@?$_Wrap_alloc@V?$allocator@Ufd_entry_t@select_t@zmq@@@std@@@std@@QEAAXPEAUfd_entry_t@select_t@zmq@@_K@Z 00000001800281a0 f i libzmq:select.obj
 0001:00027210       ?erase@?$_Tree@V?$_Tmap_traits@GUfamily_entry_t@select_t@zmq@@U?$less@G@std@@V?$allocator@U?$pair@$$CBGUfamily_entry_t@select_t@zmq@@@std@@@5@$0A@@std@@@std@@QEAA?AV?$_Tree_iterator@V?$_Tree_val@U?$_Tree_simple_types@U?$pair@$$CBGUfamily_entry_t@select_t@zmq@@@std@@@std@@@std@@@2@V?$_Tree_const_iterator@V?$_Tree_val@U?$_Tree_simple_types@U?$pair@$$CBGUfamily_entry_t@select_t@zmq@@@std@@@std@@@std@@@2@0@Z 0000000180028210 f i libzmq:select.obj
 0001:00027300       ?erase@?$_Tree@V?$_Tmap_traits@GUfamily_entry_t@select_t@zmq@@U?$less@G@std@@V?$allocator@U?$pair@$$CBGUfamily_entry_t@select_t@zmq@@@std@@@5@$0A@@std@@@std@@QEAA?AV?$_Tree_iterator@V?$_Tree_val@U?$_Tree_simple_types@U?$pair@$$CBGUfamily_entry_t@select_t@zmq@@@std@@@std@@@std@@@2@V?$_Tree_const_iterator@V?$_Tree_val@U?$_Tree_simple_types@U?$pair@$$CBGUfamily_entry_t@select_t@zmq@@@std@@@std@@@std@@@2@@Z 0000000180028300 f i libzmq:select.obj
 0001:00027780       ?get_fd_family@select_t@zmq@@CAG_K@Z 0000000180028780 f   libzmq:select.obj
 0001:00027840       ?is_retired_fd@select_t@zmq@@CA_NAEBUfd_entry_t@12@@Z 0000000180028840 f   libzmq:select.obj
 0001:00027850       ?loop@select_t@zmq@@AEAAXXZ 0000000180028850 f   libzmq:select.obj
 0001:00027e60       ?max_fds@select_t@zmq@@SAHXZ 0000000180028e60 f   libzmq:select.obj
 0001:00027e70       ?remove_fd@fds_set_t@select_t@zmq@@QEAAXAEB_K@Z 0000000180028e70 f   libzmq:select.obj
 0001:00027fa0       ?reset_pollin@select_t@zmq@@QEAAX_K@Z 0000000180028fa0 f   libzmq:select.obj
 0001:00028350       ?reset_pollout@select_t@zmq@@QEAAX_K@Z 0000000180029350 f   libzmq:select.obj
 0001:00028710       ?rm_fd@select_t@zmq@@QEAAX_K@Z 0000000180029710 f   libzmq:select.obj
 0001:00028910       ?set_pollin@select_t@zmq@@QEAAX_K@Z 0000000180029910 f   libzmq:select.obj
 0001:00028ca0       ?set_pollout@select_t@zmq@@QEAAX_K@Z 0000000180029ca0 f   libzmq:select.obj
 0001:00029040       ?start@select_t@zmq@@QEAAXXZ 000000018002a040 f   libzmq:select.obj
 0001:00029060       ?stop@select_t@zmq@@QEAAXXZ 000000018002a060 f   libzmq:select.obj
 0001:00029070       ?worker_routine@select_t@zmq@@CAXPEAX@Z 000000018002a070 f   libzmq:select.obj
 0001:00029080       ??0?$ypipe_conflate_t@Vmsg_t@zmq@@@zmq@@QEAA@XZ 000000018002a080 f i libzmq:pipe.obj
 0001:00029110       ??0?$ypipe_t@Vmsg_t@zmq@@$0BAA@@zmq@@QEAA@XZ 000000018002a110 f i libzmq:pipe.obj
 0001:00029190       ??0?$yqueue_t@Vmsg_t@zmq@@$0BAA@@zmq@@QEAA@XZ 000000018002a190 f i libzmq:pipe.obj
 0001:00029220       ??0pipe_t@zmq@@AEAA@PEAVobject_t@1@PEAV?$ypipe_base_t@Vmsg_t@zmq@@@1@1HH_N@Z 000000018002a220 f   libzmq:pipe.obj
 0001:00029330       ??1?$basic_string@EU?$char_traits@E@std@@V?$allocator@E@2@@std@@QEAA@XZ 000000018002a330 f i libzmq:pipe.obj
 0001:00029330       ??1?$basic_string@DU?$char_traits@D@std@@V?$allocator@D@2@@std@@QEAA@XZ 000000018002a330 f i libzmq:ctx.obj
 0001:000293c0       ??1?$ypipe_base_t@Vmsg_t@zmq@@@zmq@@UEAA@XZ 000000018002a3c0 f i libzmq:pipe.obj
 0001:000293d0       ??1?$yqueue_t@Vmsg_t@zmq@@$0BAA@@zmq@@QEAA@XZ 000000018002a3d0 f i libzmq:pipe.obj
 0001:00029420       ??1pipe_t@zmq@@EEAA@XZ     000000018002a420 f   libzmq:pipe.obj
 0001:000294a0       ??4?$basic_string@EU?$char_traits@E@std@@V?$allocator@E@2@@std@@QEAAAEAV01@$$QEAV01@@Z 000000018002a4a0 f i libzmq:pipe.obj
 0001:00029558       ??_Epipe_t@zmq@@GBI@EAAPEAXI@Z 000000018002a558 f i libzmq:pipe.obj
 0001:00029564       ??_Epipe_t@zmq@@GCI@EAAPEAXI@Z 000000018002a564 f i libzmq:pipe.obj
 0001:00029570       ??_Epipe_t@zmq@@GDI@EAAPEAXI@Z 000000018002a570 f i libzmq:pipe.obj
 0001:00029580       ??_G?$array_item_t@$00@zmq@@UEAAPEAXI@Z 000000018002a580 f i libzmq:pipe.obj
 0001:00029580       ??_E?$array_item_t@$00@zmq@@UEAAPEAXI@Z 000000018002a580 f i libzmq:pipe.obj
 0001:000295b0       ??_E?$array_item_t@$01@zmq@@UEAAPEAXI@Z 000000018002a5b0 f i libzmq:pipe.obj
 0001:000295b0       ??_G?$array_item_t@$01@zmq@@UEAAPEAXI@Z 000000018002a5b0 f i libzmq:pipe.obj
 0001:000295e0       ??_G?$array_item_t@$02@zmq@@UEAAPEAXI@Z 000000018002a5e0 f i libzmq:pipe.obj
 0001:000295e0       ??_E?$array_item_t@$02@zmq@@UEAAPEAXI@Z 000000018002a5e0 f i libzmq:pipe.obj
 0001:00029610       ??_E?$ypipe_base_t@Vmsg_t@zmq@@@zmq@@UEAAPEAXI@Z 000000018002a610 f i libzmq:pipe.obj
 0001:00029610       ??_G?$ypipe_base_t@Vmsg_t@zmq@@@zmq@@UEAAPEAXI@Z 000000018002a610 f i libzmq:pipe.obj
 0001:00029640       ??_G?$ypipe_conflate_t@Vmsg_t@zmq@@@zmq@@UEAAPEAXI@Z 000000018002a640 f i libzmq:pipe.obj
 0001:00029640       ??_E?$ypipe_conflate_t@Vmsg_t@zmq@@@zmq@@UEAAPEAXI@Z 000000018002a640 f i libzmq:pipe.obj
 0001:000296c0       ??_E?$ypipe_t@Vmsg_t@zmq@@$0BAA@@zmq@@UEAAPEAXI@Z 000000018002a6c0 f i libzmq:pipe.obj
 0001:000296c0       ??_G?$ypipe_t@Vmsg_t@zmq@@$0BAA@@zmq@@UEAAPEAXI@Z 000000018002a6c0 f i libzmq:pipe.obj
 0001:00029750       ??_Gpipe_t@zmq@@EEAAPEAXI@Z 000000018002a750 f i libzmq:pipe.obj
 0001:00029750       ??_Epipe_t@zmq@@EEAAPEAXI@Z 000000018002a750 f i libzmq:pipe.obj
 0001:00029790       ?_Assign_rv@?$basic_string@EU?$char_traits@E@std@@V?$allocator@E@2@@std@@QEAAX$$QEAV12@@Z 000000018002a790 f i libzmq:pipe.obj
 0001:00029810       ?_Copy@?$basic_string@EU?$char_traits@E@std@@V?$allocator@E@2@@std@@QEAAX_K0@Z 000000018002a810 f i libzmq:pipe.obj
 0001:000299c0       ?assign@?$basic_string@EU?$char_traits@E@std@@V?$allocator@E@2@@std@@QEAAAEAV12@AEBV12@_K1@Z 000000018002a9c0 f i libzmq:pipe.obj
 0001:00029b00       ?assign@?$basic_string@EU?$char_traits@E@std@@V?$allocator@E@2@@std@@QEAAAEAV12@PEBE_K@Z 000000018002ab00 f i libzmq:pipe.obj
 0001:00029c50       ?check_hwm@pipe_t@zmq@@QEBA_NXZ 000000018002ac50 f   libzmq:pipe.obj
 0001:00029c80       ?check_read@?$ypipe_conflate_t@Vmsg_t@zmq@@@zmq@@UEAA_NXZ 000000018002ac80 f i libzmq:pipe.obj
 0001:00029ce0       ?check_read@?$ypipe_t@Vmsg_t@zmq@@$0BAA@@zmq@@UEAA_NXZ 000000018002ace0 f i libzmq:pipe.obj
 0001:00029ce0       ?check_read@?$ypipe_t@Ucommand_t@zmq@@$0BA@@zmq@@UEAA_NXZ 000000018002ace0 f i libzmq:mailbox.obj
 0001:00029d40       ?check_read@pipe_t@zmq@@QEAA_NXZ 000000018002ad40 f   libzmq:pipe.obj
 0001:00029e20       ?check_write@pipe_t@zmq@@QEAA_NXZ 000000018002ae20 f   libzmq:pipe.obj
 0001:00029e60       ?compute_lwm@pipe_t@zmq@@CAHH@Z 000000018002ae60 f   libzmq:pipe.obj
 0001:00029e70       ?erase@?$basic_string@EU?$char_traits@E@std@@V?$allocator@E@2@@std@@QEAAAEAV12@_K0@Z 000000018002ae70 f i libzmq:pipe.obj
 0001:00029f40       ?flush@?$ypipe_conflate_t@Vmsg_t@zmq@@@zmq@@UEAA_NXZ 000000018002af40 f i libzmq:pipe.obj
 0001:00029f50       ?flush@pipe_t@zmq@@QEAAXXZ 000000018002af50 f   libzmq:pipe.obj
 0001:00029f90       ?get_credential@pipe_t@zmq@@QEBA?AV?$basic_string@EU?$char_traits@E@std@@V?$allocator@E@2@@std@@XZ 000000018002af90 f   libzmq:pipe.obj
 0001:00029fd0       ?get_identity@pipe_t@zmq@@QEAA?AV?$basic_string@EU?$char_traits@E@std@@V?$allocator@E@2@@std@@XZ 000000018002afd0 f   libzmq:pipe.obj
 0001:0002a010       ?get_routing_id@pipe_t@zmq@@QEAAIXZ 000000018002b010 f   libzmq:pipe.obj
 0001:0002a020       ?hiccup@pipe_t@zmq@@QEAAXXZ 000000018002b020 f   libzmq:pipe.obj
 0001:0002a110       ?is_delimiter@pipe_t@zmq@@CA_NAEBVmsg_t@2@@Z 000000018002b110 f   libzmq:pipe.obj
 0001:0002a120       ?move@?$_Char_traits@EJ@std@@SAPEAEPEAEPEBE_K@Z 000000018002b120 f i libzmq:pipe.obj
 0001:0002a190       ?pipepair@zmq@@YAHQEAPEAVobject_t@1@QEAPEAVpipe_t@1@QEAHQEA_N@Z 000000018002b190 f   libzmq:pipe.obj
 0001:0002a460       ?probe@?$ypipe_conflate_t@Vmsg_t@zmq@@@zmq@@UEAA_NP6A_NAEBVmsg_t@2@@Z@Z 000000018002b460 f i libzmq:pipe.obj
 0001:0002a4c0       ?probe@?$ypipe_t@Vmsg_t@zmq@@$0BAA@@zmq@@UEAA_NP6A_NAEBVmsg_t@2@@Z@Z 000000018002b4c0 f i libzmq:pipe.obj
 0001:0002a4c0       ?probe@?$ypipe_t@Ucommand_t@zmq@@$0BA@@zmq@@UEAA_NP6A_NAEBUcommand_t@2@@Z@Z 000000018002b4c0 f i libzmq:mailbox.obj
 0001:0002a550       ?process_activate_read@pipe_t@zmq@@EEAAXXZ 000000018002b550 f   libzmq:pipe.obj
 0001:0002a580       ?process_activate_write@pipe_t@zmq@@EEAAX_K@Z 000000018002b580 f   libzmq:pipe.obj
 0001:0002a5b0       ?process_delimiter@pipe_t@zmq@@AEAAXXZ 000000018002b5b0 f   libzmq:pipe.obj
 0001:0002a660       ?process_hiccup@pipe_t@zmq@@EEAAXPEAX@Z 000000018002b660 f   libzmq:pipe.obj
 0001:0002a840       ?process_pipe_term@pipe_t@zmq@@EEAAXXZ 000000018002b840 f   libzmq:pipe.obj
 0001:0002a910       ?process_pipe_term_ack@pipe_t@zmq@@EEAAXXZ 000000018002b910 f   libzmq:pipe.obj
 0001:0002ab00       ?push@?$yqueue_t@Vmsg_t@zmq@@$0BAA@@zmq@@QEAAXXZ 000000018002bb00 f i libzmq:pipe.obj
 0001:0002abe0       ?read@?$dbuffer_t@Vmsg_t@zmq@@@zmq@@QEAA_NPEAVmsg_t@2@@Z 000000018002bbe0 f i libzmq:pipe.obj
 0001:0002acf0       ?read@?$ypipe_conflate_t@Vmsg_t@zmq@@@zmq@@UEAA_NPEAVmsg_t@2@@Z 000000018002bcf0 f i libzmq:pipe.obj
 0001:0002ad30       ?read@?$ypipe_t@Vmsg_t@zmq@@$0BAA@@zmq@@UEAA_NPEAVmsg_t@2@@Z 000000018002bd30 f i libzmq:pipe.obj
 0001:0002adc0       ?read@pipe_t@zmq@@QEAA_NPEAVmsg_t@2@@Z 000000018002bdc0 f   libzmq:pipe.obj
 0001:0002afd0       ?rollback@pipe_t@zmq@@QEAAXXZ 000000018002bfd0 f   libzmq:pipe.obj
 0001:0002b110       ?set_event_sink@pipe_t@zmq@@QEAAXPEAUi_pipe_events@2@@Z 000000018002c110 f   libzmq:pipe.obj
 0001:0002b1a0       ?set_hwms@pipe_t@zmq@@QEAAXHH@Z 000000018002c1a0 f   libzmq:pipe.obj
 0001:0002b1f0       ?set_hwms_boost@pipe_t@zmq@@QEAAXHH@Z 000000018002c1f0 f   libzmq:pipe.obj
 0001:0002b200       ?set_identity@pipe_t@zmq@@QEAAXAEBV?$basic_string@EU?$char_traits@E@std@@V?$allocator@E@2@@std@@@Z 000000018002c200 f   libzmq:pipe.obj
 0001:0002b220       ?set_nodelay@pipe_t@zmq@@QEAAXXZ 000000018002c220 f   libzmq:pipe.obj
 0001:0002b230       ?set_peer@pipe_t@zmq@@AEAAXPEAV12@@Z 000000018002c230 f   libzmq:pipe.obj
 0001:0002b2c0       ?set_routing_id@pipe_t@zmq@@QEAAXI@Z 000000018002c2c0 f   libzmq:pipe.obj
 0001:0002b2d0       ?terminate@pipe_t@zmq@@QEAAX_N@Z 000000018002c2d0 f   libzmq:pipe.obj
 0001:0002b400       ?unpush@?$yqueue_t@Vmsg_t@zmq@@$0BAA@@zmq@@QEAAXXZ 000000018002c400 f i libzmq:pipe.obj
 0001:0002b480       ?unwrite@?$ypipe_t@Vmsg_t@zmq@@$0BAA@@zmq@@UEAA_NPEAVmsg_t@2@@Z 000000018002c480 f i libzmq:pipe.obj
 0001:0002b500       ?write@?$dbuffer_t@Vmsg_t@zmq@@@zmq@@QEAAXAEBVmsg_t@2@@Z 000000018002c500 f i libzmq:pipe.obj
 0001:0002b630       ?write@?$ypipe_conflate_t@Vmsg_t@zmq@@@zmq@@UEAAXAEBVmsg_t@2@_N@Z 000000018002c630 f i libzmq:pipe.obj
 0001:0002b640       ?write@?$ypipe_t@Vmsg_t@zmq@@$0BAA@@zmq@@UEAAXAEBVmsg_t@2@_N@Z 000000018002c640 f i libzmq:pipe.obj
 0001:0002b6c0       ?write@pipe_t@zmq@@QEAA_NPEAVmsg_t@2@@Z 000000018002c6c0 f   libzmq:pipe.obj
 0001:0002b740       ??0io_thread_t@zmq@@QEAA@PEAVctx_t@1@I@Z 000000018002c740 f   libzmq:io_thread.obj
 0001:0002b840       ??1io_thread_t@zmq@@UEAA@XZ 000000018002c840 f   libzmq:io_thread.obj
 0001:0002b8a0       ??_Eio_thread_t@zmq@@WBI@EAAPEAXI@Z 000000018002c8a0 f i libzmq:io_thread.obj
 0001:0002b8b0       ??_Gio_thread_t@zmq@@UEAAPEAXI@Z 000000018002c8b0 f i libzmq:io_thread.obj
 0001:0002b8b0       ??_Eio_thread_t@zmq@@UEAAPEAXI@Z 000000018002c8b0 f i libzmq:io_thread.obj
 0001:0002b8f0       ?get_load@io_thread_t@zmq@@QEAAHXZ 000000018002c8f0 f   libzmq:io_thread.obj
 0001:0002b900       ?get_poller@io_thread_t@zmq@@QEAAPEAVselect_t@2@XZ 000000018002c900 f   libzmq:io_thread.obj
 0001:0002b980       ?in_event@io_thread_t@zmq@@UEAAXXZ 000000018002c980 f   libzmq:io_thread.obj
 0001:0002ba40       ?out_event@io_thread_t@zmq@@UEAAXXZ 000000018002ca40 f   libzmq:io_thread.obj
 0001:0002baa0       ?process_stop@io_thread_t@zmq@@UEAAXXZ 000000018002caa0 f   libzmq:io_thread.obj
 0001:0002bad0       ?timer_event@io_thread_t@zmq@@UEAAXH@Z 000000018002cad0 f   libzmq:io_thread.obj
 0001:0002bb30       ??0reaper_t@zmq@@QEAA@PEAVctx_t@1@I@Z 000000018002cb30 f   libzmq:reaper.obj
 0001:0002bc60       ??1reaper_t@zmq@@UEAA@XZ   000000018002cc60 f   libzmq:reaper.obj
 0001:0002bcc0       ??_Ereaper_t@zmq@@WBI@EAAPEAXI@Z 000000018002ccc0 f i libzmq:reaper.obj
 0001:0002bcd0       ??_Ereaper_t@zmq@@UEAAPEAXI@Z 000000018002ccd0 f i libzmq:reaper.obj
 0001:0002bcd0       ??_Greaper_t@zmq@@UEAAPEAXI@Z 000000018002ccd0 f i libzmq:reaper.obj
 0001:0002bd10       ?in_event@reaper_t@zmq@@UEAAXXZ 000000018002cd10 f   libzmq:reaper.obj
 0001:0002bde0       ?out_event@reaper_t@zmq@@UEAAXXZ 000000018002cde0 f   libzmq:reaper.obj
 0001:0002be40       ?process_reap@reaper_t@zmq@@EEAAXPEAVsocket_base_t@2@@Z 000000018002ce40 f   libzmq:reaper.obj
 0001:0002be70       ?process_reaped@reaper_t@zmq@@EEAAXXZ 000000018002ce70 f   libzmq:reaper.obj
 0001:0002bec0       ?process_stop@reaper_t@zmq@@EEAAXXZ 000000018002cec0 f   libzmq:reaper.obj
 0001:0002bf10       ?start@reaper_t@zmq@@QEAAXXZ 000000018002cf10 f   libzmq:reaper.obj
 0001:0002bf10       ?start@io_thread_t@zmq@@QEAAXXZ 000000018002cf10 f   libzmq:io_thread.obj
 0001:0002bf20       ?stop@io_thread_t@zmq@@QEAAXXZ 000000018002cf20 f   libzmq:io_thread.obj
 0001:0002bf20       ?stop@socket_base_t@zmq@@QEAAXXZ 000000018002cf20 f   libzmq:socket_base.obj
 0001:0002bf20       ?stop@reaper_t@zmq@@QEAAXXZ 000000018002cf20 f   libzmq:reaper.obj
 0001:0002bf30       ?timer_event@reaper_t@zmq@@UEAAXH@Z 000000018002cf30 f   libzmq:reaper.obj
 0001:0002bf90       ??0signaler_t@zmq@@QEAA@XZ 000000018002cf90 f   libzmq:signaler.obj
 0001:0002bfd0       ??1signaler_t@zmq@@QEAA@XZ 000000018002cfd0 f   libzmq:signaler.obj
 0001:0002c170       ?make_fdpair@signaler_t@zmq@@CAHPEA_K0@Z 000000018002d170 f   libzmq:signaler.obj
 0001:0002c7e0       ?recv@signaler_t@zmq@@QEAAXXZ 000000018002d7e0 f   libzmq:signaler.obj
 0001:0002c910       ?recv_failable@signaler_t@zmq@@QEAAHXZ 000000018002d910 f   libzmq:signaler.obj
 0001:0002ca60       ?send@signaler_t@zmq@@QEAAXXZ 000000018002da60 f   libzmq:signaler.obj
 0001:0002cb40       ?wait@signaler_t@zmq@@QEAAHH@Z 000000018002db40 f   libzmq:signaler.obj
 0001:0002ccb0       ??0tcp_listener_t@zmq@@QEAA@PEAVio_thread_t@1@PEAVsocket_base_t@1@AEBUoptions_t@1@@Z 000000018002dcb0 f   libzmq:tcp_listener.obj
 0001:0002cd70       ??1tcp_listener_t@zmq@@UEAA@XZ 000000018002dd70 f   libzmq:tcp_listener.obj
 0001:0002ce34       ??_Etcp_listener_t@zmq@@WDCI@EAAPEAXI@Z 000000018002de34 f i libzmq:tcp_listener.obj
 0001:0002ce40       ??_Etcp_listener_t@zmq@@UEAAPEAXI@Z 000000018002de40 f i libzmq:tcp_listener.obj
 0001:0002ce40       ??_Gtcp_listener_t@zmq@@UEAAPEAXI@Z 000000018002de40 f i libzmq:tcp_listener.obj
 0001:0002ce80       ?accept@tcp_listener_t@zmq@@AEAA_KXZ 000000018002de80 f   libzmq:tcp_listener.obj
 0001:0002d170       ?close@tcp_listener_t@zmq@@AEAAXXZ 000000018002e170 f   libzmq:tcp_listener.obj
 0001:0002d270       ?get_address@tcp_listener_t@zmq@@QEAAHAEAV?$basic_string@DU?$char_traits@D@std@@V?$allocator@D@2@@std@@@Z 000000018002e270 f   libzmq:tcp_listener.obj
 0001:0002d320       ?in_event@tcp_listener_t@zmq@@EEAAXXZ 000000018002e320 f   libzmq:tcp_listener.obj
 0001:0002d570       ?process_plug@tcp_listener_t@zmq@@EEAAXXZ 000000018002e570 f   libzmq:tcp_listener.obj
 0001:0002d5b0       ?process_term@tcp_listener_t@zmq@@EEAAXH@Z 000000018002e5b0 f   libzmq:tcp_listener.obj
 0001:0002d5f0       ?set_address@tcp_listener_t@zmq@@QEAAHPEBD@Z 000000018002e5f0 f   libzmq:tcp_listener.obj
 0001:0002d920       ??$_Buynode@AEBQEAVpipe_t@zmq@@@?$_Tree_comp_alloc@V?$_Tset_traits@PEAVpipe_t@zmq@@U?$less@PEAVpipe_t@zmq@@@std@@V?$allocator@PEAVpipe_t@zmq@@@4@$0A@@std@@@std@@QEAAPEAU?$_Tree_node@PEAVpipe_t@zmq@@PEAX@1@AEBQEAVpipe_t@zmq@@@Z 000000018002e920 f i libzmq:session_base.obj
 0001:0002d960       ??$_Distance1@V?$_Tree_const_iterator@V?$_Tree_val@U?$_Tree_simple_types@PEAVpipe_t@zmq@@@std@@@std@@@std@@@std@@YA_JV?$_Tree_const_iterator@V?$_Tree_val@U?$_Tree_simple_types@PEAVpipe_t@zmq@@@std@@@std@@@0@0Uinput_iterator_tag@0@@Z 000000018002e960 f i libzmq:session_base.obj
 0001:0002d9e0       ??$_Insert_at@AEBQEAVpipe_t@zmq@@U_Nil@std@@@?$_Tree@V?$_Tset_traits@PEAVpipe_t@zmq@@U?$less@PEAVpipe_t@zmq@@@std@@V?$allocator@PEAVpipe_t@zmq@@@4@$0A@@std@@@std@@IEAA?AV?$_Tree_const_iterator@V?$_Tree_val@U?$_Tree_simple_types@PEAVpipe_t@zmq@@@std@@@std@@@1@_NPEAU?$_Tree_node@PEAVpipe_t@zmq@@PEAX@1@AEBQEAVpipe_t@zmq@@U_Nil@1@@Z 000000018002e9e0 f i libzmq:session_base.obj
 0001:0002dcb0       ??$_Insert_nohint@AEBQEAVpipe_t@zmq@@U_Nil@std@@@?$_Tree@V?$_Tset_traits@PEAVpipe_t@zmq@@U?$less@PEAVpipe_t@zmq@@@std@@V?$allocator@PEAVpipe_t@zmq@@@4@$0A@@std@@@std@@IEAA?AU?$pair@V?$_Tree_const_iterator@V?$_Tree_val@U?$_Tree_simple_types@PEAVpipe_t@zmq@@@std@@@std@@@std@@_N@1@_NAEBQEAVpipe_t@zmq@@U_Nil@1@@Z 000000018002ecb0 f i libzmq:session_base.obj
 0001:0002de10       ??0session_base_t@zmq@@IEAA@PEAVio_thread_t@1@_NPEAVsocket_base_t@1@AEBUoptions_t@1@PEAUaddress_t@1@@Z 000000018002ee10 f   libzmq:session_base.obj
 0001:0002df00       ??1session_base_t@zmq@@MEAA@XZ 000000018002ef00 f   libzmq:session_base.obj
 0001:0002e0bc       ??_Esession_base_t@zmq@@ODCI@EAAPEAXI@Z 000000018002f0bc f i libzmq:session_base.obj
 0001:0002e0c8       ??_Esession_base_t@zmq@@ODDI@EAAPEAXI@Z 000000018002f0c8 f i libzmq:session_base.obj
 0001:0002e0e0       ??_Gsession_base_t@zmq@@MEAAPEAXI@Z 000000018002f0e0 f i libzmq:session_base.obj
 0001:0002e0e0       ??_Esession_base_t@zmq@@MEAAPEAXI@Z 000000018002f0e0 f i libzmq:session_base.obj
 0001:0002e120       ?_Buyheadnode@?$_Tree_comp_alloc@V?$_Tset_traits@PEAVpipe_t@zmq@@U?$less@PEAVpipe_t@zmq@@@std@@V?$allocator@PEAVpipe_t@zmq@@@4@$0A@@std@@@std@@QEAAPEAU?$_Tree_node@PEAVpipe_t@zmq@@PEAX@2@XZ 000000018002f120 f i libzmq:session_base.obj
 0001:0002e180       ?_Buynode0@?$_Tree_comp_alloc@V?$_Tset_traits@PEAVpipe_t@zmq@@U?$less@PEAVpipe_t@zmq@@@std@@V?$allocator@PEAVpipe_t@zmq@@@4@$0A@@std@@@std@@QEAAPEAU?$_Tree_node@PEAVpipe_t@zmq@@PEAX@2@XZ 000000018002f180 f i libzmq:session_base.obj
 0001:0002e1e0       ?attach_pipe@session_base_t@zmq@@QEAAXPEAVpipe_t@2@@Z 000000018002f1e0 f   libzmq:session_base.obj
 0001:0002e310       ?clean_pipes@session_base_t@zmq@@AEAAXXZ 000000018002f310 f   libzmq:session_base.obj
 0001:0002e510       ?clear@?$_Tree@V?$_Tset_traits@PEAVpipe_t@zmq@@U?$less@PEAVpipe_t@zmq@@@std@@V?$allocator@PEAVpipe_t@zmq@@@4@$0A@@std@@@std@@QEAAXXZ 000000018002f510 f i libzmq:session_base.obj
 0001:0002e590       ?create@session_base_t@zmq@@SAPEAV12@PEAVio_thread_t@2@_NPEAVsocket_base_t@2@AEBUoptions_t@2@PEAUaddress_t@2@@Z 000000018002f590 f   libzmq:session_base.obj
 0001:0002e7b0       ?engine_error@session_base_t@zmq@@QEAAXW4error_reason_t@stream_engine_t@2@@Z 000000018002f7b0 f   libzmq:session_base.obj
 0001:0002e880       ?erase@?$_Tree@V?$_Tset_traits@PEAVpipe_t@zmq@@U?$less@PEAVpipe_t@zmq@@@std@@V?$allocator@PEAVpipe_t@zmq@@@4@$0A@@std@@@std@@QEAA?AV?$_Tree_const_iterator@V?$_Tree_val@U?$_Tree_simple_types@PEAVpipe_t@zmq@@@std@@@std@@@2@V32@0@Z 000000018002f880 f i libzmq:session_base.obj
 0001:0002e960       ?erase@?$_Tree@V?$_Tset_traits@PEAVpipe_t@zmq@@U?$less@PEAVpipe_t@zmq@@@std@@V?$allocator@PEAVpipe_t@zmq@@@4@$0A@@std@@@std@@QEAA_KAEBQEAVpipe_t@zmq@@@Z 000000018002f960 f i libzmq:session_base.obj
 0001:0002ea30       ?flush@session_base_t@zmq@@QEAAXXZ 000000018002fa30 f   libzmq:session_base.obj
 0001:0002ea50       ?get_socket@session_base_t@zmq@@QEAAPEAVsocket_base_t@2@XZ 000000018002fa50 f   libzmq:session_base.obj
 0001:0002ea60       ?hiccuped@session_base_t@zmq@@UEAAXPEAVpipe_t@2@@Z 000000018002fa60 f   libzmq:session_base.obj
 0001:0002eac0       ?pipe_terminated@session_base_t@zmq@@UEAAXPEAVpipe_t@2@@Z 000000018002fac0 f   libzmq:session_base.obj
 0001:0002ecc0       ?process_attach@session_base_t@zmq@@EEAAXPEAUi_engine@2@@Z 000000018002fcc0 f   libzmq:session_base.obj
 0001:0002ef20       ?process_plug@session_base_t@zmq@@EEAAXXZ 000000018002ff20 f   libzmq:session_base.obj
 0001:0002ef40       ?process_term@session_base_t@zmq@@EEAAXH@Z 000000018002ff40 f   libzmq:session_base.obj
 0001:0002f0b0       ?pull_msg@session_base_t@zmq@@UEAAHPEAVmsg_t@2@@Z 00000001800300b0 f   libzmq:session_base.obj
 0001:0002f110       ?push_msg@session_base_t@zmq@@UEAAHPEAVmsg_t@2@@Z 0000000180030110 f   libzmq:session_base.obj
 0001:0002f1d0       ?read_activated@session_base_t@zmq@@UEAAXPEAVpipe_t@2@@Z 00000001800301d0 f   libzmq:session_base.obj
 0001:0002f340       ?read_zap_msg@session_base_t@zmq@@QEAAHPEAVmsg_t@2@@Z 0000000180030340 f   libzmq:session_base.obj
 0001:0002f390       ?reconnect@session_base_t@zmq@@AEAAXXZ 0000000180030390 f   libzmq:session_base.obj
 0001:0002f560       ?start_connecting@session_base_t@zmq@@AEAAX_N@Z 0000000180030560 f   libzmq:session_base.obj
 0001:0002fab0       ?timer_event@session_base_t@zmq@@EEAAXH@Z 0000000180030ab0 f   libzmq:session_base.obj
 0001:0002fb80       ?write_activated@session_base_t@zmq@@UEAAXPEAVpipe_t@2@@Z 0000000180030b80 f   libzmq:session_base.obj
 0001:0002fcd0       ?write_zap_msg@session_base_t@zmq@@QEAAHPEAVmsg_t@2@@Z 0000000180030cd0 f   libzmq:session_base.obj
 0001:0002fde0       ?zap_connect@session_base_t@zmq@@QEAAHXZ 0000000180030de0 f   libzmq:session_base.obj
 0001:00030100       ?zap_enabled@session_base_t@zmq@@QEAA_NXZ 0000000180031100 f   libzmq:session_base.obj
 0001:00030120       ??$?6DU?$char_traits@D@std@@V?$allocator@D@1@@std@@YAAEAV?$basic_ostream@DU?$char_traits@D@std@@@0@AEAV10@AEBV?$basic_string@DU?$char_traits@D@std@@V?$allocator@D@2@@0@@Z 0000000180031120 f i libzmq:address.obj
 0001:00030370       ??0address_t@zmq@@QEAA@AEBV?$basic_string@DU?$char_traits@D@std@@V?$allocator@D@2@@std@@0PEAVctx_t@1@@Z 0000000180031370 f   libzmq:address.obj
 0001:00030420       ??1address_t@zmq@@QEAA@XZ  0000000180031420 f   libzmq:address.obj
 0001:00030500       ?to_string@address_t@zmq@@QEBAHAEAV?$basic_string@DU?$char_traits@D@std@@V?$allocator@D@2@@std@@@Z 0000000180031500 f   libzmq:address.obj
 0001:00030780       ??0udp_address_t@zmq@@QEAA@XZ 0000000180031780 f   libzmq:udp_address.obj
 0001:000307c0       ??1udp_address_t@zmq@@UEAA@XZ 00000001800317c0 f   libzmq:udp_address.obj
 0001:000307e0       ??_Gudp_address_t@zmq@@UEAAPEAXI@Z 00000001800317e0 f i libzmq:udp_address.obj
 0001:000307e0       ??_Eudp_address_t@zmq@@UEAAPEAXI@Z 00000001800317e0 f i libzmq:udp_address.obj
 0001:00030820       ?bind_addr@udp_address_t@zmq@@QEBAPEBUsockaddr@@XZ 0000000180031820 f   libzmq:udp_address.obj
 0001:00030830       ?get_mailbox@io_thread_t@zmq@@QEAAPEAVmailbox_t@2@XZ 0000000180031830 f   libzmq:io_thread.obj
 0001:00030830       ?dest_addr@udp_address_t@zmq@@QEBAPEBUsockaddr@@XZ 0000000180031830 f   libzmq:udp_address.obj
 0001:00030830       ?get_mailbox@reaper_t@zmq@@QEAAPEAVmailbox_t@2@XZ 0000000180031830 f   libzmq:reaper.obj
 0001:00030840       ?bind_addrlen@udp_address_t@zmq@@QEBAHXZ 0000000180031840 f   libzmq:udp_address.obj
 0001:00030840       ?dest_addrlen@udp_address_t@zmq@@QEBAHXZ 0000000180031840 f   libzmq:udp_address.obj
 0001:00030850       ?family@udp_address_t@zmq@@QEBAGXZ 0000000180031850 f   libzmq:udp_address.obj
 0001:00030860       ?interface_ip@udp_address_t@zmq@@QEBA?BUin_addr@@XZ 0000000180031860 f   libzmq:udp_address.obj
 0001:00030870       ?is_mcast@udp_address_t@zmq@@QEBA_NXZ 0000000180031870 f   libzmq:udp_address.obj
 0001:00030880       ?multicast_ip@udp_address_t@zmq@@QEBA?BUin_addr@@XZ 0000000180031880 f   libzmq:udp_address.obj
 0001:00030890       ?resolve@udp_address_t@zmq@@QEAAHPEBD_N@Z 0000000180031890 f   libzmq:udp_address.obj
 0001:00030b80       ?to_string@udp_address_t@zmq@@UEAAHAEAV?$basic_string@DU?$char_traits@D@std@@V?$allocator@D@2@@std@@@Z 0000000180031b80 f   libzmq:udp_address.obj
 0001:00030bb0       ??0mailbox_safe_t@zmq@@QEAA@PEAVmutex_t@1@@Z 0000000180031bb0 f   libzmq:mailbox_safe.obj
 0001:00030c80       ??1mailbox_safe_t@zmq@@UEAA@XZ 0000000180031c80 f   libzmq:mailbox_safe.obj
 0001:00030d60       ??_Emailbox_safe_t@zmq@@UEAAPEAXI@Z 0000000180031d60 f i libzmq:mailbox_safe.obj
 0001:00030d60       ??_Gmailbox_safe_t@zmq@@UEAAPEAXI@Z 0000000180031d60 f i libzmq:mailbox_safe.obj
 0001:00030da0       ?_Reallocate@?$vector@PEAVsignaler_t@zmq@@V?$allocator@PEAVsignaler_t@zmq@@@std@@@std@@IEAAX_K@Z 0000000180031da0 f i libzmq:mailbox_safe.obj
 0001:00030e30       ?_Reserve@?$vector@PEAVsignaler_t@zmq@@V?$allocator@PEAVsignaler_t@zmq@@@std@@@std@@IEAAX_K@Z 0000000180031e30 f i libzmq:mailbox_safe.obj
 0001:00030ec0       ?add_signaler@mailbox_safe_t@zmq@@QEAAXPEAVsignaler_t@2@@Z 0000000180031ec0 f   libzmq:mailbox_safe.obj
 0001:00030ee0       ?clear_signalers@mailbox_safe_t@zmq@@QEAAXXZ 0000000180031ee0 f   libzmq:mailbox_safe.obj
 0001:00030ef0       ?push_back@?$vector@PEAVsignaler_t@zmq@@V?$allocator@PEAVsignaler_t@zmq@@@std@@@std@@QEAAXAEBQEAVsignaler_t@zmq@@@Z 0000000180031ef0 f i libzmq:mailbox_safe.obj
 0001:00030f80       ?recv@mailbox_safe_t@zmq@@UEAAHPEAUcommand_t@2@H@Z 0000000180031f80 f   libzmq:mailbox_safe.obj
 0001:00031070       ?remove_signaler@mailbox_safe_t@zmq@@QEAAXPEAVsignaler_t@2@@Z 0000000180032070 f   libzmq:mailbox_safe.obj
 0001:000310c0       ?send@mailbox_safe_t@zmq@@UEAAXAEBUcommand_t@2@@Z 00000001800320c0 f   libzmq:mailbox_safe.obj
 0001:00031150       ?wait@condition_variable_t@zmq@@QEAAHPEAVmutex_t@2@H@Z 0000000180032150 f i libzmq:mailbox_safe.obj
 0001:00031220       ??0pair_t@zmq@@QEAA@PEAVctx_t@1@IH@Z 0000000180032220 f   libzmq:pair.obj
 0001:000312a0       ??1pair_t@zmq@@UEAA@XZ     00000001800322a0 f   libzmq:pair.obj
 0001:0003135c       ??_Epair_t@zmq@@WDCI@EAAPEAXI@Z 000000018003235c f i libzmq:pair.obj
 0001:00031368       ??_Epair_t@zmq@@WDDI@EAAPEAXI@Z 0000000180032368 f i libzmq:pair.obj
 0001:00031374       ??_Epair_t@zmq@@WDEA@EAAPEAXI@Z 0000000180032374 f i libzmq:pair.obj
 0001:00031380       ??_Gpair_t@zmq@@UEAAPEAXI@Z 0000000180032380 f i libzmq:pair.obj
 0001:00031380       ??_Epair_t@zmq@@UEAAPEAXI@Z 0000000180032380 f i libzmq:pair.obj
 0001:000313c0       ?get_credential@pair_t@zmq@@UEBA?AV?$basic_string@EU?$char_traits@E@std@@V?$allocator@E@2@@std@@XZ 00000001800323c0 f   libzmq:pair.obj
 0001:00031570       ?xattach_pipe@pair_t@zmq@@UEAAXPEAVpipe_t@2@_N@Z 0000000180032570 f   libzmq:pair.obj
 0001:00031600       ?xhas_in@pair_t@zmq@@UEAA_NXZ 0000000180032600 f   libzmq:pair.obj
 0001:00031600       ?xhas_in@dgram_t@zmq@@UEAA_NXZ 0000000180032600 f   libzmq:dgram.obj
 0001:00031620       ?xpipe_terminated@pair_t@zmq@@UEAAXPEAVpipe_t@2@@Z 0000000180032620 f   libzmq:pair.obj
 0001:00031620       ?xpipe_terminated@dgram_t@zmq@@UEAAXPEAVpipe_t@2@@Z 0000000180032620 f   libzmq:dgram.obj
 0001:000316f0       ?xrecv@pair_t@zmq@@UEAAHPEAVmsg_t@2@@Z 00000001800326f0 f   libzmq:pair.obj
 0001:00031820       ?xsend@pair_t@zmq@@UEAAHPEAVmsg_t@2@@Z 0000000180032820 f   libzmq:pair.obj
 0001:000318f0       ??0xpub_t@zmq@@QEAA@PEAVctx_t@1@IH@Z 00000001800328f0 f   libzmq:xpub.obj
 0001:00031af0       ??1?$deque@EV?$allocator@E@std@@@std@@QEAA@XZ 0000000180032af0 f i libzmq:xpub.obj
 0001:00031af0       ??1?$deque@PEAVmetadata_t@zmq@@V?$allocator@PEAVmetadata_t@zmq@@@std@@@std@@QEAA@XZ 0000000180032af0 f i libzmq:xpub.obj
 0001:00031af0       ??1?$deque@PEAVpipe_t@zmq@@V?$allocator@PEAVpipe_t@zmq@@@std@@@std@@QEAA@XZ 0000000180032af0 f i libzmq:xpub.obj
 0001:00031b20       ??1?$deque@V?$basic_string@EU?$char_traits@E@std@@V?$allocator@E@2@@std@@V?$allocator@V?$basic_string@EU?$char_traits@E@std@@V?$allocator@E@2@@std@@@2@@std@@QEAA@XZ 0000000180032b20 f i libzmq:xpub.obj
 0001:00031b50       ??1xpub_t@zmq@@UEAA@XZ     0000000180032b50 f   libzmq:xpub.obj
 0001:00031c74       ??_Expub_t@zmq@@WDCI@EAAPEAXI@Z 0000000180032c74 f i libzmq:xpub.obj
 0001:00031c80       ??_Expub_t@zmq@@WDDI@EAAPEAXI@Z 0000000180032c80 f i libzmq:xpub.obj
 0001:00031c8c       ??_Expub_t@zmq@@WDEA@EAAPEAXI@Z 0000000180032c8c f i libzmq:xpub.obj
 0001:00031ca0       ??_Gxpub_t@zmq@@UEAAPEAXI@Z 0000000180032ca0 f i libzmq:xpub.obj
 0001:00031ca0       ??_Expub_t@zmq@@UEAAPEAXI@Z 0000000180032ca0 f i libzmq:xpub.obj
 0001:00031ce0       ?_Growmap@?$deque@EV?$allocator@E@std@@@std@@IEAAX_K@Z 0000000180032ce0 f i libzmq:xpub.obj
 0001:00031f40       ?_Growmap@?$deque@PEAVpipe_t@zmq@@V?$allocator@PEAVpipe_t@zmq@@@std@@@std@@IEAAX_K@Z 0000000180032f40 f i libzmq:xpub.obj
 0001:00031f40       ?_Growmap@?$deque@PEAVmetadata_t@zmq@@V?$allocator@PEAVmetadata_t@zmq@@@std@@@std@@IEAAX_K@Z 0000000180032f40 f i libzmq:xpub.obj
 0001:000321a0       ?_Growmap@?$deque@V?$basic_string@EU?$char_traits@E@std@@V?$allocator@E@2@@std@@V?$allocator@V?$basic_string@EU?$char_traits@E@std@@V?$allocator@E@2@@std@@@2@@std@@IEAAX_K@Z 00000001800331a0 f i libzmq:xpub.obj
 0001:000323f0       ?_Tidy@?$deque@EV?$allocator@E@std@@@std@@IEAAXXZ 00000001800333f0 f i libzmq:xpub.obj
 0001:000323f0       ?_Tidy@?$deque@PEAVpipe_t@zmq@@V?$allocator@PEAVpipe_t@zmq@@@std@@@std@@IEAAXXZ 00000001800333f0 f i libzmq:xpub.obj
 0001:000323f0       ?_Tidy@?$deque@PEAVmetadata_t@zmq@@V?$allocator@PEAVmetadata_t@zmq@@@std@@@std@@IEAAXXZ 00000001800333f0 f i libzmq:xpub.obj
 0001:000324e0       ?_Tidy@?$deque@V?$basic_string@EU?$char_traits@E@std@@V?$allocator@E@2@@std@@V?$allocator@V?$basic_string@EU?$char_traits@E@std@@V?$allocator@E@2@@std@@@2@@std@@IEAAXXZ 00000001800334e0 f i libzmq:xpub.obj
 0001:00032670       ?assign@?$basic_string@EU?$char_traits@E@std@@V?$allocator@E@2@@std@@QEAAAEAV12@_KE@Z 0000000180033670 f i libzmq:xpub.obj
 0001:00032780       ?begin@?$deque@PEAVpipe_t@zmq@@V?$allocator@PEAVpipe_t@zmq@@@std@@@std@@QEAA?AV?$_Deque_iterator@V?$_Deque_val@U?$_Deque_simple_types@PEAVpipe_t@zmq@@@std@@@std@@@2@XZ 0000000180033780 f i libzmq:xpub.obj
 0001:00032780       ?begin@?$deque@V?$basic_string@EU?$char_traits@E@std@@V?$allocator@E@2@@std@@V?$allocator@V?$basic_string@EU?$char_traits@E@std@@V?$allocator@E@2@@std@@@2@@std@@QEAA?AV?$_Deque_iterator@V?$_Deque_val@U?$_Deque_simple_types@V?$basic_string@EU?$char_traits@E@std@@V?$allocator@E@2@@std@@@std@@@std@@@2@XZ 0000000180033780 f i libzmq:xpub.obj
 0001:00032780       ?begin@?$deque@PEAVmetadata_t@zmq@@V?$allocator@PEAVmetadata_t@zmq@@@std@@@std@@QEAA?AV?$_Deque_iterator@V?$_Deque_val@U?$_Deque_simple_types@PEAVmetadata_t@zmq@@@std@@@std@@@2@XZ 0000000180033780 f i libzmq:xpub.obj
 0001:00032780       ?begin@?$deque@EV?$allocator@E@std@@@std@@QEAA?AV?$_Deque_iterator@V?$_Deque_val@U?$_Deque_simple_types@E@std@@@std@@@2@XZ 0000000180033780 f i libzmq:xpub.obj
 0001:000327a0       ?front@?$deque@PEAVpipe_t@zmq@@V?$allocator@PEAVpipe_t@zmq@@@std@@@std@@QEAAAEAPEAVpipe_t@zmq@@XZ 00000001800337a0 f i libzmq:xpub.obj
 0001:000327f0       ?mark_as_matching@xpub_t@zmq@@CAXPEAVpipe_t@2@PEAX@Z 00000001800337f0 f   libzmq:xpub.obj
 0001:00032810       ?push_back@?$deque@EV?$allocator@E@std@@@std@@QEAAX$$QEAE@Z 0000000180033810 f i libzmq:xpub.obj
 0001:000328e0       ?push_back@?$deque@PEAVpipe_t@zmq@@V?$allocator@PEAVpipe_t@zmq@@@std@@@std@@QEAAX$$QEAPEAVpipe_t@zmq@@@Z 00000001800338e0 f i libzmq:xpub.obj
 0001:000328e0       ?push_back@?$deque@PEAVmetadata_t@zmq@@V?$allocator@PEAVmetadata_t@zmq@@@std@@@std@@QEAAXAEBQEAVmetadata_t@zmq@@@Z 00000001800338e0 f i libzmq:xpub.obj
 0001:000328e0       ?push_back@?$deque@PEAVmetadata_t@zmq@@V?$allocator@PEAVmetadata_t@zmq@@@std@@@std@@QEAAX$$QEAPEAVmetadata_t@zmq@@@Z 00000001800338e0 f i libzmq:xpub.obj
 0001:000328e0       ?push_back@?$deque@PEAVpipe_t@zmq@@V?$allocator@PEAVpipe_t@zmq@@@std@@@std@@QEAAXAEBQEAVpipe_t@zmq@@@Z 00000001800338e0 f i libzmq:xpub.obj
 0001:000329c0       ?push_back@?$deque@V?$basic_string@EU?$char_traits@E@std@@V?$allocator@E@2@@std@@V?$allocator@V?$basic_string@EU?$char_traits@E@std@@V?$allocator@E@2@@std@@@2@@std@@QEAAX$$QEAV?$basic_string@EU?$char_traits@E@std@@V?$allocator@E@2@@2@@Z 00000001800339c0 f i libzmq:xpub.obj
 0001:00032a80       ?push_back@?$deque@V?$basic_string@EU?$char_traits@E@std@@V?$allocator@E@2@@std@@V?$allocator@V?$basic_string@EU?$char_traits@E@std@@V?$allocator@E@2@@std@@@2@@std@@QEAAXAEBV?$basic_string@EU?$char_traits@E@std@@V?$allocator@E@2@@2@@Z 0000000180033a80 f i libzmq:xpub.obj
 0001:00032b70       ?send_unsubscription@xpub_t@zmq@@CAXPEAE_KPEAX@Z 0000000180033b70 f   libzmq:xpub.obj
 0001:00032d70       ?xattach_pipe@xpub_t@zmq@@UEAAXPEAVpipe_t@2@_N@Z 0000000180033d70 f   libzmq:xpub.obj
 0001:00032e90       ?xhas_in@xpub_t@zmq@@UEAA_NXZ 0000000180033e90 f   libzmq:xpub.obj
 0001:00032ea0       ?xhas_out@xpub_t@zmq@@UEAA_NXZ 0000000180033ea0 f   libzmq:xpub.obj
 0001:00032eb0       ?xpipe_terminated@xpub_t@zmq@@UEAAXPEAVpipe_t@2@@Z 0000000180033eb0 f   libzmq:xpub.obj
 0001:00032f20       ?xread_activated@xpub_t@zmq@@UEAAXPEAVpipe_t@2@@Z 0000000180033f20 f   libzmq:xpub.obj
 0001:00033430       ?xrecv@xpub_t@zmq@@UEAAHPEAVmsg_t@2@@Z 0000000180034430 f   libzmq:xpub.obj
 0001:00033770       ?xsend@xpub_t@zmq@@UEAAHPEAVmsg_t@2@@Z 0000000180034770 f   libzmq:xpub.obj
 0001:00033860       ?xsetsockopt@xpub_t@zmq@@UEAAHHPEBX_K@Z 0000000180034860 f   libzmq:xpub.obj
 0001:00033ab0       ?xwrite_activated@xpub_t@zmq@@UEAAXPEAVpipe_t@2@@Z 0000000180034ab0 f   libzmq:xpub.obj
 0001:00033ac0       ??0pub_t@zmq@@QEAA@PEAVctx_t@1@IH@Z 0000000180034ac0 f   libzmq:pub.obj
 0001:00033b20       ??1pub_t@zmq@@UEAA@XZ      0000000180034b20 f   libzmq:pub.obj
 0001:00033b5c       ??_Epub_t@zmq@@WDCI@EAAPEAXI@Z 0000000180034b5c f i libzmq:pub.obj
 0001:00033b68       ??_Epub_t@zmq@@WDDI@EAAPEAXI@Z 0000000180034b68 f i libzmq:pub.obj
 0001:00033b74       ??_Epub_t@zmq@@WDEA@EAAPEAXI@Z 0000000180034b74 f i libzmq:pub.obj
 0001:00033b80       ??_Gpub_t@zmq@@UEAAPEAXI@Z 0000000180034b80 f i libzmq:pub.obj
 0001:00033b80       ??_Epub_t@zmq@@UEAAPEAXI@Z 0000000180034b80 f i libzmq:pub.obj
 0001:00033bc0       ?xattach_pipe@pub_t@zmq@@UEAAXPEAVpipe_t@2@_N@Z 0000000180034bc0 f   libzmq:pub.obj
 0001:00033c50       ??0xsub_t@zmq@@QEAA@PEAVctx_t@1@IH@Z 0000000180034c50 f   libzmq:xsub.obj
 0001:00033d60       ??1xsub_t@zmq@@UEAA@XZ     0000000180034d60 f   libzmq:xsub.obj
 0001:00033e50       ??_Exsub_t@zmq@@WDCI@EAAPEAXI@Z 0000000180034e50 f i libzmq:xsub.obj
 0001:00033e5c       ??_Exsub_t@zmq@@WDDI@EAAPEAXI@Z 0000000180034e5c f i libzmq:xsub.obj
 0001:00033e68       ??_Exsub_t@zmq@@WDEA@EAAPEAXI@Z 0000000180034e68 f i libzmq:xsub.obj
 0001:00033e80       ??_Exsub_t@zmq@@UEAAPEAXI@Z 0000000180034e80 f i libzmq:xsub.obj
 0001:00033e80       ??_Gxsub_t@zmq@@UEAAPEAXI@Z 0000000180034e80 f i libzmq:xsub.obj
 0001:00033ec0       ?get_credential@client_t@zmq@@MEBA?AV?$basic_string@EU?$char_traits@E@std@@V?$allocator@E@2@@std@@XZ 0000000180034ec0 f   libzmq:client.obj
 0001:00033ec0       ?get_credential@gather_t@zmq@@MEBA?AV?$basic_string@EU?$char_traits@E@std@@V?$allocator@E@2@@std@@XZ 0000000180034ec0 f   libzmq:gather.obj
 0001:00033ec0       ?get_credential@dealer_t@zmq@@MEBA?AV?$basic_string@EU?$char_traits@E@std@@V?$allocator@E@2@@std@@XZ 0000000180034ec0 f   libzmq:dealer.obj
 0001:00033ec0       ?get_credential@server_t@zmq@@MEBA?AV?$basic_string@EU?$char_traits@E@std@@V?$allocator@E@2@@std@@XZ 0000000180034ec0 f   libzmq:server.obj
 0001:00033ec0       ?get_credential@pull_t@zmq@@MEBA?AV?$basic_string@EU?$char_traits@E@std@@V?$allocator@E@2@@std@@XZ 0000000180034ec0 f   libzmq:pull.obj
 0001:00033ec0       ?get_credential@dish_t@zmq@@MEBA?AV?$basic_string@EU?$char_traits@E@std@@V?$allocator@E@2@@std@@XZ 0000000180034ec0 f   libzmq:dish.obj
 0001:00033ec0       ?get_credential@router_t@zmq@@MEBA?AV?$basic_string@EU?$char_traits@E@std@@V?$allocator@E@2@@std@@XZ 0000000180034ec0 f   libzmq:router.obj
 0001:00033ec0       ?get_credential@xsub_t@zmq@@MEBA?AV?$basic_string@EU?$char_traits@E@std@@V?$allocator@E@2@@std@@XZ 0000000180034ec0 f   libzmq:xsub.obj
 0001:00033ef0       ?match@xsub_t@zmq@@AEAA_NPEAVmsg_t@2@@Z 0000000180034ef0 f   libzmq:xsub.obj
 0001:00033f40       ?send_subscription@xsub_t@zmq@@CAXPEAE_KPEAX@Z 0000000180034f40 f   libzmq:xsub.obj
 0001:00034050       ?xattach_pipe@xsub_t@zmq@@MEAAXPEAVpipe_t@2@_N@Z 0000000180035050 f   libzmq:xsub.obj
 0001:00034100       ?xhas_in@xsub_t@zmq@@MEAA_NXZ 0000000180035100 f   libzmq:xsub.obj
 0001:00034290       ?xhiccuped@xsub_t@zmq@@MEAAXPEAVpipe_t@2@@Z 0000000180035290 f   libzmq:xsub.obj
 0001:000342c0       ?xpipe_terminated@dish_t@zmq@@MEAAXPEAVpipe_t@2@@Z 00000001800352c0 f   libzmq:dish.obj
 0001:000342c0       ?xpipe_terminated@xsub_t@zmq@@MEAAXPEAVpipe_t@2@@Z 00000001800352c0 f   libzmq:xsub.obj
 0001:00034300       ?xrecv@xsub_t@zmq@@MEAAHPEAVmsg_t@2@@Z 0000000180035300 f   libzmq:xsub.obj
 0001:000344d0       ?xsend@xsub_t@zmq@@MEAAHPEAVmsg_t@2@@Z 00000001800354d0 f   libzmq:xsub.obj
 0001:00034630       ?xwrite_activated@dish_t@zmq@@MEAAXPEAVpipe_t@2@@Z 0000000180035630 f   libzmq:dish.obj
 0001:00034630       ?xwrite_activated@xsub_t@zmq@@MEAAXPEAVpipe_t@2@@Z 0000000180035630 f   libzmq:xsub.obj
 0001:00034640       ??0sub_t@zmq@@QEAA@PEAVctx_t@1@IH@Z 0000000180035640 f   libzmq:sub.obj
 0001:000346a0       ??1sub_t@zmq@@UEAA@XZ      00000001800356a0 f   libzmq:sub.obj
 0001:000346dc       ??_Esub_t@zmq@@WDCI@EAAPEAXI@Z 00000001800356dc f i libzmq:sub.obj
 0001:000346e8       ??_Esub_t@zmq@@WDDI@EAAPEAXI@Z 00000001800356e8 f i libzmq:sub.obj
 0001:000346f4       ??_Esub_t@zmq@@WDEA@EAAPEAXI@Z 00000001800356f4 f i libzmq:sub.obj
 0001:00034700       ??_Gsub_t@zmq@@UEAAPEAXI@Z 0000000180035700 f i libzmq:sub.obj
 0001:00034700       ??_Esub_t@zmq@@UEAAPEAXI@Z 0000000180035700 f i libzmq:sub.obj
 0001:00034740       ?xsetsockopt@sub_t@zmq@@MEAAHHPEBX_K@Z 0000000180035740 f   libzmq:sub.obj
 0001:000348d0       ??0dealer_t@zmq@@QEAA@PEAVctx_t@1@IH@Z 00000001800358d0 f   libzmq:dealer.obj
 0001:00034960       ??1dealer_t@zmq@@UEAA@XZ   0000000180035960 f   libzmq:dealer.obj
 0001:000349c4       ??_Edealer_t@zmq@@WDCI@EAAPEAXI@Z 00000001800359c4 f i libzmq:dealer.obj
 0001:000349d0       ??_Edealer_t@zmq@@WDDI@EAAPEAXI@Z 00000001800359d0 f i libzmq:dealer.obj
 0001:000349dc       ??_Edealer_t@zmq@@WDEA@EAAPEAXI@Z 00000001800359dc f i libzmq:dealer.obj
 0001:000349f0       ??_Edealer_t@zmq@@UEAAPEAXI@Z 00000001800359f0 f i libzmq:dealer.obj
 0001:000349f0       ??_Gdealer_t@zmq@@UEAAPEAXI@Z 00000001800359f0 f i libzmq:dealer.obj
 0001:00034a30       ?recvpipe@dealer_t@zmq@@IEAAHPEAVmsg_t@2@PEAPEAVpipe_t@2@@Z 0000000180035a30 f   libzmq:dealer.obj
 0001:00034a40       ?sendpipe@dealer_t@zmq@@IEAAHPEAVmsg_t@2@PEAPEAVpipe_t@2@@Z 0000000180035a40 f   libzmq:dealer.obj
 0001:00034a50       ?xattach_pipe@dealer_t@zmq@@MEAAXPEAVpipe_t@2@_N@Z 0000000180035a50 f   libzmq:dealer.obj
 0001:00034c00       ?xhas_out@client_t@zmq@@MEAA_NXZ 0000000180035c00 f   libzmq:client.obj
 0001:00034c00       ?xhas_out@dealer_t@zmq@@MEAA_NXZ 0000000180035c00 f   libzmq:dealer.obj
 0001:00034c10       ?xpipe_terminated@client_t@zmq@@MEAAXPEAVpipe_t@2@@Z 0000000180035c10 f   libzmq:client.obj
 0001:00034c10       ?xpipe_terminated@dealer_t@zmq@@MEAAXPEAVpipe_t@2@@Z 0000000180035c10 f   libzmq:dealer.obj
 0001:00034c50       ?xread_activated@xsub_t@zmq@@MEAAXPEAVpipe_t@2@@Z 0000000180035c50 f   libzmq:xsub.obj
 0001:00034c50       ?xread_activated@gather_t@zmq@@MEAAXPEAVpipe_t@2@@Z 0000000180035c50 f   libzmq:gather.obj
 0001:00034c50       ?xread_activated@dish_t@zmq@@MEAAXPEAVpipe_t@2@@Z 0000000180035c50 f   libzmq:dish.obj
 0001:00034c50       ?xread_activated@client_t@zmq@@MEAAXPEAVpipe_t@2@@Z 0000000180035c50 f   libzmq:client.obj
 0001:00034c50       ?xread_activated@pull_t@zmq@@MEAAXPEAVpipe_t@2@@Z 0000000180035c50 f   libzmq:pull.obj
 0001:00034c50       ?xread_activated@dealer_t@zmq@@MEAAXPEAVpipe_t@2@@Z 0000000180035c50 f   libzmq:dealer.obj
 0001:00034c50       ?xread_activated@server_t@zmq@@UEAAXPEAVpipe_t@2@@Z 0000000180035c50 f   libzmq:server.obj
 0001:00034c50       ?xread_activated@stream_t@zmq@@UEAAXPEAVpipe_t@2@@Z 0000000180035c50 f   libzmq:stream.obj
 0001:00034c60       ?xrecv@dealer_t@zmq@@MEAAHPEAVmsg_t@2@@Z 0000000180035c60 f   libzmq:dealer.obj
 0001:00034c70       ?xsend@dealer_t@zmq@@MEAAHPEAVmsg_t@2@@Z 0000000180035c70 f   libzmq:dealer.obj
 0001:00034c80       ?xsetsockopt@dealer_t@zmq@@MEAAHHPEBX_K@Z 0000000180035c80 f   libzmq:dealer.obj
 0001:00034cd0       ??0req_session_t@zmq@@QEAA@PEAVio_thread_t@1@_NPEAVsocket_base_t@1@AEBUoptions_t@1@PEAUaddress_t@1@@Z 0000000180035cd0 f   libzmq:req.obj
 0001:00034d30       ??0req_t@zmq@@QEAA@PEAVctx_t@1@IH@Z 0000000180035d30 f   libzmq:req.obj
 0001:00034dc0       ??1req_session_t@zmq@@UEAA@XZ 0000000180035dc0 f   libzmq:req.obj
 0001:00034df0       ??1req_t@zmq@@UEAA@XZ      0000000180035df0 f   libzmq:req.obj
 0001:00034e2c       ??_Ereq_session_t@zmq@@WDCI@EAAPEAXI@Z 0000000180035e2c f i libzmq:req.obj
 0001:00034e38       ??_Ereq_session_t@zmq@@WDDI@EAAPEAXI@Z 0000000180035e38 f i libzmq:req.obj
 0001:00034e44       ??_Ereq_t@zmq@@WDCI@EAAPEAXI@Z 0000000180035e44 f i libzmq:req.obj
 0001:00034e50       ??_Ereq_t@zmq@@WDDI@EAAPEAXI@Z 0000000180035e50 f i libzmq:req.obj
 0001:00034e5c       ??_Ereq_t@zmq@@WDEA@EAAPEAXI@Z 0000000180035e5c f i libzmq:req.obj
 0001:00034e70       ??_Ereq_session_t@zmq@@UEAAPEAXI@Z 0000000180035e70 f i libzmq:req.obj
 0001:00034e70       ??_Greq_session_t@zmq@@UEAAPEAXI@Z 0000000180035e70 f i libzmq:req.obj
 0001:00034eb0       ??_Greq_t@zmq@@UEAAPEAXI@Z 0000000180035eb0 f i libzmq:req.obj
 0001:00034eb0       ??_Ereq_t@zmq@@UEAAPEAXI@Z 0000000180035eb0 f i libzmq:req.obj
 0001:00034ef0       ?push_msg@req_session_t@zmq@@UEAAHPEAVmsg_t@2@@Z 0000000180035ef0 f   libzmq:req.obj
 0001:00034ff0       ?recv_reply_pipe@req_t@zmq@@IEAAHPEAVmsg_t@2@@Z 0000000180035ff0 f   libzmq:req.obj
 0001:00035070       ?xhas_in@req_t@zmq@@UEAA_NXZ 0000000180036070 f   libzmq:req.obj
 0001:00035090       ?xhas_out@req_t@zmq@@UEAA_NXZ 0000000180036090 f   libzmq:req.obj
 0001:000350b0       ?xpipe_terminated@req_t@zmq@@UEAAXPEAVpipe_t@2@@Z 00000001800360b0 f   libzmq:req.obj
 0001:000350d0       ?xrecv@req_t@zmq@@UEAAHPEAVmsg_t@2@@Z 00000001800360d0 f   libzmq:req.obj
 0001:000352f0       ?xsend@req_t@zmq@@UEAAHPEAVmsg_t@2@@Z 00000001800362f0 f   libzmq:req.obj
 0001:00035600       ?xsetsockopt@req_t@zmq@@UEAAHHPEBX_K@Z 0000000180036600 f   libzmq:req.obj
 0001:00035650       ??3@YAXPEAX@Z              0000000180036650 f   LIBCMT:delete_scalar.obj
 0001:00035660       ??$_Buynode@U?$pair@$$CBV?$basic_string@EU?$char_traits@E@std@@V?$allocator@E@2@@std@@Uoutpipe_t@router_t@zmq@@@std@@@?$_Tree_comp_alloc@V?$_Tmap_traits@V?$basic_string@EU?$char_traits@E@std@@V?$allocator@E@2@@std@@Uoutpipe_t@router_t@zmq@@U?$less@V?$basic_string@EU?$char_traits@E@std@@V?$allocator@E@2@@std@@@2@V?$allocator@U?$pair@$$CBV?$basic_string@EU?$char_traits@E@std@@V?$allocator@E@2@@std@@Uoutpipe_t@router_t@zmq@@@std@@@2@$0A@@std@@@std@@QEAAPEAU?$_Tree_node@U?$pair@$$CBV?$basic_string@EU?$char_traits@E@std@@V?$allocator@E@2@@std@@Uoutpipe_t@router_t@zmq@@@std@@PEAX@1@$$QEAU?$pair@$$CBV?$basic_string@EU?$char_traits@E@std@@V?$allocator@E@2@@std@@Uoutpipe_t@router_t@zmq@@@1@@Z 0000000180036660 f i libzmq:router.obj
 0001:000356c0       ??$_Insert_at@U?$pair@$$CBV?$basic_string@EU?$char_traits@E@std@@V?$allocator@E@2@@std@@Uoutpipe_t@router_t@zmq@@@std@@U_Nil@2@@?$_Tree@V?$_Tmap_traits@V?$basic_string@EU?$char_traits@E@std@@V?$allocator@E@2@@std@@Uoutpipe_t@router_t@zmq@@U?$less@V?$basic_string@EU?$char_traits@E@std@@V?$allocator@E@2@@std@@@2@V?$allocator@U?$pair@$$CBV?$basic_string@EU?$char_traits@E@std@@V?$allocator@E@2@@std@@Uoutpipe_t@router_t@zmq@@@std@@@2@$0A@@std@@@std@@IEAA?AV?$_Tree_iterator@V?$_Tree_val@U?$_Tree_simple_types@U?$pair@$$CBV?$basic_string@EU?$char_traits@E@std@@V?$allocator@E@2@@std@@Uoutpipe_t@router_t@zmq@@@std@@@std@@@std@@@1@_NPEAU?$_Tree_node@U?$pair@$$CBV?$basic_string@EU?$char_traits@E@std@@V?$allocator@E@2@@std@@Uoutpipe_t@router_t@zmq@@@std@@PEAX@1@$$QEAU?$pair@$$CBV?$basic_string@EU?$char_traits@E@std@@V?$allocator@E@2@@std@@Uoutpipe_t@router_t@zmq@@@1@U_Nil@1@@Z 00000001800366c0 f i libzmq:router.obj
 0001:00035990       ??$_Insert_nohint@U?$pair@$$CBV?$basic_string@EU?$char_traits@E@std@@V?$allocator@E@2@@std@@Uoutpipe_t@router_t@zmq@@@std@@U_Nil@2@@?$_Tree@V?$_Tmap_traits@V?$basic_string@EU?$char_traits@E@std@@V?$allocator@E@2@@std@@Uoutpipe_t@router_t@zmq@@U?$less@V?$basic_string@EU?$char_traits@E@std@@V?$allocator@E@2@@std@@@2@V?$allocator@U?$pair@$$CBV?$basic_string@EU?$char_traits@E@std@@V?$allocator@E@2@@std@@Uoutpipe_t@router_t@zmq@@@std@@@2@$0A@@std@@@std@@IEAA?AU?$pair@V?$_Tree_iterator@V?$_Tree_val@U?$_Tree_simple_types@U?$pair@$$CBV?$basic_string@EU?$char_traits@E@std@@V?$allocator@E@2@@std@@Uoutpipe_t@router_t@zmq@@@std@@@std@@@std@@@std@@_N@1@_N$$QEAU?$pair@$$CBV?$basic_string@EU?$char_traits@E@std@@V?$allocator@E@2@@std@@Uoutpipe_t@router_t@zmq@@@1@U_Nil@1@@Z 0000000180036990 f i libzmq:router.obj
 0001:00035c10       ??$construct@U?$pair@$$CBV?$basic_string@EU?$char_traits@E@std@@V?$allocator@E@2@@std@@Uoutpipe_t@router_t@zmq@@@std@@U12@@?$_Wrap_alloc@V?$allocator@U?$_Tree_node@U?$pair@$$CBV?$basic_string@EU?$char_traits@E@std@@V?$allocator@E@2@@std@@Uoutpipe_t@router_t@zmq@@@std@@PEAX@std@@@std@@@std@@QEAAXPEAU?$pair@$$CBV?$basic_string@EU?$char_traits@E@std@@V?$allocator@E@2@@std@@Uoutpipe_t@router_t@zmq@@@1@$$QEAU21@@Z 0000000180036c10 f i libzmq:router.obj
 0001:00035c80       ??0router_t@zmq@@QEAA@PEAVctx_t@1@IH@Z 0000000180036c80 f   libzmq:router.obj
 0001:00035da0       ??1?$map@V?$basic_string@EU?$char_traits@E@std@@V?$allocator@E@2@@std@@Uoutpipe_t@router_t@zmq@@U?$less@V?$basic_string@EU?$char_traits@E@std@@V?$allocator@E@2@@std@@@2@V?$allocator@U?$pair@$$CBV?$basic_string@EU?$char_traits@E@std@@V?$allocator@E@2@@std@@Uoutpipe_t@router_t@zmq@@@std@@@2@@std@@QEAA@XZ 0000000180036da0 f i libzmq:router.obj
 0001:00035de0       ??1?$set@PEAVpipe_t@zmq@@U?$less@PEAVpipe_t@zmq@@@std@@V?$allocator@PEAVpipe_t@zmq@@@4@@std@@QEAA@XZ 0000000180036de0 f i libzmq:router.obj
 0001:00035e10       ??1router_t@zmq@@UEAA@XZ   0000000180036e10 f   libzmq:router.obj
 0001:00035fa4       ??_Erouter_t@zmq@@WDCI@EAAPEAXI@Z 0000000180036fa4 f i libzmq:router.obj
 0001:00035fb0       ??_Erouter_t@zmq@@WDDI@EAAPEAXI@Z 0000000180036fb0 f i libzmq:router.obj
 0001:00035fbc       ??_Erouter_t@zmq@@WDEA@EAAPEAXI@Z 0000000180036fbc f i libzmq:router.obj
 0001:00035fd0       ??_Erouter_t@zmq@@UEAAPEAXI@Z 0000000180036fd0 f i libzmq:router.obj
 0001:00035fd0       ??_Grouter_t@zmq@@UEAAPEAXI@Z 0000000180036fd0 f i libzmq:router.obj
 0001:00036010       ?_Buyheadnode@?$_Tree_comp_alloc@V?$_Tmap_traits@V?$basic_string@EU?$char_traits@E@std@@V?$allocator@E@2@@std@@Uoutpipe_t@router_t@zmq@@U?$less@V?$basic_string@EU?$char_traits@E@std@@V?$allocator@E@2@@std@@@2@V?$allocator@U?$pair@$$CBV?$basic_string@EU?$char_traits@E@std@@V?$allocator@E@2@@std@@Uoutpipe_t@router_t@zmq@@@std@@@2@$0A@@std@@@std@@QEAAPEAU?$_Tree_node@U?$pair@$$CBV?$basic_string@EU?$char_traits@E@std@@V?$allocator@E@2@@std@@Uoutpipe_t@router_t@zmq@@@std@@PEAX@2@XZ 0000000180037010 f i libzmq:router.obj
 0001:00036070       ?_Buynode0@?$_Tree_comp_alloc@V?$_Tmap_traits@V?$basic_string@EU?$char_traits@E@std@@V?$allocator@E@2@@std@@Uoutpipe_t@router_t@zmq@@U?$less@V?$basic_string@EU?$char_traits@E@std@@V?$allocator@E@2@@std@@@2@V?$allocator@U?$pair@$$CBV?$basic_string@EU?$char_traits@E@std@@V?$allocator@E@2@@std@@Uoutpipe_t@router_t@zmq@@@std@@@2@$0A@@std@@@std@@QEAAPEAU?$_Tree_node@U?$pair@$$CBV?$basic_string@EU?$char_traits@E@std@@V?$allocator@E@2@@std@@Uoutpipe_t@router_t@zmq@@@std@@PEAX@2@XZ 0000000180037070 f i libzmq:router.obj
 0001:000360d0       ?_Traits_compare@?$basic_string@EU?$char_traits@E@std@@V?$allocator@E@2@@std@@SAHQEBE_K01@Z 00000001800370d0 f i libzmq:router.obj
 0001:00036130       ?compare@?$basic_string@EU?$char_traits@E@std@@V?$allocator@E@2@@std@@QEBAHAEBV12@@Z 0000000180037130 f i libzmq:router.obj
 0001:000361a0       ?erase@?$_Tree@V?$_Tmap_traits@V?$basic_string@EU?$char_traits@E@std@@V?$allocator@E@2@@std@@Uoutpipe_t@router_t@zmq@@U?$less@V?$basic_string@EU?$char_traits@E@std@@V?$allocator@E@2@@std@@@2@V?$allocator@U?$pair@$$CBV?$basic_string@EU?$char_traits@E@std@@V?$allocator@E@2@@std@@Uoutpipe_t@router_t@zmq@@@std@@@2@$0A@@std@@@std@@QEAA?AV?$_Tree_iterator@V?$_Tree_val@U?$_Tree_simple_types@U?$pair@$$CBV?$basic_string@EU?$char_traits@E@std@@V?$allocator@E@2@@std@@Uoutpipe_t@router_t@zmq@@@std@@@std@@@std@@@2@V?$_Tree_const_iterator@V?$_Tree_val@U?$_Tree_simple_types@U?$pair@$$CBV?$basic_string@EU?$char_traits@E@std@@V?$allocator@E@2@@std@@Uoutpipe_t@router_t@zmq@@@std@@@std@@@std@@@2@0@Z 00000001800371a0 f i libzmq:router.obj
 0001:00036290       ?identify_peer@router_t@zmq@@AEAA_NPEAVpipe_t@2@@Z 0000000180037290 f   libzmq:router.obj
 0001:00036940       ?rollback@router_t@zmq@@IEAAHXZ 0000000180037940 f   libzmq:router.obj
 0001:00036980       ?xattach_pipe@router_t@zmq@@UEAAXPEAVpipe_t@2@_N@Z 0000000180037980 f   libzmq:router.obj
 0001:00036b60       ?xhas_in@router_t@zmq@@UEAA_NXZ 0000000180037b60 f   libzmq:router.obj
 0001:00036d60       ?xpipe_terminated@router_t@zmq@@UEAAXPEAVpipe_t@2@@Z 0000000180037d60 f   libzmq:router.obj
 0001:00036f50       ?xread_activated@router_t@zmq@@UEAAXPEAVpipe_t@2@@Z 0000000180037f50 f   libzmq:router.obj
 0001:00037000       ?xrecv@router_t@zmq@@UEAAHPEAVmsg_t@2@@Z 0000000180038000 f   libzmq:router.obj
 0001:000373e0       ?xsend@router_t@zmq@@UEAAHPEAVmsg_t@2@@Z 00000001800383e0 f   libzmq:router.obj
 0001:000379a0       ?xsetsockopt@router_t@zmq@@UEAAHHPEBX_K@Z 00000001800389a0 f   libzmq:router.obj
 0001:00037a90       ?xwrite_activated@router_t@zmq@@UEAAXPEAVpipe_t@2@@Z 0000000180038a90 f   libzmq:router.obj
 0001:00037bc0       ??0rep_t@zmq@@QEAA@PEAVctx_t@1@IH@Z 0000000180038bc0 f   libzmq:rep.obj
 0001:00037c20       ??1rep_t@zmq@@UEAA@XZ      0000000180038c20 f   libzmq:rep.obj
 0001:00037c5c       ??_Erep_t@zmq@@WDCI@EAAPEAXI@Z 0000000180038c5c f i libzmq:rep.obj
 0001:00037c68       ??_Erep_t@zmq@@WDDI@EAAPEAXI@Z 0000000180038c68 f i libzmq:rep.obj
 0001:00037c74       ??_Erep_t@zmq@@WDEA@EAAPEAXI@Z 0000000180038c74 f i libzmq:rep.obj
 0001:00037c80       ??_Grep_t@zmq@@UEAAPEAXI@Z 0000000180038c80 f i libzmq:rep.obj
 0001:00037c80       ??_Erep_t@zmq@@UEAAPEAXI@Z 0000000180038c80 f i libzmq:rep.obj
 0001:00037cc0       ?xhas_in@rep_t@zmq@@UEAA_NXZ 0000000180038cc0 f   libzmq:rep.obj
 0001:00037ce0       ?xhas_out@rep_t@zmq@@UEAA_NXZ 0000000180038ce0 f   libzmq:rep.obj
 0001:00037d00       ?xrecv@rep_t@zmq@@UEAAHPEAVmsg_t@2@@Z 0000000180038d00 f   libzmq:rep.obj
 0001:00037ea0       ?xsend@rep_t@zmq@@UEAAHPEAVmsg_t@2@@Z 0000000180038ea0 f   libzmq:rep.obj
 0001:00037f20       ??0pull_t@zmq@@QEAA@PEAVctx_t@1@IH@Z 0000000180038f20 f   libzmq:pull.obj
 0001:00037fa0       ??1pull_t@zmq@@UEAA@XZ     0000000180038fa0 f   libzmq:pull.obj
 0001:00037ff8       ??_Epull_t@zmq@@WDCI@EAAPEAXI@Z 0000000180038ff8 f i libzmq:pull.obj
 0001:00038004       ??_Epull_t@zmq@@WDDI@EAAPEAXI@Z 0000000180039004 f i libzmq:pull.obj
 0001:00038010       ??_Epull_t@zmq@@WDEA@EAAPEAXI@Z 0000000180039010 f i libzmq:pull.obj
 0001:00038020       ??_Gpull_t@zmq@@UEAAPEAXI@Z 0000000180039020 f i libzmq:pull.obj
 0001:00038020       ??_Epull_t@zmq@@UEAAPEAXI@Z 0000000180039020 f i libzmq:pull.obj
 0001:00038060       ?xattach_pipe@pull_t@zmq@@MEAAXPEAVpipe_t@2@_N@Z 0000000180039060 f   libzmq:pull.obj
 0001:000380e0       ?xpipe_terminated@pull_t@zmq@@MEAAXPEAVpipe_t@2@@Z 00000001800390e0 f   libzmq:pull.obj
 0001:000380e0       ?xpipe_terminated@gather_t@zmq@@MEAAXPEAVpipe_t@2@@Z 00000001800390e0 f   libzmq:gather.obj
 0001:000380f0       ?xrecv@pull_t@zmq@@MEAAHPEAVmsg_t@2@@Z 00000001800390f0 f   libzmq:pull.obj
 0001:00038100       ??0push_t@zmq@@QEAA@PEAVctx_t@1@IH@Z 0000000180039100 f   libzmq:push.obj
 0001:00038180       ??1push_t@zmq@@UEAA@XZ     0000000180039180 f   libzmq:push.obj
 0001:000381d8       ??_Epush_t@zmq@@WDCI@EAAPEAXI@Z 00000001800391d8 f i libzmq:push.obj
 0001:000381e4       ??_Epush_t@zmq@@WDDI@EAAPEAXI@Z 00000001800391e4 f i libzmq:push.obj
 0001:000381f0       ??_Epush_t@zmq@@WDEA@EAAPEAXI@Z 00000001800391f0 f i libzmq:push.obj
 0001:00038200       ??_Epush_t@zmq@@UEAAPEAXI@Z 0000000180039200 f i libzmq:push.obj
 0001:00038200       ??_Gpush_t@zmq@@UEAAPEAXI@Z 0000000180039200 f i libzmq:push.obj
 0001:00038240       ?xattach_pipe@push_t@zmq@@MEAAXPEAVpipe_t@2@_N@Z 0000000180039240 f   libzmq:push.obj
 0001:000382c0       ?xhas_out@push_t@zmq@@MEAA_NXZ 00000001800392c0 f   libzmq:push.obj
 0001:000382c0       ?xhas_out@scatter_t@zmq@@MEAA_NXZ 00000001800392c0 f   libzmq:scatter.obj
 0001:000382d0       ?xsend@push_t@zmq@@MEAAHPEAVmsg_t@2@@Z 00000001800392d0 f   libzmq:push.obj
 0001:000382e0       ??$_Buynode@U?$pair@$$CBV?$basic_string@EU?$char_traits@E@std@@V?$allocator@E@2@@std@@Uoutpipe_t@stream_t@zmq@@@std@@@?$_Tree_comp_alloc@V?$_Tmap_traits@V?$basic_string@EU?$char_traits@E@std@@V?$allocator@E@2@@std@@Uoutpipe_t@stream_t@zmq@@U?$less@V?$basic_string@EU?$char_traits@E@std@@V?$allocator@E@2@@std@@@2@V?$allocator@U?$pair@$$CBV?$basic_string@EU?$char_traits@E@std@@V?$allocator@E@2@@std@@Uoutpipe_t@stream_t@zmq@@@std@@@2@$0A@@std@@@std@@QEAAPEAU?$_Tree_node@U?$pair@$$CBV?$basic_string@EU?$char_traits@E@std@@V?$allocator@E@2@@std@@Uoutpipe_t@stream_t@zmq@@@std@@PEAX@1@$$QEAU?$pair@$$CBV?$basic_string@EU?$char_traits@E@std@@V?$allocator@E@2@@std@@Uoutpipe_t@stream_t@zmq@@@1@@Z 00000001800392e0 f i libzmq:stream.obj
 0001:00038340       ??$_Insert_at@U?$pair@$$CBV?$basic_string@EU?$char_traits@E@std@@V?$allocator@E@2@@std@@Uoutpipe_t@stream_t@zmq@@@std@@U_Nil@2@@?$_Tree@V?$_Tmap_traits@V?$basic_string@EU?$char_traits@E@std@@V?$allocator@E@2@@std@@Uoutpipe_t@stream_t@zmq@@U?$less@V?$basic_string@EU?$char_traits@E@std@@V?$allocator@E@2@@std@@@2@V?$allocator@U?$pair@$$CBV?$basic_string@EU?$char_traits@E@std@@V?$allocator@E@2@@std@@Uoutpipe_t@stream_t@zmq@@@std@@@2@$0A@@std@@@std@@IEAA?AV?$_Tree_iterator@V?$_Tree_val@U?$_Tree_simple_types@U?$pair@$$CBV?$basic_string@EU?$char_traits@E@std@@V?$allocator@E@2@@std@@Uoutpipe_t@stream_t@zmq@@@std@@@std@@@std@@@1@_NPEAU?$_Tree_node@U?$pair@$$CBV?$basic_string@EU?$char_traits@E@std@@V?$allocator@E@2@@std@@Uoutpipe_t@stream_t@zmq@@@std@@PEAX@1@$$QEAU?$pair@$$CBV?$basic_string@EU?$char_traits@E@std@@V?$allocator@E@2@@std@@Uoutpipe_t@stream_t@zmq@@@1@U_Nil@1@@Z 0000000180039340 f i libzmq:stream.obj
 0001:00038610       ??$_Insert_nohint@U?$pair@$$CBV?$basic_string@EU?$char_traits@E@std@@V?$allocator@E@2@@std@@Uoutpipe_t@stream_t@zmq@@@std@@U_Nil@2@@?$_Tree@V?$_Tmap_traits@V?$basic_string@EU?$char_traits@E@std@@V?$allocator@E@2@@std@@Uoutpipe_t@stream_t@zmq@@U?$less@V?$basic_string@EU?$char_traits@E@std@@V?$allocator@E@2@@std@@@2@V?$allocator@U?$pair@$$CBV?$basic_string@EU?$char_traits@E@std@@V?$allocator@E@2@@std@@Uoutpipe_t@stream_t@zmq@@@std@@@2@$0A@@std@@@std@@IEAA?AU?$pair@V?$_Tree_iterator@V?$_Tree_val@U?$_Tree_simple_types@U?$pair@$$CBV?$basic_string@EU?$char_traits@E@std@@V?$allocator@E@2@@std@@Uoutpipe_t@stream_t@zmq@@@std@@@std@@@std@@@std@@_N@1@_N$$QEAU?$pair@$$CBV?$basic_string@EU?$char_traits@E@std@@V?$allocator@E@2@@std@@Uoutpipe_t@stream_t@zmq@@@1@U_Nil@1@@Z 0000000180039610 f i libzmq:stream.obj
 0001:00038890       ??$_Lbound@V?$basic_string@EU?$char_traits@E@std@@V?$allocator@E@2@@std@@@?$_Tree@V?$_Tmap_traits@V?$basic_string@EU?$char_traits@E@std@@V?$allocator@E@2@@std@@Uoutpipe_t@router_t@zmq@@U?$less@V?$basic_string@EU?$char_traits@E@std@@V?$allocator@E@2@@std@@@2@V?$allocator@U?$pair@$$CBV?$basic_string@EU?$char_traits@E@std@@V?$allocator@E@2@@std@@Uoutpipe_t@router_t@zmq@@@std@@@2@$0A@@std@@@std@@IEBAPEAU?$_Tree_node@U?$pair@$$CBV?$basic_string@EU?$char_traits@E@std@@V?$allocator@E@2@@std@@Uoutpipe_t@router_t@zmq@@@std@@PEAX@1@AEBV?$basic_string@EU?$char_traits@E@std@@V?$allocator@E@2@@1@@Z 0000000180039890 f i libzmq:router.obj
 0001:00038890       ??$_Lbound@V?$basic_string@EU?$char_traits@E@std@@V?$allocator@E@2@@std@@@?$_Tree@V?$_Tmap_traits@V?$basic_string@EU?$char_traits@E@std@@V?$allocator@E@2@@std@@Uoutpipe_t@stream_t@zmq@@U?$less@V?$basic_string@EU?$char_traits@E@std@@V?$allocator@E@2@@std@@@2@V?$allocator@U?$pair@$$CBV?$basic_string@EU?$char_traits@E@std@@V?$allocator@E@2@@std@@Uoutpipe_t@stream_t@zmq@@@std@@@2@$0A@@std@@@std@@IEBAPEAU?$_Tree_node@U?$pair@$$CBV?$basic_string@EU?$char_traits@E@std@@V?$allocator@E@2@@std@@Uoutpipe_t@stream_t@zmq@@@std@@PEAX@1@AEBV?$basic_string@EU?$char_traits@E@std@@V?$allocator@E@2@@1@@Z 0000000180039890 f i libzmq:stream.obj
 0001:00038950       ??$construct@U?$pair@$$CBV?$basic_string@EU?$char_traits@E@std@@V?$allocator@E@2@@std@@Uoutpipe_t@stream_t@zmq@@@std@@U12@@?$_Wrap_alloc@V?$allocator@U?$_Tree_node@U?$pair@$$CBV?$basic_string@EU?$char_traits@E@std@@V?$allocator@E@2@@std@@Uoutpipe_t@stream_t@zmq@@@std@@PEAX@std@@@std@@@std@@QEAAXPEAU?$pair@$$CBV?$basic_string@EU?$char_traits@E@std@@V?$allocator@E@2@@std@@Uoutpipe_t@stream_t@zmq@@@1@$$QEAU21@@Z 0000000180039950 f i libzmq:stream.obj
 0001:000389c0       ??0stream_t@zmq@@QEAA@PEAVctx_t@1@IH@Z 00000001800399c0 f   libzmq:stream.obj
 0001:00038ab0       ??1?$map@V?$basic_string@EU?$char_traits@E@std@@V?$allocator@E@2@@std@@Uoutpipe_t@stream_t@zmq@@U?$less@V?$basic_string@EU?$char_traits@E@std@@V?$allocator@E@2@@std@@@2@V?$allocator@U?$pair@$$CBV?$basic_string@EU?$char_traits@E@std@@V?$allocator@E@2@@std@@Uoutpipe_t@stream_t@zmq@@@std@@@2@@std@@QEAA@XZ 0000000180039ab0 f i libzmq:stream.obj
 0001:00038af0       ??1?$pair@$$CBV?$basic_string@DU?$char_traits@D@std@@V?$allocator@D@2@@std@@U?$pair@PEAVown_t@zmq@@PEAVpipe_t@2@@2@@std@@QEAA@XZ 0000000180039af0 f i libzmq:socket_base.obj
 0001:00038af0       ??1?$pair@$$CBV?$basic_string@EU?$char_traits@E@std@@V?$allocator@E@2@@std@@Uoutpipe_t@router_t@zmq@@@std@@QEAA@XZ 0000000180039af0 f i libzmq:router.obj
 0001:00038af0       ??1?$pair@$$CBV?$basic_string@EU?$char_traits@E@std@@V?$allocator@E@2@@std@@Uoutpipe_t@stream_t@zmq@@@std@@QEAA@XZ 0000000180039af0 f i libzmq:stream.obj
 0001:00038af0       ??1?$pair@$$CBV?$basic_string@DU?$char_traits@D@std@@V?$allocator@D@2@@std@@PEAVpipe_t@zmq@@@std@@QEAA@XZ 0000000180039af0 f i libzmq:socket_base.obj
 0001:00038b00       ??1stream_t@zmq@@UEAA@XZ   0000000180039b00 f   libzmq:stream.obj
 0001:00038c0c       ??_Estream_t@zmq@@WDCI@EAAPEAXI@Z 0000000180039c0c f i libzmq:stream.obj
 0001:00038c18       ??_Estream_t@zmq@@WDDI@EAAPEAXI@Z 0000000180039c18 f i libzmq:stream.obj
 0001:00038c24       ??_Estream_t@zmq@@WDEA@EAAPEAXI@Z 0000000180039c24 f i libzmq:stream.obj
 0001:00038c30       ??_Gstream_t@zmq@@UEAAPEAXI@Z 0000000180039c30 f i libzmq:stream.obj
 0001:00038c30       ??_Estream_t@zmq@@UEAAPEAXI@Z 0000000180039c30 f i libzmq:stream.obj
 0001:00038c70       ?_Buyheadnode@?$_Tree_comp_alloc@V?$_Tmap_traits@V?$basic_string@EU?$char_traits@E@std@@V?$allocator@E@2@@std@@Uoutpipe_t@stream_t@zmq@@U?$less@V?$basic_string@EU?$char_traits@E@std@@V?$allocator@E@2@@std@@@2@V?$allocator@U?$pair@$$CBV?$basic_string@EU?$char_traits@E@std@@V?$allocator@E@2@@std@@Uoutpipe_t@stream_t@zmq@@@std@@@2@$0A@@std@@@std@@QEAAPEAU?$_Tree_node@U?$pair@$$CBV?$basic_string@EU?$char_traits@E@std@@V?$allocator@E@2@@std@@Uoutpipe_t@stream_t@zmq@@@std@@PEAX@2@XZ 0000000180039c70 f i libzmq:stream.obj
 0001:00038cd0       ?_Buynode0@?$_Tree_comp_alloc@V?$_Tmap_traits@V?$basic_string@EU?$char_traits@E@std@@V?$allocator@E@2@@std@@Uoutpipe_t@stream_t@zmq@@U?$less@V?$basic_string@EU?$char_traits@E@std@@V?$allocator@E@2@@std@@@2@V?$allocator@U?$pair@$$CBV?$basic_string@EU?$char_traits@E@std@@V?$allocator@E@2@@std@@Uoutpipe_t@stream_t@zmq@@@std@@@2@$0A@@std@@@std@@QEAAPEAU?$_Tree_node@U?$pair@$$CBV?$basic_string@EU?$char_traits@E@std@@V?$allocator@E@2@@std@@Uoutpipe_t@stream_t@zmq@@@std@@PEAX@2@XZ 0000000180039cd0 f i libzmq:stream.obj
 0001:00038d30       ?erase@?$_Tree@V?$_Tmap_traits@V?$basic_string@EU?$char_traits@E@std@@V?$allocator@E@2@@std@@Uoutpipe_t@stream_t@zmq@@U?$less@V?$basic_string@EU?$char_traits@E@std@@V?$allocator@E@2@@std@@@2@V?$allocator@U?$pair@$$CBV?$basic_string@EU?$char_traits@E@std@@V?$allocator@E@2@@std@@Uoutpipe_t@stream_t@zmq@@@std@@@2@$0A@@std@@@std@@QEAA?AV?$_Tree_iterator@V?$_Tree_val@U?$_Tree_simple_types@U?$pair@$$CBV?$basic_string@EU?$char_traits@E@std@@V?$allocator@E@2@@std@@Uoutpipe_t@stream_t@zmq@@@std@@@std@@@std@@@2@V?$_Tree_const_iterator@V?$_Tree_val@U?$_Tree_simple_types@U?$pair@$$CBV?$basic_string@EU?$char_traits@E@std@@V?$allocator@E@2@@std@@Uoutpipe_t@stream_t@zmq@@@std@@@std@@@std@@@2@0@Z 0000000180039d30 f i libzmq:stream.obj
 0001:00038e20       ?identify_peer@stream_t@zmq@@AEAAXPEAVpipe_t@2@@Z 0000000180039e20 f   libzmq:stream.obj
 0001:00039260       ?xattach_pipe@stream_t@zmq@@UEAAXPEAVpipe_t@2@_N@Z 000000018003a260 f   libzmq:stream.obj
 0001:000392f0       ?xhas_in@stream_t@zmq@@UEAA_NXZ 000000018003a2f0 f   libzmq:stream.obj
 0001:00039570       ?xpipe_terminated@stream_t@zmq@@UEAAXPEAVpipe_t@2@@Z 000000018003a570 f   libzmq:stream.obj
 0001:00039700       ?xrecv@stream_t@zmq@@UEAAHPEAVmsg_t@2@@Z 000000018003a700 f   libzmq:stream.obj
 0001:00039ab0       ?xsend@stream_t@zmq@@UEAAHPEAVmsg_t@2@@Z 000000018003aab0 f   libzmq:stream.obj
 0001:00039fa0       ?xsetsockopt@stream_t@zmq@@UEAAHHPEBX_K@Z 000000018003afa0 f   libzmq:stream.obj
 0001:0003a010       ?xwrite_activated@stream_t@zmq@@UEAAXPEAVpipe_t@2@@Z 000000018003b010 f   libzmq:stream.obj
 0001:0003a140       ??$_Buynode@U?$pair@$$CBIUoutpipe_t@server_t@zmq@@@std@@@?$_Tree_comp_alloc@V?$_Tmap_traits@IUoutpipe_t@server_t@zmq@@U?$less@I@std@@V?$allocator@U?$pair@$$CBIUoutpipe_t@server_t@zmq@@@std@@@5@$0A@@std@@@std@@QEAAPEAU?$_Tree_node@U?$pair@$$CBIUoutpipe_t@server_t@zmq@@@std@@PEAX@1@$$QEAU?$pair@$$CBIUoutpipe_t@server_t@zmq@@@1@@Z 000000018003b140 f i libzmq:server.obj
 0001:0003a190       ??$_Insert_at@U?$pair@$$CBIUoutpipe_t@server_t@zmq@@@std@@U_Nil@2@@?$_Tree@V?$_Tmap_traits@IUoutpipe_t@server_t@zmq@@U?$less@I@std@@V?$allocator@U?$pair@$$CBIUoutpipe_t@server_t@zmq@@@std@@@5@$0A@@std@@@std@@IEAA?AV?$_Tree_iterator@V?$_Tree_val@U?$_Tree_simple_types@U?$pair@$$CBIUoutpipe_t@server_t@zmq@@@std@@@std@@@std@@@1@_NPEAU?$_Tree_node@U?$pair@$$CBIUoutpipe_t@server_t@zmq@@@std@@PEAX@1@$$QEAU?$pair@$$CBIUoutpipe_t@server_t@zmq@@@1@U_Nil@1@@Z 000000018003b190 f i libzmq:server.obj
 0001:0003a460       ??$_Insert_nohint@U?$pair@$$CBIUoutpipe_t@server_t@zmq@@@std@@U_Nil@2@@?$_Tree@V?$_Tmap_traits@IUoutpipe_t@server_t@zmq@@U?$less@I@std@@V?$allocator@U?$pair@$$CBIUoutpipe_t@server_t@zmq@@@std@@@5@$0A@@std@@@std@@IEAA?AU?$pair@V?$_Tree_iterator@V?$_Tree_val@U?$_Tree_simple_types@U?$pair@$$CBIUoutpipe_t@server_t@zmq@@@std@@@std@@@std@@@std@@_N@1@_N$$QEAU?$pair@$$CBIUoutpipe_t@server_t@zmq@@@1@U_Nil@1@@Z 000000018003b460 f i libzmq:server.obj
 0001:0003a5c0       ??0server_t@zmq@@QEAA@PEAVctx_t@1@IH@Z 000000018003b5c0 f   libzmq:server.obj
 0001:0003a670       ??1?$map@IUoutpipe_t@server_t@zmq@@U?$less@I@std@@V?$allocator@U?$pair@$$CBIUoutpipe_t@server_t@zmq@@@std@@@5@@std@@QEAA@XZ 000000018003b670 f i libzmq:server.obj
 0001:0003a6a0       ??1server_t@zmq@@UEAA@XZ   000000018003b6a0 f   libzmq:server.obj
 0001:0003a794       ??_Eserver_t@zmq@@WDCI@EAAPEAXI@Z 000000018003b794 f i libzmq:server.obj
 0001:0003a7a0       ??_Eserver_t@zmq@@WDDI@EAAPEAXI@Z 000000018003b7a0 f i libzmq:server.obj
 0001:0003a7ac       ??_Eserver_t@zmq@@WDEA@EAAPEAXI@Z 000000018003b7ac f i libzmq:server.obj
 0001:0003a7c0       ??_Gserver_t@zmq@@UEAAPEAXI@Z 000000018003b7c0 f i libzmq:server.obj
 0001:0003a7c0       ??_Eserver_t@zmq@@UEAAPEAXI@Z 000000018003b7c0 f i libzmq:server.obj
 0001:0003a800       ?_Buyheadnode@?$_Tree_comp_alloc@V?$_Tmap_traits@IUoutpipe_t@server_t@zmq@@U?$less@I@std@@V?$allocator@U?$pair@$$CBIUoutpipe_t@server_t@zmq@@@std@@@5@$0A@@std@@@std@@QEAAPEAU?$_Tree_node@U?$pair@$$CBIUoutpipe_t@server_t@zmq@@@std@@PEAX@2@XZ 000000018003b800 f i libzmq:server.obj
 0001:0003a860       ?_Buynode0@?$_Tree_comp_alloc@V?$_Tmap_traits@IUoutpipe_t@server_t@zmq@@U?$less@I@std@@V?$allocator@U?$pair@$$CBIUoutpipe_t@server_t@zmq@@@std@@@5@$0A@@std@@@std@@QEAAPEAU?$_Tree_node@U?$pair@$$CBIUoutpipe_t@server_t@zmq@@@std@@PEAX@2@XZ 000000018003b860 f i libzmq:server.obj
 0001:0003a8c0       ?clear@?$_Tree@V?$_Tmap_traits@IUoutpipe_t@server_t@zmq@@U?$less@I@std@@V?$allocator@U?$pair@$$CBIUoutpipe_t@server_t@zmq@@@std@@@5@$0A@@std@@@std@@QEAAXXZ 000000018003b8c0 f i libzmq:server.obj
 0001:0003a940       ?erase@?$_Tree@V?$_Tmap_traits@IUoutpipe_t@server_t@zmq@@U?$less@I@std@@V?$allocator@U?$pair@$$CBIUoutpipe_t@server_t@zmq@@@std@@@5@$0A@@std@@@std@@QEAA?AV?$_Tree_iterator@V?$_Tree_val@U?$_Tree_simple_types@U?$pair@$$CBIUoutpipe_t@server_t@zmq@@@std@@@std@@@std@@@2@V?$_Tree_const_iterator@V?$_Tree_val@U?$_Tree_simple_types@U?$pair@$$CBIUoutpipe_t@server_t@zmq@@@std@@@std@@@std@@@2@0@Z 000000018003b940 f i libzmq:server.obj
 0001:0003aa20       ?xattach_pipe@server_t@zmq@@UEAAXPEAVpipe_t@2@_N@Z 000000018003ba20 f   libzmq:server.obj
 0001:0003ab60       ?xpipe_terminated@server_t@zmq@@UEAAXPEAVpipe_t@2@@Z 000000018003bb60 f   libzmq:server.obj
 0001:0003ac50       ?xrecv@server_t@zmq@@UEAAHPEAVmsg_t@2@@Z 000000018003bc50 f   libzmq:server.obj
 0001:0003ad60       ?xsend@server_t@zmq@@UEAAHPEAVmsg_t@2@@Z 000000018003bd60 f   libzmq:server.obj
 0001:0003af80       ?xwrite_activated@server_t@zmq@@UEAAXPEAVpipe_t@2@@Z 000000018003bf80 f   libzmq:server.obj
 0001:0003b0b0       ??0client_t@zmq@@QEAA@PEAVctx_t@1@IH@Z 000000018003c0b0 f   libzmq:client.obj
 0001:0003b140       ??1client_t@zmq@@UEAA@XZ   000000018003c140 f   libzmq:client.obj
 0001:0003b1a4       ??_Eclient_t@zmq@@WDCI@EAAPEAXI@Z 000000018003c1a4 f i libzmq:client.obj
 0001:0003b1b0       ??_Eclient_t@zmq@@WDDI@EAAPEAXI@Z 000000018003c1b0 f i libzmq:client.obj
 0001:0003b1bc       ??_Eclient_t@zmq@@WDEA@EAAPEAXI@Z 000000018003c1bc f i libzmq:client.obj
 0001:0003b1d0       ??_Eclient_t@zmq@@UEAAPEAXI@Z 000000018003c1d0 f i libzmq:client.obj
 0001:0003b1d0       ??_Gclient_t@zmq@@UEAAPEAXI@Z 000000018003c1d0 f i libzmq:client.obj
 0001:0003b210       ?xattach_pipe@client_t@zmq@@MEAAXPEAVpipe_t@2@_N@Z 000000018003c210 f   libzmq:client.obj
 0001:0003b2a0       ?xrecv@gather_t@zmq@@MEAAHPEAVmsg_t@2@@Z 000000018003c2a0 f   libzmq:gather.obj
 0001:0003b2a0       ?xrecv@client_t@zmq@@MEAAHPEAVmsg_t@2@@Z 000000018003c2a0 f   libzmq:client.obj
 0001:0003b350       ?xsend@client_t@zmq@@MEAAHPEAVmsg_t@2@@Z 000000018003c350 f   libzmq:client.obj
 0001:0003b3b0       ?xwrite_activated@client_t@zmq@@MEAAXPEAVpipe_t@2@@Z 000000018003c3b0 f   libzmq:client.obj
 0001:0003b3b0       ?xwrite_activated@dealer_t@zmq@@MEAAXPEAVpipe_t@2@@Z 000000018003c3b0 f   libzmq:dealer.obj
 0001:0003b3c0       ??0radio_session_t@zmq@@QEAA@PEAVio_thread_t@1@_NPEAVsocket_base_t@1@AEBUoptions_t@1@PEAUaddress_t@1@@Z 000000018003c3c0 f   libzmq:radio.obj
 0001:0003b420       ??0radio_t@zmq@@QEAA@PEAVctx_t@1@IH@Z 000000018003c420 f   libzmq:radio.obj
 0001:0003b4e0       ??1radio_session_t@zmq@@UEAA@XZ 000000018003c4e0 f   libzmq:radio.obj
 0001:0003b510       ??1radio_t@zmq@@UEAA@XZ    000000018003c510 f   libzmq:radio.obj
 0001:0003b5d8       ??_Eradio_session_t@zmq@@WDCI@EAAPEAXI@Z 000000018003c5d8 f i libzmq:radio.obj
 0001:0003b5e4       ??_Eradio_session_t@zmq@@WDDI@EAAPEAXI@Z 000000018003c5e4 f i libzmq:radio.obj
 0001:0003b5f0       ??_Eradio_t@zmq@@WDCI@EAAPEAXI@Z 000000018003c5f0 f i libzmq:radio.obj
 0001:0003b5fc       ??_Eradio_t@zmq@@WDDI@EAAPEAXI@Z 000000018003c5fc f i libzmq:radio.obj
 0001:0003b608       ??_Eradio_t@zmq@@WDEA@EAAPEAXI@Z 000000018003c608 f i libzmq:radio.obj
 0001:0003b620       ??_Eradio_session_t@zmq@@UEAAPEAXI@Z 000000018003c620 f i libzmq:radio.obj
 0001:0003b620       ??_Gradio_session_t@zmq@@UEAAPEAXI@Z 000000018003c620 f i libzmq:radio.obj
 0001:0003b660       ??_Gradio_t@zmq@@UEAAPEAXI@Z 000000018003c660 f i libzmq:radio.obj
 0001:0003b660       ??_Eradio_t@zmq@@UEAAPEAXI@Z 000000018003c660 f i libzmq:radio.obj
 0001:0003b6a0       ?pull_msg@radio_session_t@zmq@@UEAAHPEAVmsg_t@2@@Z 000000018003c6a0 f   libzmq:radio.obj
 0001:0003b7f0       ?push_msg@radio_session_t@zmq@@UEAAHPEAVmsg_t@2@@Z 000000018003c7f0 f   libzmq:radio.obj
 0001:0003ba50       ?reset@dish_session_t@zmq@@UEAAXXZ 000000018003ca50 f   libzmq:dish.obj
 0001:0003ba50       ?reset@req_session_t@zmq@@UEAAXXZ 000000018003ca50 f   libzmq:req.obj
 0001:0003ba50       ?reset@radio_session_t@zmq@@UEAAXXZ 000000018003ca50 f   libzmq:radio.obj
 0001:0003ba70       ?xattach_pipe@radio_t@zmq@@UEAAXPEAVpipe_t@2@_N@Z 000000018003ca70 f   libzmq:radio.obj
 0001:0003bb40       ?xhas_out@radio_t@zmq@@UEAA_NXZ 000000018003cb40 f   libzmq:radio.obj
 0001:0003bb50       ?xpipe_terminated@radio_t@zmq@@UEAAXPEAVpipe_t@2@@Z 000000018003cb50 f   libzmq:radio.obj
 0001:0003bcb0       ?xread_activated@radio_t@zmq@@UEAAXPEAVpipe_t@2@@Z 000000018003ccb0 f   libzmq:radio.obj
 0001:0003bf00       ?xsend@radio_t@zmq@@UEAAHPEAVmsg_t@2@@Z 000000018003cf00 f   libzmq:radio.obj
 0001:0003c120       ?xwrite_activated@radio_t@zmq@@UEAAXPEAVpipe_t@2@@Z 000000018003d120 f   libzmq:radio.obj
 0001:0003c130       ??$_Buynode@AEBV?$basic_string@DU?$char_traits@D@std@@V?$allocator@D@2@@std@@@?$_Tree_comp_alloc@V?$_Tset_traits@V?$basic_string@DU?$char_traits@D@std@@V?$allocator@D@2@@std@@U?$less@V?$basic_string@DU?$char_traits@D@std@@V?$allocator@D@2@@std@@@2@V?$allocator@V?$basic_string@DU?$char_traits@D@std@@V?$allocator@D@2@@std@@@2@$0A@@std@@@std@@QEAAPEAU?$_Tree_node@V?$basic_string@DU?$char_traits@D@std@@V?$allocator@D@2@@std@@PEAX@1@AEBV?$basic_string@DU?$char_traits@D@std@@V?$allocator@D@2@@1@@Z 000000018003d130 f i libzmq:dish.obj
 0001:0003c1b0       ??$_Find_unchecked1@V?$_Tree_unchecked_const_iterator@V?$_Tree_val@U?$_Tree_simple_types@V?$basic_string@DU?$char_traits@D@std@@V?$allocator@D@2@@std@@@std@@@std@@U_Iterator_base0@2@@std@@V?$basic_string@DU?$char_traits@D@std@@V?$allocator@D@2@@2@@std@@YA?AV?$_Tree_unchecked_const_iterator@V?$_Tree_val@U?$_Tree_simple_types@V?$basic_string@DU?$char_traits@D@std@@V?$allocator@D@2@@std@@@std@@@std@@U_Iterator_base0@2@@0@V10@0AEBV?$basic_string@DU?$char_traits@D@std@@V?$allocator@D@2@@0@U?$integral_constant@_N$0A@@0@@Z 000000018003d1b0 f i libzmq:dish.obj
 0001:0003c2d0       ??$_Insert_at@AEBV?$basic_string@DU?$char_traits@D@std@@V?$allocator@D@2@@std@@U_Nil@2@@?$_Tree@V?$_Tset_traits@V?$basic_string@DU?$char_traits@D@std@@V?$allocator@D@2@@std@@U?$less@V?$basic_string@DU?$char_traits@D@std@@V?$allocator@D@2@@std@@@2@V?$allocator@V?$basic_string@DU?$char_traits@D@std@@V?$allocator@D@2@@std@@@2@$0A@@std@@@std@@IEAA?AV?$_Tree_const_iterator@V?$_Tree_val@U?$_Tree_simple_types@V?$basic_string@DU?$char_traits@D@std@@V?$allocator@D@2@@std@@@std@@@std@@@1@_NPEAU?$_Tree_node@V?$basic_string@DU?$char_traits@D@std@@V?$allocator@D@2@@std@@PEAX@1@AEBV?$basic_string@DU?$char_traits@D@std@@V?$allocator@D@2@@1@U_Nil@1@@Z 000000018003d2d0 f i libzmq:dish.obj
 0001:0003c5a0       ??$_Insert_nohint@AEBV?$basic_string@DU?$char_traits@D@std@@V?$allocator@D@2@@std@@U_Nil@2@@?$_Tree@V?$_Tset_traits@V?$basic_string@DU?$char_traits@D@std@@V?$allocator@D@2@@std@@U?$less@V?$basic_string@DU?$char_traits@D@std@@V?$allocator@D@2@@std@@@2@V?$allocator@V?$basic_string@DU?$char_traits@D@std@@V?$allocator@D@2@@std@@@2@$0A@@std@@@std@@IEAA?AU?$pair@V?$_Tree_const_iterator@V?$_Tree_val@U?$_Tree_simple_types@V?$basic_string@DU?$char_traits@D@std@@V?$allocator@D@2@@std@@@std@@@std@@@std@@_N@1@_NAEBV?$basic_string@DU?$char_traits@D@std@@V?$allocator@D@2@@1@U_Nil@1@@Z 000000018003d5a0 f i libzmq:dish.obj
 0001:0003c7f0       ??0dish_session_t@zmq@@QEAA@PEAVio_thread_t@1@_NPEAVsocket_base_t@1@AEBUoptions_t@1@PEAUaddress_t@1@@Z 000000018003d7f0 f   libzmq:dish.obj
 0001:0003c850       ??0dish_t@zmq@@QEAA@PEAVctx_t@1@IH@Z 000000018003d850 f   libzmq:dish.obj
 0001:0003c970       ??1?$set@V?$basic_string@DU?$char_traits@D@std@@V?$allocator@D@2@@std@@U?$less@V?$basic_string@DU?$char_traits@D@std@@V?$allocator@D@2@@std@@@2@V?$allocator@V?$basic_string@DU?$char_traits@D@std@@V?$allocator@D@2@@std@@@2@@std@@QEAA@XZ 000000018003d970 f i libzmq:dish.obj
 0001:0003c9b0       ??1dish_session_t@zmq@@UEAA@XZ 000000018003d9b0 f   libzmq:dish.obj
 0001:0003c9e0       ??1dish_t@zmq@@UEAA@XZ     000000018003d9e0 f   libzmq:dish.obj
 0001:0003caf0       ??_Edish_session_t@zmq@@WDCI@EAAPEAXI@Z 000000018003daf0 f i libzmq:dish.obj
 0001:0003cafc       ??_Edish_session_t@zmq@@WDDI@EAAPEAXI@Z 000000018003dafc f i libzmq:dish.obj
 0001:0003cb08       ??_Edish_t@zmq@@WDCI@EAAPEAXI@Z 000000018003db08 f i libzmq:dish.obj
 0001:0003cb14       ??_Edish_t@zmq@@WDDI@EAAPEAXI@Z 000000018003db14 f i libzmq:dish.obj
 0001:0003cb20       ??_Edish_t@zmq@@WDEA@EAAPEAXI@Z 000000018003db20 f i libzmq:dish.obj
 0001:0003cb30       ??_Gdish_session_t@zmq@@UEAAPEAXI@Z 000000018003db30 f i libzmq:dish.obj
 0001:0003cb30       ??_Edish_session_t@zmq@@UEAAPEAXI@Z 000000018003db30 f i libzmq:dish.obj
 0001:0003cb70       ??_Edish_t@zmq@@UEAAPEAXI@Z 000000018003db70 f i libzmq:dish.obj
 0001:0003cb70       ??_Gdish_t@zmq@@UEAAPEAXI@Z 000000018003db70 f i libzmq:dish.obj
 0001:0003cbb0       ?_Buyheadnode@?$_Tree_comp_alloc@V?$_Tset_traits@V?$basic_string@DU?$char_traits@D@std@@V?$allocator@D@2@@std@@U?$less@V?$basic_string@DU?$char_traits@D@std@@V?$allocator@D@2@@std@@@2@V?$allocator@V?$basic_string@DU?$char_traits@D@std@@V?$allocator@D@2@@std@@@2@$0A@@std@@@std@@QEAAPEAU?$_Tree_node@V?$basic_string@DU?$char_traits@D@std@@V?$allocator@D@2@@std@@PEAX@2@XZ 000000018003dbb0 f i libzmq:dish.obj
 0001:0003cc10       ?_Buynode0@?$_Tree_comp_alloc@V?$_Tset_traits@V?$basic_string@DU?$char_traits@D@std@@V?$allocator@D@2@@std@@U?$less@V?$basic_string@DU?$char_traits@D@std@@V?$allocator@D@2@@std@@@2@V?$allocator@V?$basic_string@DU?$char_traits@D@std@@V?$allocator@D@2@@std@@@2@$0A@@std@@@std@@QEAAPEAU?$_Tree_node@V?$basic_string@DU?$char_traits@D@std@@V?$allocator@D@2@@std@@PEAX@2@XZ 000000018003dc10 f i libzmq:dish.obj
 0001:0003cc70       ?_Erase@?$_Tree@V?$_Tmap_traits@V?$basic_string@EU?$char_traits@E@std@@V?$allocator@E@2@@std@@Uoutpipe_t@stream_t@zmq@@U?$less@V?$basic_string@EU?$char_traits@E@std@@V?$allocator@E@2@@std@@@2@V?$allocator@U?$pair@$$CBV?$basic_string@EU?$char_traits@E@std@@V?$allocator@E@2@@std@@Uoutpipe_t@stream_t@zmq@@@std@@@2@$0A@@std@@@std@@IEAAXPEAU?$_Tree_node@U?$pair@$$CBV?$basic_string@EU?$char_traits@E@std@@V?$allocator@E@2@@std@@Uoutpipe_t@stream_t@zmq@@@std@@PEAX@2@@Z 000000018003dc70 f i libzmq:stream.obj
 0001:0003cc70       ?_Erase@?$_Tree@V?$_Tmap_traits@V?$basic_string@DU?$char_traits@D@std@@V?$allocator@D@2@@std@@U?$pair@PEAVown_t@zmq@@PEAVpipe_t@2@@2@U?$less@V?$basic_string@DU?$char_traits@D@std@@V?$allocator@D@2@@std@@@2@V?$allocator@U?$pair@$$CBV?$basic_string@DU?$char_traits@D@std@@V?$allocator@D@2@@std@@U?$pair@PEAVown_t@zmq@@PEAVpipe_t@2@@2@@std@@@2@$00@std@@@std@@IEAAXPEAU?$_Tree_node@U?$pair@$$CBV?$basic_string@DU?$char_traits@D@std@@V?$allocator@D@2@@std@@U?$pair@PEAVown_t@zmq@@PEAVpipe_t@2@@2@@std@@PEAX@2@@Z 000000018003dc70 f i libzmq:socket_base.obj
 0001:0003cc70       ?_Erase@?$_Tree@V?$_Tset_traits@V?$basic_string@DU?$char_traits@D@std@@V?$allocator@D@2@@std@@U?$less@V?$basic_string@DU?$char_traits@D@std@@V?$allocator@D@2@@std@@@2@V?$allocator@V?$basic_string@DU?$char_traits@D@std@@V?$allocator@D@2@@std@@@2@$0A@@std@@@std@@IEAAXPEAU?$_Tree_node@V?$basic_string@DU?$char_traits@D@std@@V?$allocator@D@2@@std@@PEAX@2@@Z 000000018003dc70 f i libzmq:dish.obj
 0001:0003cc70       ?_Erase@?$_Tree@V?$_Tmap_traits@V?$basic_string@DU?$char_traits@D@std@@V?$allocator@D@2@@std@@PEAVpipe_t@zmq@@U?$less@V?$basic_string@DU?$char_traits@D@std@@V?$allocator@D@2@@std@@@2@V?$allocator@U?$pair@$$CBV?$basic_string@DU?$char_traits@D@std@@V?$allocator@D@2@@std@@PEAVpipe_t@zmq@@@std@@@2@$00@std@@@std@@IEAAXPEAU?$_Tree_node@U?$pair@$$CBV?$basic_string@DU?$char_traits@D@std@@V?$allocator@D@2@@std@@PEAVpipe_t@zmq@@@std@@PEAX@2@@Z 000000018003dc70 f i libzmq:socket_base.obj
 0001:0003cc70       ?_Erase@?$_Tree@V?$_Tmap_traits@V?$basic_string@EU?$char_traits@E@std@@V?$allocator@E@2@@std@@Uoutpipe_t@router_t@zmq@@U?$less@V?$basic_string@EU?$char_traits@E@std@@V?$allocator@E@2@@std@@@2@V?$allocator@U?$pair@$$CBV?$basic_string@EU?$char_traits@E@std@@V?$allocator@E@2@@std@@Uoutpipe_t@router_t@zmq@@@std@@@2@$0A@@std@@@std@@IEAAXPEAU?$_Tree_node@U?$pair@$$CBV?$basic_string@EU?$char_traits@E@std@@V?$allocator@E@2@@std@@Uoutpipe_t@router_t@zmq@@@std@@PEAX@2@@Z 000000018003dc70 f i libzmq:router.obj
 0001:0003cd50       ?erase@?$_Tree@V?$_Tset_traits@V?$basic_string@DU?$char_traits@D@std@@V?$allocator@D@2@@std@@U?$less@V?$basic_string@DU?$char_traits@D@std@@V?$allocator@D@2@@std@@@2@V?$allocator@V?$basic_string@DU?$char_traits@D@std@@V?$allocator@D@2@@std@@@2@$0A@@std@@@std@@QEAA?AV?$_Tree_const_iterator@V?$_Tree_val@U?$_Tree_simple_types@V?$basic_string@DU?$char_traits@D@std@@V?$allocator@D@2@@std@@@std@@@std@@@2@V32@0@Z 000000018003dd50 f i libzmq:dish.obj
 0001:0003ce40       ?pull_msg@dish_session_t@zmq@@UEAAHPEAVmsg_t@2@@Z 000000018003de40 f   libzmq:dish.obj
 0001:0003d0d0       ?push_msg@dish_session_t@zmq@@UEAAHPEAVmsg_t@2@@Z 000000018003e0d0 f   libzmq:dish.obj
 0001:0003d300       ?send_subscriptions@dish_t@zmq@@AEAAXPEAVpipe_t@2@@Z 000000018003e300 f   libzmq:dish.obj
 0001:0003d4c0       ?xattach_pipe@dish_t@zmq@@MEAAXPEAVpipe_t@2@_N@Z 000000018003e4c0 f   libzmq:dish.obj
 0001:0003d560       ?xhas_in@dish_t@zmq@@MEAA_NXZ 000000018003e560 f   libzmq:dish.obj
 0001:0003d7f0       ?xhiccuped@dish_t@zmq@@MEAAXPEAVpipe_t@2@@Z 000000018003e7f0 f   libzmq:dish.obj
 0001:0003d800       ?xjoin@dish_t@zmq@@MEAAHPEBD@Z 000000018003e800 f   libzmq:dish.obj
 0001:0003dbd0       ?xleave@dish_t@zmq@@MEAAHPEBD@Z 000000018003ebd0 f   libzmq:dish.obj
 0001:0003de90       ?xrecv@dish_t@zmq@@MEAAHPEAVmsg_t@2@@Z 000000018003ee90 f   libzmq:dish.obj
 0001:0003e0e0       ??0gather_t@zmq@@QEAA@PEAVctx_t@1@IH@Z 000000018003f0e0 f   libzmq:gather.obj
 0001:0003e160       ??1gather_t@zmq@@UEAA@XZ   000000018003f160 f   libzmq:gather.obj
 0001:0003e1b8       ??_Egather_t@zmq@@WDCI@EAAPEAXI@Z 000000018003f1b8 f i libzmq:gather.obj
 0001:0003e1c4       ??_Egather_t@zmq@@WDDI@EAAPEAXI@Z 000000018003f1c4 f i libzmq:gather.obj
 0001:0003e1d0       ??_Egather_t@zmq@@WDEA@EAAPEAXI@Z 000000018003f1d0 f i libzmq:gather.obj
 0001:0003e1e0       ??_Ggather_t@zmq@@UEAAPEAXI@Z 000000018003f1e0 f i libzmq:gather.obj
 0001:0003e1e0       ??_Egather_t@zmq@@UEAAPEAXI@Z 000000018003f1e0 f i libzmq:gather.obj
 0001:0003e220       ?xattach_pipe@gather_t@zmq@@MEAAXPEAVpipe_t@2@_N@Z 000000018003f220 f   libzmq:gather.obj
 0001:0003e2a0       ?xhas_in@pull_t@zmq@@MEAA_NXZ 000000018003f2a0 f   libzmq:pull.obj
 0001:0003e2a0       ?xhas_in@gather_t@zmq@@MEAA_NXZ 000000018003f2a0 f   libzmq:gather.obj
 0001:0003e2a0       ?xhas_in@client_t@zmq@@MEAA_NXZ 000000018003f2a0 f   libzmq:client.obj
 0001:0003e2a0       ?xhas_in@dealer_t@zmq@@MEAA_NXZ 000000018003f2a0 f   libzmq:dealer.obj
 0001:0003e2a0       ?xhas_in@server_t@zmq@@UEAA_NXZ 000000018003f2a0 f   libzmq:server.obj
 0001:0003e2b0       ??0scatter_t@zmq@@QEAA@PEAVctx_t@1@IH@Z 000000018003f2b0 f   libzmq:scatter.obj
 0001:0003e330       ??1scatter_t@zmq@@UEAA@XZ  000000018003f330 f   libzmq:scatter.obj
 0001:0003e388       ??_Escatter_t@zmq@@WDCI@EAAPEAXI@Z 000000018003f388 f i libzmq:scatter.obj
 0001:0003e394       ??_Escatter_t@zmq@@WDDI@EAAPEAXI@Z 000000018003f394 f i libzmq:scatter.obj
 0001:0003e3a0       ??_Escatter_t@zmq@@WDEA@EAAPEAXI@Z 000000018003f3a0 f i libzmq:scatter.obj
 0001:0003e3b0       ??_Escatter_t@zmq@@UEAAPEAXI@Z 000000018003f3b0 f i libzmq:scatter.obj
 0001:0003e3b0       ??_Gscatter_t@zmq@@UEAAPEAXI@Z 000000018003f3b0 f i libzmq:scatter.obj
 0001:0003e3f0       ?xattach_pipe@scatter_t@zmq@@MEAAXPEAVpipe_t@2@_N@Z 000000018003f3f0 f   libzmq:scatter.obj
 0001:0003e470       ?xpipe_terminated@scatter_t@zmq@@MEAAXPEAVpipe_t@2@@Z 000000018003f470 f   libzmq:scatter.obj
 0001:0003e470       ?xpipe_terminated@push_t@zmq@@MEAAXPEAVpipe_t@2@@Z 000000018003f470 f   libzmq:push.obj
 0001:0003e480       ?xsend@scatter_t@zmq@@MEAAHPEAVmsg_t@2@@Z 000000018003f480 f   libzmq:scatter.obj
 0001:0003e4d0       ?xwrite_activated@push_t@zmq@@MEAAXPEAVpipe_t@2@@Z 000000018003f4d0 f   libzmq:push.obj
 0001:0003e4d0       ?xwrite_activated@scatter_t@zmq@@MEAAXPEAVpipe_t@2@@Z 000000018003f4d0 f   libzmq:scatter.obj
 0001:0003e4e0       ??0dgram_t@zmq@@QEAA@PEAVctx_t@1@IH@Z 000000018003f4e0 f   libzmq:dgram.obj
 0001:0003e570       ??1dgram_t@zmq@@UEAA@XZ    000000018003f570 f   libzmq:dgram.obj
 0001:0003e62c       ??_Edgram_t@zmq@@WDCI@EAAPEAXI@Z 000000018003f62c f i libzmq:dgram.obj
 0001:0003e638       ??_Edgram_t@zmq@@WDDI@EAAPEAXI@Z 000000018003f638 f i libzmq:dgram.obj
 0001:0003e644       ??_Edgram_t@zmq@@WDEA@EAAPEAXI@Z 000000018003f644 f i libzmq:dgram.obj
 0001:0003e650       ??_Edgram_t@zmq@@UEAAPEAXI@Z 000000018003f650 f i libzmq:dgram.obj
 0001:0003e650       ??_Gdgram_t@zmq@@UEAAPEAXI@Z 000000018003f650 f i libzmq:dgram.obj
 0001:0003e690       ?get_credential@dgram_t@zmq@@UEBA?AV?$basic_string@EU?$char_traits@E@std@@V?$allocator@E@2@@std@@XZ 000000018003f690 f   libzmq:dgram.obj
 0001:0003e840       ?xattach_pipe@dgram_t@zmq@@UEAAXPEAVpipe_t@2@_N@Z 000000018003f840 f   libzmq:dgram.obj
 0001:0003e8d0       ?xhas_out@pair_t@zmq@@UEAA_NXZ 000000018003f8d0 f   libzmq:pair.obj
 0001:0003e8d0       ?xhas_out@dgram_t@zmq@@UEAA_NXZ 000000018003f8d0 f   libzmq:dgram.obj
 0001:0003e8f0       ?xrecv@dgram_t@zmq@@UEAAHPEAVmsg_t@2@@Z 000000018003f8f0 f   libzmq:dgram.obj
 0001:0003ea20       ?xsend@dgram_t@zmq@@UEAAHPEAVmsg_t@2@@Z 000000018003fa20 f   libzmq:dgram.obj
 0001:0003eba0       ??$_Buynode@U?$pair@$$CB_KUtimer_info_t@poller_base_t@zmq@@@std@@@?$_Tree_comp_alloc@V?$_Tmap_traits@_KUtimer_info_t@poller_base_t@zmq@@U?$less@_K@std@@V?$allocator@U?$pair@$$CB_KUtimer_info_t@poller_base_t@zmq@@@std@@@5@$00@std@@@std@@QEAAPEAU?$_Tree_node@U?$pair@$$CB_KUtimer_info_t@poller_base_t@zmq@@@std@@PEAX@1@$$QEAU?$pair@$$CB_KUtimer_info_t@poller_base_t@zmq@@@1@@Z 000000018003fba0 f i libzmq:poller_base.obj
 0001:0003ebf0       ??$_Insert_at@U?$pair@$$CB_KUtimer_info_t@poller_base_t@zmq@@@std@@U_Nil@2@@?$_Tree@V?$_Tmap_traits@_KUtimer_info_t@poller_base_t@zmq@@U?$less@_K@std@@V?$allocator@U?$pair@$$CB_KUtimer_info_t@poller_base_t@zmq@@@std@@@5@$00@std@@@std@@IEAA?AV?$_Tree_iterator@V?$_Tree_val@U?$_Tree_simple_types@U?$pair@$$CB_KUtimer_info_t@poller_base_t@zmq@@@std@@@std@@@std@@@1@_NPEAU?$_Tree_node@U?$pair@$$CB_KUtimer_info_t@poller_base_t@zmq@@@std@@PEAX@1@$$QEAU?$pair@$$CB_KUtimer_info_t@poller_base_t@zmq@@@1@U_Nil@1@@Z 000000018003fbf0 f i libzmq:poller_base.obj
 0001:0003eec0       ??$_Insert_nohint@U?$pair@$$CB_KUtimer_info_t@poller_base_t@zmq@@@std@@U_Nil@2@@?$_Tree@V?$_Tmap_traits@_KUtimer_info_t@poller_base_t@zmq@@U?$less@_K@std@@V?$allocator@U?$pair@$$CB_KUtimer_info_t@poller_base_t@zmq@@@std@@@5@$00@std@@@std@@IEAA?AU?$pair@V?$_Tree_iterator@V?$_Tree_val@U?$_Tree_simple_types@U?$pair@$$CB_KUtimer_info_t@poller_base_t@zmq@@@std@@@std@@@std@@@std@@_N@1@_N$$QEAU?$pair@$$CB_KUtimer_info_t@poller_base_t@zmq@@@1@U_Nil@1@@Z 000000018003fec0 f i libzmq:poller_base.obj
 0001:0003ef60       ??0poller_base_t@zmq@@QEAA@XZ 000000018003ff60 f   libzmq:poller_base.obj
 0001:0003efd0       ??1poller_base_t@zmq@@UEAA@XZ 000000018003ffd0 f   libzmq:poller_base.obj
 0001:0003f090       ??_Epoller_base_t@zmq@@UEAAPEAXI@Z 0000000180040090 f i libzmq:poller_base.obj
 0001:0003f090       ??_Gpoller_base_t@zmq@@UEAAPEAXI@Z 0000000180040090 f i libzmq:poller_base.obj
 0001:0003f0d0       ?_Buyheadnode@?$_Tree_comp_alloc@V?$_Tmap_traits@_KUtimer_info_t@poller_base_t@zmq@@U?$less@_K@std@@V?$allocator@U?$pair@$$CB_KUtimer_info_t@poller_base_t@zmq@@@std@@@5@$00@std@@@std@@QEAAPEAU?$_Tree_node@U?$pair@$$CB_KUtimer_info_t@poller_base_t@zmq@@@std@@PEAX@2@XZ 00000001800400d0 f i libzmq:poller_base.obj
 0001:0003f130       ?_Buynode0@?$_Tree_comp_alloc@V?$_Tmap_traits@_KUtimer_info_t@poller_base_t@zmq@@U?$less@_K@std@@V?$allocator@U?$pair@$$CB_KUtimer_info_t@poller_base_t@zmq@@@std@@@5@$00@std@@@std@@QEAAPEAU?$_Tree_node@U?$pair@$$CB_KUtimer_info_t@poller_base_t@zmq@@@std@@PEAX@2@XZ 0000000180040130 f i libzmq:poller_base.obj
 0001:0003f190       ?add_timer@poller_base_t@zmq@@QEAAXHPEAUi_poll_events@2@H@Z 0000000180040190 f   libzmq:poller_base.obj
 0001:0003f210       ?adjust_load@poller_base_t@zmq@@IEAAXH@Z 0000000180040210 f   libzmq:poller_base.obj
 0001:0003f220       ?cancel_timer@poller_base_t@zmq@@QEAAXPEAUi_poll_events@2@H@Z 0000000180040220 f   libzmq:poller_base.obj
 0001:0003f300       ?clear@?$_Tree@V?$_Tmap_traits@_KUtimer_info_t@poller_base_t@zmq@@U?$less@_K@std@@V?$allocator@U?$pair@$$CB_KUtimer_info_t@poller_base_t@zmq@@@std@@@5@$00@std@@@std@@QEAAXXZ 0000000180040300 f i libzmq:poller_base.obj
 0001:0003f380       ?erase@?$_Tree@V?$_Tmap_traits@_KUtimer_info_t@poller_base_t@zmq@@U?$less@_K@std@@V?$allocator@U?$pair@$$CB_KUtimer_info_t@poller_base_t@zmq@@@std@@@5@$00@std@@@std@@QEAA?AV?$_Tree_iterator@V?$_Tree_val@U?$_Tree_simple_types@U?$pair@$$CB_KUtimer_info_t@poller_base_t@zmq@@@std@@@std@@@std@@@2@V?$_Tree_const_iterator@V?$_Tree_val@U?$_Tree_simple_types@U?$pair@$$CB_KUtimer_info_t@poller_base_t@zmq@@@std@@@std@@@std@@@2@0@Z 0000000180040380 f i libzmq:poller_base.obj
 0001:0003f460       ?erase@?$_Tree@V?$_Tset_traits@PEAVown_t@zmq@@U?$less@PEAVown_t@zmq@@@std@@V?$allocator@PEAVown_t@zmq@@@4@$0A@@std@@@std@@QEAA?AV?$_Tree_const_iterator@V?$_Tree_val@U?$_Tree_simple_types@PEAVown_t@zmq@@@std@@@std@@@2@V32@@Z 0000000180040460 f i libzmq:own.obj
 0001:0003f460       ?erase@?$_Tree@V?$_Tset_traits@PEAVpipe_t@zmq@@U?$less@PEAVpipe_t@zmq@@@std@@V?$allocator@PEAVpipe_t@zmq@@@4@$0A@@std@@@std@@QEAA?AV?$_Tree_const_iterator@V?$_Tree_val@U?$_Tree_simple_types@PEAVpipe_t@zmq@@@std@@@std@@@2@V32@@Z 0000000180040460 f i libzmq:session_base.obj
 0001:0003f460       ?erase@?$_Tree@V?$_Tmap_traits@IUoutpipe_t@server_t@zmq@@U?$less@I@std@@V?$allocator@U?$pair@$$CBIUoutpipe_t@server_t@zmq@@@std@@@5@$0A@@std@@@std@@QEAA?AV?$_Tree_iterator@V?$_Tree_val@U?$_Tree_simple_types@U?$pair@$$CBIUoutpipe_t@server_t@zmq@@@std@@@std@@@std@@@2@V?$_Tree_const_iterator@V?$_Tree_val@U?$_Tree_simple_types@U?$pair@$$CBIUoutpipe_t@server_t@zmq@@@std@@@std@@@std@@@2@@Z 0000000180040460 f i libzmq:server.obj
 0001:0003f460       ?erase@?$_Tree@V?$_Tmap_traits@_KUtimer_info_t@poller_base_t@zmq@@U?$less@_K@std@@V?$allocator@U?$pair@$$CB_KUtimer_info_t@poller_base_t@zmq@@@std@@@5@$00@std@@@std@@QEAA?AV?$_Tree_iterator@V?$_Tree_val@U?$_Tree_simple_types@U?$pair@$$CB_KUtimer_info_t@poller_base_t@zmq@@@std@@@std@@@std@@@2@V?$_Tree_const_iterator@V?$_Tree_val@U?$_Tree_simple_types@U?$pair@$$CB_KUtimer_info_t@poller_base_t@zmq@@@std@@@std@@@std@@@2@@Z 0000000180040460 f i libzmq:poller_base.obj
 0001:0003f840       ?execute_timers@poller_base_t@zmq@@IEAA_KXZ 0000000180040840 f   libzmq:poller_base.obj
 0001:0003f930       ?get_load@poller_base_t@zmq@@QEAAHXZ 0000000180040930 f   libzmq:poller_base.obj
 0001:0003f940       ?enable_ipv4_mapping@zmq@@YAX_K@Z 0000000180040940 f   libzmq:ip.obj
 0001:0003f9d0       ?get_peer_ip_address@zmq@@YAH_KAEAV?$basic_string@DU?$char_traits@D@std@@V?$allocator@D@2@@std@@@Z 00000001800409d0 f   libzmq:ip.obj
 0001:0003fb20       ?open_socket@zmq@@YA_KHHH@Z 0000000180040b20 f   libzmq:ip.obj
 0001:0003fbe0       ?set_ip_type_of_service@zmq@@YAX_KH@Z 0000000180040be0 f   libzmq:ip.obj
 0001:0003fc70       ?unblock_socket@zmq@@YAX_K@Z 0000000180040c70 f   libzmq:ip.obj
 0001:0003fd00       ??0io_object_t@zmq@@QEAA@PEAVio_thread_t@1@@Z 0000000180040d00 f   libzmq:io_object.obj
 0001:0003fd40       ??1i_poll_events@zmq@@UEAA@XZ 0000000180040d40 f   libzmq:socket_base.obj
 0001:0003fd40       ??1io_object_t@zmq@@UEAA@XZ 0000000180040d40 f   libzmq:io_object.obj
 0001:0003fd50       ??_Eio_object_t@zmq@@UEAAPEAXI@Z 0000000180040d50 f i libzmq:io_object.obj
 0001:0003fd50       ??_Gio_object_t@zmq@@UEAAPEAXI@Z 0000000180040d50 f i libzmq:io_object.obj
 0001:0003fd90       ?add_fd@io_object_t@zmq@@IEAA_K_K@Z 0000000180040d90 f   libzmq:io_object.obj
 0001:0003fda0       ?add_timer@io_object_t@zmq@@IEAAXHH@Z 0000000180040da0 f   libzmq:io_object.obj
 0001:0003fdb0       ?cancel_timer@io_object_t@zmq@@IEAAXH@Z 0000000180040db0 f   libzmq:io_object.obj
 0001:0003fdc0       ?in_event@io_object_t@zmq@@MEAAXXZ 0000000180040dc0 f   libzmq:io_object.obj
 0001:0003fe20       ?out_event@io_object_t@zmq@@MEAAXXZ 0000000180040e20 f   libzmq:io_object.obj
 0001:0003fe80       ?plug@io_object_t@zmq@@QEAAXPEAVio_thread_t@2@@Z 0000000180040e80 f   libzmq:io_object.obj
 0001:0003ff50       ?reset_pollin@io_object_t@zmq@@IEAAX_K@Z 0000000180040f50 f   libzmq:io_object.obj
 0001:0003ff60       ?reset_pollout@io_object_t@zmq@@IEAAX_K@Z 0000000180040f60 f   libzmq:io_object.obj
 0001:0003ff70       ?rm_fd@io_object_t@zmq@@IEAAX_K@Z 0000000180040f70 f   libzmq:io_object.obj
 0001:0003ff80       ?set_pollin@io_object_t@zmq@@IEAAX_K@Z 0000000180040f80 f   libzmq:io_object.obj
 0001:0003ff90       ?set_pollout@io_object_t@zmq@@IEAAX_K@Z 0000000180040f90 f   libzmq:io_object.obj
 0001:0003ffa0       ?timer_event@io_object_t@zmq@@MEAAXH@Z 0000000180040fa0 f   libzmq:io_object.obj
 0001:00040000       ?unplug@io_object_t@zmq@@QEAAXXZ 0000000180041000 f   libzmq:io_object.obj
 0001:00040080       ??$?0PEBDV?$basic_string@DU?$char_traits@D@std@@V?$allocator@D@2@@std@@X$0A@@?$pair@$$CBV?$basic_string@DU?$char_traits@D@std@@V?$allocator@D@2@@std@@V12@@std@@QEAA@$$QEAU?$pair@PEBDV?$basic_string@DU?$char_traits@D@std@@V?$allocator@D@2@@std@@@1@@Z 0000000180041080 f i libzmq:stream_engine.obj
 0001:00040100       ??$_Buynode@AEBU?$pair@$$CBV?$basic_string@DU?$char_traits@D@std@@V?$allocator@D@2@@std@@V12@@std@@@?$_Tree_comp_alloc@V?$_Tmap_traits@V?$basic_string@DU?$char_traits@D@std@@V?$allocator@D@2@@std@@V12@U?$less@V?$basic_string@DU?$char_traits@D@std@@V?$allocator@D@2@@std@@@2@V?$allocator@U?$pair@$$CBV?$basic_string@DU?$char_traits@D@std@@V?$allocator@D@2@@std@@V12@@std@@@2@$0A@@std@@@std@@QEAAPEAU?$_Tree_node@U?$pair@$$CBV?$basic_string@DU?$char_traits@D@std@@V?$allocator@D@2@@std@@V12@@std@@PEAX@1@AEBU?$pair@$$CBV?$basic_string@DU?$char_traits@D@std@@V?$allocator@D@2@@std@@V12@@1@@Z 0000000180041100 f i libzmq:stream_engine.obj
 0001:00040160       ??$_Buynode@U?$pair@PEBDV?$basic_string@DU?$char_traits@D@std@@V?$allocator@D@2@@std@@@std@@@?$_Tree_comp_alloc@V?$_Tmap_traits@V?$basic_string@DU?$char_traits@D@std@@V?$allocator@D@2@@std@@V12@U?$less@V?$basic_string@DU?$char_traits@D@std@@V?$allocator@D@2@@std@@@2@V?$allocator@U?$pair@$$CBV?$basic_string@DU?$char_traits@D@std@@V?$allocator@D@2@@std@@V12@@std@@@2@$0A@@std@@@std@@QEAAPEAU?$_Tree_node@U?$pair@$$CBV?$basic_string@DU?$char_traits@D@std@@V?$allocator@D@2@@std@@V12@@std@@PEAX@1@$$QEAU?$pair@PEBDV?$basic_string@DU?$char_traits@D@std@@V?$allocator@D@2@@std@@@1@@Z 0000000180041160 f i libzmq:stream_engine.obj
 0001:000401c0       ??$_Insert_at@AEAU?$pair@$$CBV?$basic_string@DU?$char_traits@D@std@@V?$allocator@D@2@@std@@V12@@std@@PEAU?$_Tree_node@U?$pair@$$CBV?$basic_string@DU?$char_traits@D@std@@V?$allocator@D@2@@std@@V12@@std@@PEAX@2@@?$_Tree@V?$_Tmap_traits@V?$basic_string@DU?$char_traits@D@std@@V?$allocator@D@2@@std@@V12@U?$less@V?$basic_string@DU?$char_traits@D@std@@V?$allocator@D@2@@std@@@2@V?$allocator@U?$pair@$$CBV?$basic_string@DU?$char_traits@D@std@@V?$allocator@D@2@@std@@V12@@std@@@2@$0A@@std@@@std@@IEAA?AV?$_Tree_iterator@V?$_Tree_val@U?$_Tree_simple_types@U?$pair@$$CBV?$basic_string@DU?$char_traits@D@std@@V?$allocator@D@2@@std@@V12@@std@@@std@@@std@@@1@_NPEAU?$_Tree_node@U?$pair@$$CBV?$basic_string@DU?$char_traits@D@std@@V?$allocator@D@2@@std@@V12@@std@@PEAX@1@AEAU?$pair@$$CBV?$basic_string@DU?$char_traits@D@std@@V?$allocator@D@2@@std@@V12@@1@1@Z 00000001800411c0 f i libzmq:stream_engine.obj
 0001:00040480       ??$_Insert_hint@AEAU?$pair@$$CBV?$basic_string@DU?$char_traits@D@std@@V?$allocator@D@2@@std@@V12@@std@@PEAU?$_Tree_node@U?$pair@$$CBV?$basic_string@DU?$char_traits@D@std@@V?$allocator@D@2@@std@@V12@@std@@PEAX@2@@?$_Tree@V?$_Tmap_traits@V?$basic_string@DU?$char_traits@D@std@@V?$allocator@D@2@@std@@V12@U?$less@V?$basic_string@DU?$char_traits@D@std@@V?$allocator@D@2@@std@@@2@V?$allocator@U?$pair@$$CBV?$basic_string@DU?$char_traits@D@std@@V?$allocator@D@2@@std@@V12@@std@@@2@$0A@@std@@@std@@IEAA?AV?$_Tree_iterator@V?$_Tree_val@U?$_Tree_simple_types@U?$pair@$$CBV?$basic_string@DU?$char_traits@D@std@@V?$allocator@D@2@@std@@V12@@std@@@std@@@std@@@1@V?$_Tree_const_iterator@V?$_Tree_val@U?$_Tree_simple_types@U?$pair@$$CBV?$basic_string@DU?$char_traits@D@std@@V?$allocator@D@2@@std@@V12@@std@@@std@@@std@@@1@AEAU?$pair@$$CBV?$basic_string@DU?$char_traits@D@std@@V?$allocator@D@2@@std@@V12@@1@PEAU?$_Tree_node@U?$pair@$$CBV?$basic_string@DU?$char_traits@D@std@@V?$allocator@D@2@@std@@V12@@std@@PEAX@1@@Z 0000000180041480 f i libzmq:stream_engine.obj
 0001:00040740       ??$_Insert_nohint@AEAU?$pair@$$CBV?$basic_string@DU?$char_traits@D@std@@V?$allocator@D@2@@std@@V12@@std@@PEAU?$_Tree_node@U?$pair@$$CBV?$basic_string@DU?$char_traits@D@std@@V?$allocator@D@2@@std@@V12@@std@@PEAX@2@@?$_Tree@V?$_Tmap_traits@V?$basic_string@DU?$char_traits@D@std@@V?$allocator@D@2@@std@@V12@U?$less@V?$basic_string@DU?$char_traits@D@std@@V?$allocator@D@2@@std@@@2@V?$allocator@U?$pair@$$CBV?$basic_string@DU?$char_traits@D@std@@V?$allocator@D@2@@std@@V12@@std@@@2@$0A@@std@@@std@@IEAA?AU?$pair@V?$_Tree_iterator@V?$_Tree_val@U?$_Tree_simple_types@U?$pair@$$CBV?$basic_string@DU?$char_traits@D@std@@V?$allocator@D@2@@std@@V12@@std@@@std@@@std@@@std@@_N@1@_NAEAU?$pair@$$CBV?$basic_string@DU?$char_traits@D@std@@V?$allocator@D@2@@std@@V12@@1@PEAU?$_Tree_node@U?$pair@$$CBV?$basic_string@DU?$char_traits@D@std@@V?$allocator@D@2@@std@@V12@@std@@PEAX@1@@Z 0000000180041740 f i libzmq:stream_engine.obj
 0001:000409c0       ??$insert@V?$_Tree_const_iterator@V?$_Tree_val@U?$_Tree_simple_types@U?$pair@$$CBV?$basic_string@DU?$char_traits@D@std@@V?$allocator@D@2@@std@@V12@@std@@@std@@@std@@@std@@@?$_Tree@V?$_Tmap_traits@V?$basic_string@DU?$char_traits@D@std@@V?$allocator@D@2@@std@@V12@U?$less@V?$basic_string@DU?$char_traits@D@std@@V?$allocator@D@2@@std@@@2@V?$allocator@U?$pair@$$CBV?$basic_string@DU?$char_traits@D@std@@V?$allocator@D@2@@std@@V12@@std@@@2@$0A@@std@@@std@@QEAAXV?$_Tree_const_iterator@V?$_Tree_val@U?$_Tree_simple_types@U?$pair@$$CBV?$basic_string@DU?$char_traits@D@std@@V?$allocator@D@2@@std@@V12@@std@@@std@@@std@@@1@0@Z 00000001800419c0 f i libzmq:stream_engine.obj
 0001:00040a90       ??$make_pair@AEAY0N@$$CBDAEAV?$basic_string@DU?$char_traits@D@std@@V?$allocator@D@2@@std@@@std@@YA?AU?$pair@PEBDV?$basic_string@DU?$char_traits@D@std@@V?$allocator@D@2@@std@@@0@AEAY0N@$$CBDAEAV?$basic_string@DU?$char_traits@D@std@@V?$allocator@D@2@@0@@Z 0000000180041a90 f i libzmq:stream_engine.obj
 0001:00040a90       ??$make_pair@AEAY04$$CBDAEAV?$basic_string@DU?$char_traits@D@std@@V?$allocator@D@2@@std@@@std@@YA?AU?$pair@PEBDV?$basic_string@DU?$char_traits@D@std@@V?$allocator@D@2@@std@@@0@AEAY04$$CBDAEAV?$basic_string@DU?$char_traits@D@std@@V?$allocator@D@2@@0@@Z 0000000180041a90 f i libzmq:stream_engine.obj
 0001:00040ad0       ??0?$basic_stringbuf@DU?$char_traits@D@std@@V?$allocator@D@2@@std@@QEAA@H@Z 0000000180041ad0 f i libzmq:stream_engine.obj
 0001:00040b50       ??0stream_engine_t@zmq@@QEAA@_KAEBUoptions_t@1@AEBV?$basic_string@DU?$char_traits@D@std@@V?$allocator@D@2@@std@@@Z 0000000180041b50 f   libzmq:stream_engine.obj
 0001:00040d90       ??1?$basic_ostringstream@DU?$char_traits@D@std@@V?$allocator@D@2@@std@@UEAA@XZ 0000000180041d90 f i libzmq:stream_engine.obj
 0001:00040e10       ??1?$map@V?$basic_string@DU?$char_traits@D@std@@V?$allocator@D@2@@std@@V12@U?$less@V?$basic_string@DU?$char_traits@D@std@@V?$allocator@D@2@@std@@@2@V?$allocator@U?$pair@$$CBV?$basic_string@DU?$char_traits@D@std@@V?$allocator@D@2@@std@@V12@@std@@@2@@std@@QEAA@XZ 0000000180041e10 f i libzmq:stream_engine.obj
 0001:00040e50       ??1i_engine@zmq@@UEAA@XZ   0000000180041e50 f i libzmq:stream_engine.obj
 0001:00040e60       ??1stream_engine_t@zmq@@UEAA@XZ 0000000180041e60 f   libzmq:stream_engine.obj
 0001:00041120       ??_D?$basic_ostringstream@DU?$char_traits@D@std@@V?$allocator@D@2@@std@@QEAAXXZ 0000000180042120 f i libzmq:stream_engine.obj
 0001:00041158       ??_E?$basic_ostringstream@DU?$char_traits@D@std@@V?$allocator@D@2@@std@@$4PPPPPPPM@A@EAAPEAXI@Z 0000000180042158 f i libzmq:stream_engine.obj
 0001:00041164       ??_Estream_engine_t@zmq@@WBA@EAAPEAXI@Z 0000000180042164 f i libzmq:stream_engine.obj
 0001:00041170       ??_G?$basic_ostringstream@DU?$char_traits@D@std@@V?$allocator@D@2@@std@@UEAAPEAXI@Z 0000000180042170 f i libzmq:stream_engine.obj
 0001:00041170       ??_E?$basic_ostringstream@DU?$char_traits@D@std@@V?$allocator@D@2@@std@@UEAAPEAXI@Z 0000000180042170 f i libzmq:stream_engine.obj
 0001:000411d0       ??_Ei_engine@zmq@@UEAAPEAXI@Z 00000001800421d0 f i libzmq:stream_engine.obj
 0001:000411d0       ??_Gi_engine@zmq@@UEAAPEAXI@Z 00000001800421d0 f i libzmq:stream_engine.obj
 0001:00041200       ??_Gstream_engine_t@zmq@@UEAAPEAXI@Z 0000000180042200 f i libzmq:stream_engine.obj
 0001:00041200       ??_Estream_engine_t@zmq@@UEAAPEAXI@Z 0000000180042200 f i libzmq:stream_engine.obj
 0001:00041240       ?_Destroy_if_not_nil@?$_Tree@V?$_Tmap_traits@V?$basic_string@DU?$char_traits@D@std@@V?$allocator@D@2@@std@@V12@U?$less@V?$basic_string@DU?$char_traits@D@std@@V?$allocator@D@2@@std@@@2@V?$allocator@U?$pair@$$CBV?$basic_string@DU?$char_traits@D@std@@V?$allocator@D@2@@std@@V12@@std@@@2@$0A@@std@@@std@@IEAAXPEAU?$_Tree_node@U?$pair@$$CBV?$basic_string@DU?$char_traits@D@std@@V?$allocator@D@2@@std@@V12@@std@@PEAX@2@@Z 0000000180042240 f i libzmq:stream_engine.obj
 0001:00041280       ?decode_and_push@stream_engine_t@zmq@@AEAAHPEAVmsg_t@2@@Z 0000000180042280 f   libzmq:stream_engine.obj
 0001:000413d0       ?error@stream_engine_t@zmq@@AEAAXW4error_reason_t@12@@Z 00000001800423d0 f   libzmq:stream_engine.obj
 0001:000414f0       ?handshake@stream_engine_t@zmq@@AEAA_NXZ 00000001800424f0 f   libzmq:stream_engine.obj
 0001:00042060       ?identity_msg@stream_engine_t@zmq@@AEAAHPEAVmsg_t@2@@Z 0000000180043060 f   libzmq:stream_engine.obj
 0001:00042140       ?in_event@stream_engine_t@zmq@@UEAAXXZ 0000000180043140 f   libzmq:stream_engine.obj
 0001:000423e0       ?init_properties@stream_engine_t@zmq@@AEAA_NAEAV?$map@V?$basic_string@DU?$char_traits@D@std@@V?$allocator@D@2@@std@@V12@U?$less@V?$basic_string@DU?$char_traits@D@std@@V?$allocator@D@2@@std@@@2@V?$allocator@U?$pair@$$CBV?$basic_string@DU?$char_traits@D@std@@V?$allocator@D@2@@std@@V12@@std@@@2@@std@@@Z 00000001800433e0 f   libzmq:stream_engine.obj
 0001:00042600       ?mechanism_ready@stream_engine_t@zmq@@AEAAXXZ 0000000180043600 f   libzmq:stream_engine.obj
 0001:00042870       ?next_handshake_command@stream_engine_t@zmq@@AEAAHPEAVmsg_t@2@@Z 0000000180043870 f   libzmq:stream_engine.obj
 0001:00042960       ?out_event@stream_engine_t@zmq@@UEAAXXZ 0000000180043960 f   libzmq:stream_engine.obj
 0001:00042be0       ?plug@stream_engine_t@zmq@@UEAAXPEAVio_thread_t@2@PEAVsession_base_t@2@@Z 0000000180043be0 f   libzmq:stream_engine.obj
 0001:000430b0       ?process_handshake_command@stream_engine_t@zmq@@AEAAHPEAVmsg_t@2@@Z 00000001800440b0 f   libzmq:stream_engine.obj
 0001:000431a0       ?process_heartbeat_message@stream_engine_t@zmq@@AEAAHPEAVmsg_t@2@@Z 00000001800441a0 f   libzmq:stream_engine.obj
 0001:00043250       ?process_identity_msg@stream_engine_t@zmq@@AEAAHPEAVmsg_t@2@@Z 0000000180044250 f   libzmq:stream_engine.obj
 0001:000433c0       ?produce_ping_message@stream_engine_t@zmq@@AEAAHPEAVmsg_t@2@@Z 00000001800443c0 f   libzmq:stream_engine.obj
 0001:00043540       ?produce_pong_message@stream_engine_t@zmq@@AEAAHPEAVmsg_t@2@@Z 0000000180044540 f   libzmq:stream_engine.obj
 0001:00043680       ?pull_and_encode@stream_engine_t@zmq@@AEAAHPEAVmsg_t@2@@Z 0000000180044680 f   libzmq:stream_engine.obj
 0001:00043740       ?pull_msg_from_session@stream_engine_t@zmq@@AEAAHPEAVmsg_t@2@@Z 0000000180044740 f   libzmq:stream_engine.obj
 0001:00043760       ?push_msg_to_session@stream_engine_t@zmq@@AEAAHPEAVmsg_t@2@@Z 0000000180044760 f   libzmq:stream_engine.obj
 0001:00043780       ?push_one_then_decode_and_push@stream_engine_t@zmq@@AEAAHPEAVmsg_t@2@@Z 0000000180044780 f   libzmq:stream_engine.obj
 0001:000437c0       ?push_raw_msg_to_session@stream_engine_t@zmq@@AEAAHPEAVmsg_t@2@@Z 00000001800447c0 f   libzmq:stream_engine.obj
 0001:00043820       ?restart_input@stream_engine_t@zmq@@UEAAXXZ 0000000180044820 f   libzmq:stream_engine.obj
 0001:00043b00       ?restart_output@stream_engine_t@zmq@@UEAAXXZ 0000000180044b00 f   libzmq:stream_engine.obj
 0001:00043b50       ?set_handshake_timer@stream_engine_t@zmq@@AEAAXXZ 0000000180044b50 f   libzmq:stream_engine.obj
 0001:00043be0       ?str@?$basic_ostringstream@DU?$char_traits@D@std@@V?$allocator@D@2@@std@@QEBA?AV?$basic_string@DU?$char_traits@D@std@@V?$allocator@D@2@@2@XZ 0000000180044be0 f i libzmq:stream_engine.obj
 0001:00043c10       ?terminate@stream_engine_t@zmq@@UEAAXXZ 0000000180044c10 f   libzmq:stream_engine.obj
 0001:00043c40       ?timer_event@stream_engine_t@zmq@@UEAAXH@Z 0000000180044c40 f   libzmq:stream_engine.obj
 0001:00043cf0       ?unplug@stream_engine_t@zmq@@AEAAXXZ 0000000180044cf0 f   libzmq:stream_engine.obj
 0001:00043e00       ?write_credential@stream_engine_t@zmq@@AEAAHPEAVmsg_t@2@@Z 0000000180044e00 f   libzmq:stream_engine.obj
 0001:000440d0       ?write_subscription_msg@stream_engine_t@zmq@@AEAAHPEAVmsg_t@2@@Z 00000001800450d0 f   libzmq:stream_engine.obj
 0001:000441f0       ?zap_msg_available@stream_engine_t@zmq@@UEAAXXZ 00000001800451f0 f   libzmq:stream_engine.obj
 0001:000442b0       ?set_tcp_receive_buffer@zmq@@YAX_KH@Z 00000001800452b0 f   libzmq:tcp.obj
 0001:00044340       ?set_tcp_send_buffer@zmq@@YAX_KH@Z 0000000180045340 f   libzmq:tcp.obj
 0001:000443d0       ?tcp_read@zmq@@YAH_KPEAX0@Z 00000001800453d0 f   libzmq:tcp.obj
 0001:000444b0       ?tcp_write@zmq@@YAH_KPEBX0@Z 00000001800454b0 f   libzmq:tcp.obj
 0001:00044570       ?tune_tcp_keepalives@zmq@@YAX_KHHHH@Z 0000000180045570 f   libzmq:tcp.obj
 0001:00044680       ?tune_tcp_maxrt@zmq@@YAX_KH@Z 0000000180045680 f   libzmq:tcp.obj
 0001:00044730       ?tune_tcp_socket@zmq@@YAX_K@Z 0000000180045730 f   libzmq:tcp.obj
 0001:000447c0       ??0tcp_connecter_t@zmq@@QEAA@PEAVio_thread_t@1@PEAVsession_base_t@1@AEBUoptions_t@1@PEAUaddress_t@1@_N@Z 00000001800457c0 f   libzmq:tcp_connecter.obj
 0001:000449b0       ??1tcp_connecter_t@zmq@@UEAA@XZ 00000001800459b0 f   libzmq:tcp_connecter.obj
 0001:00044b78       ??_Etcp_connecter_t@zmq@@WDCI@EAAPEAXI@Z 0000000180045b78 f i libzmq:tcp_connecter.obj
 0001:00044b90       ??_Etcp_connecter_t@zmq@@UEAAPEAXI@Z 0000000180045b90 f i libzmq:tcp_connecter.obj
 0001:00044b90       ??_Gtcp_connecter_t@zmq@@UEAAPEAXI@Z 0000000180045b90 f i libzmq:tcp_connecter.obj
 0001:00044bd0       ?add_connect_timer@tcp_connecter_t@zmq@@AEAAXXZ 0000000180045bd0 f   libzmq:tcp_connecter.obj
 0001:00044c10       ?add_reconnect_timer@tcp_connecter_t@zmq@@AEAAXXZ 0000000180045c10 f   libzmq:tcp_connecter.obj
 0001:00044c60       ?close@tcp_connecter_t@zmq@@AEAAXXZ 0000000180045c60 f   libzmq:tcp_connecter.obj
 0001:00044d60       ?connect@tcp_connecter_t@zmq@@AEAA_KXZ 0000000180045d60 f   libzmq:tcp_connecter.obj
 0001:00044e90       ?get_new_reconnect_ivl@tcp_connecter_t@zmq@@AEAAHXZ 0000000180045e90 f   libzmq:tcp_connecter.obj
 0001:00044ef0       ?in_event@tcp_connecter_t@zmq@@EEAAXXZ 0000000180045ef0 f   libzmq:tcp_connecter.obj
 0001:00044f00       ?open@tcp_connecter_t@zmq@@AEAAHXZ 0000000180045f00 f   libzmq:tcp_connecter.obj
 0001:00045350       ?out_event@tcp_connecter_t@zmq@@EEAAXXZ 0000000180046350 f   libzmq:tcp_connecter.obj
 0001:000454d0       ?process_plug@tcp_connecter_t@zmq@@EEAAXXZ 00000001800464d0 f   libzmq:tcp_connecter.obj
 0001:000454f0       ?process_term@tcp_connecter_t@zmq@@EEAAXH@Z 00000001800464f0 f   libzmq:tcp_connecter.obj
 0001:00045590       ?start_connecting@tcp_connecter_t@zmq@@AEAAXXZ 0000000180046590 f   libzmq:tcp_connecter.obj
 0001:00045680       ?timer_event@tcp_connecter_t@zmq@@EEAAXH@Z 0000000180046680 f   libzmq:tcp_connecter.obj
 0001:00045750       ??0socks_connecter_t@zmq@@QEAA@PEAVio_thread_t@1@PEAVsession_base_t@1@AEBUoptions_t@1@PEAUaddress_t@1@3_N@Z 0000000180046750 f   libzmq:socks_connecter.obj
 0001:00045990       ??1socks_connecter_t@zmq@@UEAA@XZ 0000000180046990 f   libzmq:socks_connecter.obj
 0001:00045a80       ??1?$pair@PEBDV?$basic_string@DU?$char_traits@D@std@@V?$allocator@D@2@@std@@@std@@QEAA@XZ 0000000180046a80 f i libzmq:stream_engine.obj
 0001:00045a80       ??1socks_request_t@zmq@@QEAA@XZ 0000000180046a80 f i libzmq:socks_connecter.obj
 0001:00045a80       ??1socks_response_t@zmq@@QEAA@XZ 0000000180046a80 f i libzmq:socks_connecter.obj
 0001:00045a8c       ??_Esocks_connecter_t@zmq@@WDCI@EAAPEAXI@Z 0000000180046a8c f i libzmq:socks_connecter.obj
 0001:00045aa0       ??_Esocks_connecter_t@zmq@@UEAAPEAXI@Z 0000000180046aa0 f i libzmq:socks_connecter.obj
 0001:00045aa0       ??_Gsocks_connecter_t@zmq@@UEAAPEAXI@Z 0000000180046aa0 f i libzmq:socks_connecter.obj
 0001:00045ae0       ?check_proxy_connection@socks_connecter_t@zmq@@AEAA_KXZ 0000000180046ae0 f   libzmq:socks_connecter.obj
 0001:00045c30       ?close@socks_connecter_t@zmq@@AEAAXXZ 0000000180046c30 f   libzmq:socks_connecter.obj
 0001:00045d30       ?connect_to_proxy@socks_connecter_t@zmq@@AEAAHXZ 0000000180046d30 f   libzmq:socks_connecter.obj
 0001:00046060       ?error@socks_connecter_t@zmq@@AEAAXXZ 0000000180047060 f   libzmq:socks_connecter.obj
 0001:000460d0       ?get_new_reconnect_ivl@socks_connecter_t@zmq@@AEAAHXZ 00000001800470d0 f   libzmq:socks_connecter.obj
 0001:00046130       ?in_event@socks_connecter_t@zmq@@EEAAXXZ 0000000180047130 f   libzmq:socks_connecter.obj
 0001:000464b0       ?initiate_connect@socks_connecter_t@zmq@@AEAAXXZ 00000001800474b0 f   libzmq:socks_connecter.obj
 0001:00046590       ?out_event@socks_connecter_t@zmq@@EEAAXXZ 0000000180047590 f   libzmq:socks_connecter.obj
 0001:00046800       ?parse_address@socks_connecter_t@zmq@@AEAAHAEBV?$basic_string@DU?$char_traits@D@std@@V?$allocator@D@2@@std@@AEAV34@AEAG@Z 0000000180047800 f   libzmq:socks_connecter.obj
 0001:000469f0       ?process_plug@socks_connecter_t@zmq@@EEAAXXZ 00000001800479f0 f   libzmq:socks_connecter.obj
 0001:00046a10       ?process_server_response@socks_connecter_t@zmq@@AEAAHAEBUsocks_response_t@2@@Z 0000000180047a10 f   libzmq:socks_connecter.obj
 0001:00046a10       ?process_server_response@socks_connecter_t@zmq@@AEAAHAEBUsocks_choice_t@2@@Z 0000000180047a10 f   libzmq:socks_connecter.obj
 0001:00046a20       ?process_term@socks_connecter_t@zmq@@EEAAXH@Z 0000000180047a20 f   libzmq:socks_connecter.obj
 0001:00046a90       ?rfind@?$basic_string@DU?$char_traits@D@std@@V?$allocator@D@2@@std@@QEBA_KD_K@Z 0000000180047a90 f i libzmq:socks_connecter.obj
 0001:00046b20       ?start_timer@socks_connecter_t@zmq@@AEAAXXZ 0000000180047b20 f   libzmq:socks_connecter.obj
 0001:00046b80       ?timer_event@socks_connecter_t@zmq@@EEAAXH@Z 0000000180047b80 f   libzmq:socks_connecter.obj
 0001:00046c50       ??0udp_engine_t@zmq@@QEAA@AEBUoptions_t@1@@Z 0000000180047c50 f   libzmq:udp_engine.obj
 0001:00046cd0       ??1udp_engine_t@zmq@@UEAA@XZ 0000000180047cd0 f   libzmq:udp_engine.obj
 0001:00046e44       ??_Eudp_engine_t@zmq@@WBA@EAAPEAXI@Z 0000000180047e44 f i libzmq:udp_engine.obj
 0001:00046e50       ??_Gudp_engine_t@zmq@@UEAAPEAXI@Z 0000000180047e50 f i libzmq:udp_engine.obj
 0001:00046e50       ??_Eudp_engine_t@zmq@@UEAAPEAXI@Z 0000000180047e50 f i libzmq:udp_engine.obj
 0001:00046e90       ?in_event@udp_engine_t@zmq@@UEAAXXZ 0000000180047e90 f   libzmq:udp_engine.obj
 0001:00047320       ?init@udp_engine_t@zmq@@QEAAHPEAUaddress_t@2@_N1@Z 0000000180048320 f   libzmq:udp_engine.obj
 0001:00047440       ?out_event@udp_engine_t@zmq@@UEAAXXZ 0000000180048440 f   libzmq:udp_engine.obj
 0001:000477e0       ?plug@udp_engine_t@zmq@@UEAAXPEAVio_thread_t@2@PEAVsession_base_t@2@@Z 00000001800487e0 f   libzmq:udp_engine.obj
 0001:00047b60       ?resolve_raw_address@udp_engine_t@zmq@@AEAAHPEAD_K@Z 0000000180048b60 f   libzmq:udp_engine.obj
 0001:00047d80       ?restart_input@udp_engine_t@zmq@@UEAAXXZ 0000000180048d80 f   libzmq:udp_engine.obj
 0001:00047dc0       ?restart_output@udp_engine_t@zmq@@UEAAXXZ 0000000180048dc0 f   libzmq:udp_engine.obj
 0001:00047e70       ?sockaddr_to_msg@udp_engine_t@zmq@@AEAAXPEAVmsg_t@2@PEAUsockaddr_in@@@Z 0000000180048e70 f   libzmq:udp_engine.obj
 0001:00047fe0       ?terminate@udp_engine_t@zmq@@UEAAXXZ 0000000180048fe0 f   libzmq:udp_engine.obj
 0001:00048080       ??0mtrie_t@zmq@@QEAA@XZ    0000000180049080 f   libzmq:mtrie.obj
 0001:00048090       ??1mtrie_t@zmq@@QEAA@XZ    0000000180049090 f   libzmq:mtrie.obj
 0001:000481f0       ?add@mtrie_t@zmq@@QEAA_NPEAE_KPEAVpipe_t@2@@Z 00000001800491f0 f   libzmq:mtrie.obj
 0001:00048200       ?add_helper@mtrie_t@zmq@@AEAA_NPEAE_KPEAVpipe_t@2@@Z 0000000180049200 f   libzmq:mtrie.obj
 0001:00048700       ?is_redundant@mtrie_t@zmq@@AEBA_NXZ 0000000180049700 f   libzmq:mtrie.obj
 0001:00048720       ?match@mtrie_t@zmq@@QEAAXPEAE_KP6AXPEAVpipe_t@2@PEAX@Z3@Z 0000000180049720 f   libzmq:mtrie.obj
 0001:00048850       ?rm@mtrie_t@zmq@@QEAAXPEAVpipe_t@2@P6AXPEAE_KPEAX@Z3_N@Z 0000000180049850 f   libzmq:mtrie.obj
 0001:000488a0       ?rm@mtrie_t@zmq@@QEAA_NPEAE_KPEAVpipe_t@2@@Z 00000001800498a0 f   libzmq:mtrie.obj
 0001:000488b0       ?rm_helper@mtrie_t@zmq@@AEAAXPEAVpipe_t@2@PEAPEAE_K2P6AXPEAE2PEAX@Z4_N@Z 00000001800498b0 f   libzmq:mtrie.obj
 0001:000490e0       ?rm_helper@mtrie_t@zmq@@AEAA_NPEAE_KPEAVpipe_t@2@@Z 000000018004a0e0 f   libzmq:mtrie.obj
 0001:000496a0       ??0dist_t@zmq@@QEAA@XZ     000000018004a6a0 f   libzmq:dist.obj
 0001:000496c0       ??1dist_t@zmq@@QEAA@XZ     000000018004a6c0 f   libzmq:dist.obj
 0001:00049760       ?activated@dist_t@zmq@@QEAAXPEAVpipe_t@2@@Z 000000018004a760 f   libzmq:dist.obj
 0001:00049860       ?attach@dist_t@zmq@@QEAAXPEAVpipe_t@2@@Z 000000018004a860 f   libzmq:dist.obj
 0001:00049990       ?check_hwm@dist_t@zmq@@QEAA_NXZ 000000018004a990 f   libzmq:dist.obj
 0001:000499f0       ?distribute@dist_t@zmq@@AEAAXPEAVmsg_t@2@@Z 000000018004a9f0 f   libzmq:dist.obj
 0001:00049c50       ?match@dist_t@zmq@@QEAAXPEAVpipe_t@2@@Z 000000018004ac50 f   libzmq:dist.obj
 0001:00049ce0       ?pipe_terminated@dist_t@zmq@@QEAAXPEAVpipe_t@2@@Z 000000018004ace0 f   libzmq:dist.obj
 0001:00049ea0       ?reverse_match@dist_t@zmq@@QEAAXXZ 000000018004aea0 f   libzmq:dist.obj
 0001:00049f40       ?send_to_all@dist_t@zmq@@QEAAHPEAVmsg_t@2@@Z 000000018004af40 f   libzmq:dist.obj
 0001:00049f50       ?send_to_matching@dist_t@zmq@@QEAAHPEAVmsg_t@2@@Z 000000018004af50 f   libzmq:dist.obj
 0001:00049fa0       ?unmatch@dist_t@zmq@@QEAAXXZ 000000018004afa0 f   libzmq:dist.obj
 0001:00049fb0       ?write@dist_t@zmq@@AEAA_NPEAVpipe_t@2@PEAVmsg_t@2@@Z 000000018004afb0 f   libzmq:dist.obj
 0001:0004a150       ??0fq_t@zmq@@QEAA@XZ       000000018004b150 f   libzmq:fq.obj
 0001:0004a180       ??1fq_t@zmq@@QEAA@XZ       000000018004b180 f   libzmq:fq.obj
 0001:0004a230       ?activated@fq_t@zmq@@QEAAXPEAVpipe_t@2@@Z 000000018004b230 f   libzmq:fq.obj
 0001:0004a2a0       ?attach@fq_t@zmq@@QEAAXPEAVpipe_t@2@@Z 000000018004b2a0 f   libzmq:fq.obj
 0001:0004a340       ?get_credential@fq_t@zmq@@QEBA?AV?$basic_string@EU?$char_traits@E@std@@V?$allocator@E@2@@std@@XZ 000000018004b340 f   libzmq:fq.obj
 0001:0004a4f0       ?has_in@fq_t@zmq@@QEAA_NXZ 000000018004b4f0 f   libzmq:fq.obj
 0001:0004a5e0       ?pipe_terminated@fq_t@zmq@@QEAAXPEAVpipe_t@2@@Z 000000018004b5e0 f   libzmq:fq.obj
 0001:0004a760       ?recv@fq_t@zmq@@QEAAHPEAVmsg_t@2@@Z 000000018004b760 f   libzmq:fq.obj
 0001:0004a770       ?recvpipe@fq_t@zmq@@QEAAHPEAVmsg_t@2@PEAPEAVpipe_t@2@@Z 000000018004b770 f   libzmq:fq.obj
 0001:0004a9c0       ??0trie_t@zmq@@QEAA@XZ     000000018004b9c0 f   libzmq:trie.obj
 0001:0004a9d0       ??1trie_t@zmq@@QEAA@XZ     000000018004b9d0 f   libzmq:trie.obj
 0001:0004ab00       ?add@trie_t@zmq@@QEAA_NPEAE_K@Z 000000018004bb00 f   libzmq:trie.obj
 0001:0004aff0       ?apply@trie_t@zmq@@QEAAXP6AXPEAE_KPEAX@Z2@Z 000000018004bff0 f   libzmq:trie.obj
 0001:0004b030       ?apply_helper@trie_t@zmq@@AEAAXPEAPEAE_K1P6AXPEAE1PEAX@Z3@Z 000000018004c030 f   libzmq:trie.obj
 0001:0004b180       ?check@trie_t@zmq@@QEAA_NPEAE_K@Z 000000018004c180 f   libzmq:trie.obj
 0001:0004b1e0       ?is_redundant@trie_t@zmq@@AEBA_NXZ 000000018004c1e0 f   libzmq:trie.obj
 0001:0004b200       ?rm@trie_t@zmq@@QEAA_NPEAE_K@Z 000000018004c200 f   libzmq:trie.obj
 0001:0004b800       ??0lb_t@zmq@@QEAA@XZ       000000018004c800 f   libzmq:lb.obj
 0001:0004b820       ??1lb_t@zmq@@QEAA@XZ       000000018004c820 f   libzmq:lb.obj
 0001:0004b8c0       ?activated@lb_t@zmq@@QEAAXPEAVpipe_t@2@@Z 000000018004c8c0 f   libzmq:lb.obj
 0001:0004b930       ?attach@lb_t@zmq@@QEAAXPEAVpipe_t@2@@Z 000000018004c930 f   libzmq:lb.obj
 0001:0004b980       ?has_out@lb_t@zmq@@QEAA_NXZ 000000018004c980 f   libzmq:lb.obj
 0001:0004ba70       ?pipe_terminated@lb_t@zmq@@QEAAXPEAVpipe_t@2@@Z 000000018004ca70 f   libzmq:lb.obj
 0001:0004bb60       ?send@lb_t@zmq@@QEAAHPEAVmsg_t@2@@Z 000000018004cb60 f   libzmq:lb.obj
 0001:0004bb70       ?sendpipe@lb_t@zmq@@QEAAHPEAVmsg_t@2@PEAPEAVpipe_t@2@@Z 000000018004cb70 f   libzmq:lb.obj
 0001:0004be10       ?generate_random@zmq@@YAIXZ 000000018004ce10 f   libzmq:random.obj
 0001:0004be30       ??0?$encoder_base_t@Vv1_encoder_t@zmq@@@zmq@@QEAA@_K@Z 000000018004ce30 f i libzmq:v1_encoder.obj
 0001:0004bef0       ??0v1_encoder_t@zmq@@QEAA@_K@Z 000000018004cef0 f   libzmq:v1_encoder.obj
 0001:0004bf50       ??1i_encoder@zmq@@UEAA@XZ  000000018004cf50 f i libzmq:v1_encoder.obj
 0001:0004bf60       ??1v1_encoder_t@zmq@@UEAA@XZ 000000018004cf60 f   libzmq:v1_encoder.obj
 0001:0004bf90       ??_G?$encoder_base_t@Vv1_encoder_t@zmq@@@zmq@@UEAAPEAXI@Z 000000018004cf90 f i libzmq:v1_encoder.obj
 0001:0004bf90       ??_E?$encoder_base_t@Vv1_encoder_t@zmq@@@zmq@@UEAAPEAXI@Z 000000018004cf90 f i libzmq:v1_encoder.obj
 0001:0004bfe0       ??_Ei_encoder@zmq@@UEAAPEAXI@Z 000000018004cfe0 f i libzmq:v1_encoder.obj
 0001:0004bfe0       ??_Gi_encoder@zmq@@UEAAPEAXI@Z 000000018004cfe0 f i libzmq:v1_encoder.obj
 0001:0004c010       ??_Ev1_encoder_t@zmq@@UEAAPEAXI@Z 000000018004d010 f i libzmq:v1_encoder.obj
 0001:0004c010       ??_Gv1_encoder_t@zmq@@UEAAPEAXI@Z 000000018004d010 f i libzmq:v1_encoder.obj
 0001:0004c050       ?encode@?$encoder_base_t@Vv2_encoder_t@zmq@@@zmq@@UEAA_KPEAPEAE_K@Z 000000018004d050 f i libzmq:v2_encoder.obj
 0001:0004c050       ?encode@?$encoder_base_t@Vv1_encoder_t@zmq@@@zmq@@UEAA_KPEAPEAE_K@Z 000000018004d050 f i libzmq:v1_encoder.obj
 0001:0004c050       ?encode@?$encoder_base_t@Vraw_encoder_t@zmq@@@zmq@@UEAA_KPEAPEAE_K@Z 000000018004d050 f i libzmq:raw_encoder.obj
 0001:0004c220       ?message_ready@v1_encoder_t@zmq@@AEAAXXZ 000000018004d220 f   libzmq:v1_encoder.obj
 0001:0004c300       ?size_ready@v1_encoder_t@zmq@@AEAAXXZ 000000018004d300 f   libzmq:v1_encoder.obj
 0001:0004c370       ??0v1_decoder_t@zmq@@QEAA@_K_J@Z 000000018004d370 f   libzmq:v1_decoder.obj
 0001:0004c500       ??1c_single_allocator@zmq@@QEAA@XZ 000000018004d500 f i libzmq:v1_decoder.obj
 0001:0004c510       ??1i_decoder@zmq@@UEAA@XZ  000000018004d510 f i libzmq:v1_decoder.obj
 0001:0004c510       ??1?$decoder_base_t@Vv1_decoder_t@zmq@@Vc_single_allocator@2@@zmq@@UEAA@XZ 000000018004d510 f i libzmq:v1_decoder.obj
 0001:0004c520       ??1v1_decoder_t@zmq@@UEAA@XZ 000000018004d520 f   libzmq:v1_decoder.obj
 0001:0004c5d0       ??_G?$decoder_base_t@Vv1_decoder_t@zmq@@Vc_single_allocator@2@@zmq@@UEAAPEAXI@Z 000000018004d5d0 f i libzmq:v1_decoder.obj
 0001:0004c5d0       ??_E?$decoder_base_t@Vv1_decoder_t@zmq@@Vc_single_allocator@2@@zmq@@UEAAPEAXI@Z 000000018004d5d0 f i libzmq:v1_decoder.obj
 0001:0004c600       ??_Ei_decoder@zmq@@UEAAPEAXI@Z 000000018004d600 f i libzmq:v1_decoder.obj
 0001:0004c600       ??_Gi_decoder@zmq@@UEAAPEAXI@Z 000000018004d600 f i libzmq:v1_decoder.obj
 0001:0004c630       ??_Ev1_decoder_t@zmq@@UEAAPEAXI@Z 000000018004d630 f i libzmq:v1_decoder.obj
 0001:0004c630       ??_Gv1_decoder_t@zmq@@UEAAPEAXI@Z 000000018004d630 f i libzmq:v1_decoder.obj
 0001:0004c670       ?decode@?$decoder_base_t@Vv1_decoder_t@zmq@@Vc_single_allocator@2@@zmq@@UEAAHPEBE_KAEA_K@Z 000000018004d670 f i libzmq:v1_decoder.obj
 0001:0004c670       ?decode@?$decoder_base_t@Vv2_decoder_t@zmq@@Vshared_message_memory_allocator@2@@zmq@@UEAAHPEBE_KAEA_K@Z 000000018004d670 f i libzmq:v2_decoder.obj
 0001:0004c7c0       ?eight_byte_size_ready@v1_decoder_t@zmq@@AEAAHPEBE@Z 000000018004d7c0 f   libzmq:v1_decoder.obj
 0001:0004c9c0       ?flags_ready@v1_decoder_t@zmq@@AEAAHPEBE@Z 000000018004d9c0 f   libzmq:v1_decoder.obj
 0001:0004ca40       ?get_buffer@?$decoder_base_t@Vv1_decoder_t@zmq@@Vc_single_allocator@2@@zmq@@UEAAXPEAPEAEPEA_K@Z 000000018004da40 f i libzmq:v1_decoder.obj
 0001:0004ca80       ?message_ready@v1_decoder_t@zmq@@AEAAHPEBE@Z 000000018004da80 f   libzmq:v1_decoder.obj
 0001:0004cad0       ?msg@v1_decoder_t@zmq@@UEAAPEAVmsg_t@2@XZ 000000018004dad0 f i libzmq:v1_decoder.obj
 0001:0004cae0       ?one_byte_size_ready@v1_decoder_t@zmq@@AEAAHPEBE@Z 000000018004dae0 f   libzmq:v1_decoder.obj
 0001:0004ccf0       ?resize_buffer@?$decoder_base_t@Vv1_decoder_t@zmq@@Vc_single_allocator@2@@zmq@@UEAAX_K@Z 000000018004dcf0 f i libzmq:v1_decoder.obj
 0001:0004cd00       ??0?$encoder_base_t@Vv2_encoder_t@zmq@@@zmq@@QEAA@_K@Z 000000018004dd00 f i libzmq:v2_encoder.obj
 0001:0004cdc0       ??0v2_encoder_t@zmq@@QEAA@_K@Z 000000018004ddc0 f   libzmq:v2_encoder.obj
 0001:0004ce20       ??1v2_encoder_t@zmq@@UEAA@XZ 000000018004de20 f   libzmq:v2_encoder.obj
 0001:0004ce50       ??_E?$encoder_base_t@Vv2_encoder_t@zmq@@@zmq@@UEAAPEAXI@Z 000000018004de50 f i libzmq:v2_encoder.obj
 0001:0004ce50       ??_G?$encoder_base_t@Vv2_encoder_t@zmq@@@zmq@@UEAAPEAXI@Z 000000018004de50 f i libzmq:v2_encoder.obj
 0001:0004cea0       ??_Ev2_encoder_t@zmq@@UEAAPEAXI@Z 000000018004dea0 f i libzmq:v2_encoder.obj
 0001:0004cea0       ??_Gv2_encoder_t@zmq@@UEAAPEAXI@Z 000000018004dea0 f i libzmq:v2_encoder.obj
 0001:0004cee0       ?load_msg@?$encoder_base_t@Vraw_encoder_t@zmq@@@zmq@@UEAAXPEAVmsg_t@2@@Z 000000018004dee0 f i libzmq:raw_encoder.obj
 0001:0004cee0       ?load_msg@?$encoder_base_t@Vv2_encoder_t@zmq@@@zmq@@UEAAXPEAVmsg_t@2@@Z 000000018004dee0 f i libzmq:v2_encoder.obj
 0001:0004cee0       ?load_msg@?$encoder_base_t@Vv1_encoder_t@zmq@@@zmq@@UEAAXPEAVmsg_t@2@@Z 000000018004dee0 f i libzmq:v1_encoder.obj
 0001:0004cf60       ?message_ready@v2_encoder_t@zmq@@AEAAXXZ 000000018004df60 f   libzmq:v2_encoder.obj
 0001:0004d060       ?size_ready@v2_encoder_t@zmq@@AEAAXXZ 000000018004e060 f   libzmq:v2_encoder.obj
 0001:0004d0d0       ??0v2_decoder_t@zmq@@QEAA@_K_J@Z 000000018004e0d0 f   libzmq:v2_decoder.obj
 0001:0004d220       ??1?$decoder_base_t@Vv2_decoder_t@zmq@@Vshared_message_memory_allocator@2@@zmq@@UEAA@XZ 000000018004e220 f i libzmq:v2_decoder.obj
 0001:0004d260       ??1v2_decoder_t@zmq@@UEAA@XZ 000000018004e260 f   libzmq:v2_decoder.obj
 0001:0004d320       ??_G?$decoder_base_t@Vv2_decoder_t@zmq@@Vshared_message_memory_allocator@2@@zmq@@UEAAPEAXI@Z 000000018004e320 f i libzmq:v2_decoder.obj
 0001:0004d320       ??_E?$decoder_base_t@Vv2_decoder_t@zmq@@Vshared_message_memory_allocator@2@@zmq@@UEAAPEAXI@Z 000000018004e320 f i libzmq:v2_decoder.obj
 0001:0004d380       ??_Ev2_decoder_t@zmq@@UEAAPEAXI@Z 000000018004e380 f i libzmq:v2_decoder.obj
 0001:0004d380       ??_Gv2_decoder_t@zmq@@UEAAPEAXI@Z 000000018004e380 f i libzmq:v2_decoder.obj
 0001:0004d3c0       ?eight_byte_size_ready@v2_decoder_t@zmq@@AEAAHPEBE@Z 000000018004e3c0 f   libzmq:v2_decoder.obj
 0001:0004d420       ?flags_ready@v2_decoder_t@zmq@@AEAAHPEBE@Z 000000018004e420 f   libzmq:v2_decoder.obj
 0001:0004d4a0       ?get_buffer@?$decoder_base_t@Vv2_decoder_t@zmq@@Vshared_message_memory_allocator@2@@zmq@@UEAAXPEAPEAEPEA_K@Z 000000018004e4a0 f i libzmq:v2_decoder.obj
 0001:0004d520       ?message_ready@v2_decoder_t@zmq@@AEAAHPEBE@Z 000000018004e520 f   libzmq:v2_decoder.obj
 0001:0004d570       ?msg@v2_decoder_t@zmq@@UEAAPEAVmsg_t@2@XZ 000000018004e570 f i libzmq:v2_decoder.obj
 0001:0004d580       ?one_byte_size_ready@v2_decoder_t@zmq@@AEAAHPEBE@Z 000000018004e580 f   libzmq:v2_decoder.obj
 0001:0004d590       ?resize_buffer@?$decoder_base_t@Vv2_decoder_t@zmq@@Vshared_message_memory_allocator@2@@zmq@@UEAAX_K@Z 000000018004e590 f i libzmq:v2_decoder.obj
 0001:0004d5a0       ?size_ready@v2_decoder_t@zmq@@AEAAH_KPEBE@Z 000000018004e5a0 f   libzmq:v2_decoder.obj
 0001:0004d7c0       ??$_Buynode@U?$pair@$$CBV?$basic_string@DU?$char_traits@D@std@@V?$allocator@D@2@@std@@V12@@std@@@?$_Tree_comp_alloc@V?$_Tmap_traits@V?$basic_string@DU?$char_traits@D@std@@V?$allocator@D@2@@std@@V12@U?$less@V?$basic_string@DU?$char_traits@D@std@@V?$allocator@D@2@@std@@@2@V?$allocator@U?$pair@$$CBV?$basic_string@DU?$char_traits@D@std@@V?$allocator@D@2@@std@@V12@@std@@@2@$0A@@std@@@std@@QEAAPEAU?$_Tree_node@U?$pair@$$CBV?$basic_string@DU?$char_traits@D@std@@V?$allocator@D@2@@std@@V12@@std@@PEAX@1@$$QEAU?$pair@$$CBV?$basic_string@DU?$char_traits@D@std@@V?$allocator@D@2@@std@@V12@@1@@Z 000000018004e7c0 f i libzmq:mechanism.obj
 0001:0004d820       ??$_Insert_at@U?$pair@$$CBV?$basic_string@DU?$char_traits@D@std@@V?$allocator@D@2@@std@@V12@@std@@U_Nil@2@@?$_Tree@V?$_Tmap_traits@V?$basic_string@DU?$char_traits@D@std@@V?$allocator@D@2@@std@@V12@U?$less@V?$basic_string@DU?$char_traits@D@std@@V?$allocator@D@2@@std@@@2@V?$allocator@U?$pair@$$CBV?$basic_string@DU?$char_traits@D@std@@V?$allocator@D@2@@std@@V12@@std@@@2@$0A@@std@@@std@@IEAA?AV?$_Tree_iterator@V?$_Tree_val@U?$_Tree_simple_types@U?$pair@$$CBV?$basic_string@DU?$char_traits@D@std@@V?$allocator@D@2@@std@@V12@@std@@@std@@@std@@@1@_NPEAU?$_Tree_node@U?$pair@$$CBV?$basic_string@DU?$char_traits@D@std@@V?$allocator@D@2@@std@@V12@@std@@PEAX@1@$$QEAU?$pair@$$CBV?$basic_string@DU?$char_traits@D@std@@V?$allocator@D@2@@std@@V12@@1@U_Nil@1@@Z 000000018004e820 f i libzmq:mechanism.obj
 0001:0004daf0       ??$_Insert_nohint@U?$pair@$$CBV?$basic_string@DU?$char_traits@D@std@@V?$allocator@D@2@@std@@V12@@std@@U_Nil@2@@?$_Tree@V?$_Tmap_traits@V?$basic_string@DU?$char_traits@D@std@@V?$allocator@D@2@@std@@V12@U?$less@V?$basic_string@DU?$char_traits@D@std@@V?$allocator@D@2@@std@@@2@V?$allocator@U?$pair@$$CBV?$basic_string@DU?$char_traits@D@std@@V?$allocator@D@2@@std@@V12@@std@@@2@$0A@@std@@@std@@IEAA?AU?$pair@V?$_Tree_iterator@V?$_Tree_val@U?$_Tree_simple_types@U?$pair@$$CBV?$basic_string@DU?$char_traits@D@std@@V?$allocator@D@2@@std@@V12@@std@@@std@@@std@@@std@@_N@1@_N$$QEAU?$pair@$$CBV?$basic_string@DU?$char_traits@D@std@@V?$allocator@D@2@@std@@V12@@1@U_Nil@1@@Z 000000018004eaf0 f i libzmq:mechanism.obj
 0001:0004dd50       ??$construct@U?$pair@$$CBV?$basic_string@DU?$char_traits@D@std@@V?$allocator@D@2@@std@@V12@@std@@U12@@?$_Wrap_alloc@V?$allocator@U?$_Tree_node@U?$pair@$$CBV?$basic_string@DU?$char_traits@D@std@@V?$allocator@D@2@@std@@V12@@std@@PEAX@std@@@std@@@std@@QEAAXPEAU?$pair@$$CBV?$basic_string@DU?$char_traits@D@std@@V?$allocator@D@2@@std@@V12@@1@$$QEAU21@@Z 000000018004ed50 f i libzmq:mechanism.obj
 0001:0004ddf0       ??0mechanism_t@zmq@@QEAA@AEBUoptions_t@1@@Z 000000018004edf0 f   libzmq:mechanism.obj
 0001:0004deb0       ??1?$pair@$$CBV?$basic_string@DU?$char_traits@D@std@@V?$allocator@D@2@@std@@V12@@std@@QEAA@XZ 000000018004eeb0 f i libzmq:mechanism.obj
 0001:0004ded0       ??1mechanism_t@zmq@@UEAA@XZ 000000018004eed0 f   libzmq:mechanism.obj
 0001:0004dfc0       ??_Emechanism_t@zmq@@UEAAPEAXI@Z 000000018004efc0 f i libzmq:mechanism.obj
 0001:0004dfc0       ??_Gmechanism_t@zmq@@UEAAPEAXI@Z 000000018004efc0 f i libzmq:mechanism.obj
 0001:0004e000       ?add_property@mechanism_t@zmq@@IEBA_KPEAEPEBDPEBX_K@Z 000000018004f000 f   libzmq:mechanism.obj
 0001:0004e140       ?check_socket_type@mechanism_t@zmq@@AEBA_NAEBV?$basic_string@DU?$char_traits@D@std@@V?$allocator@D@2@@std@@@Z 000000018004f140 f   libzmq:mechanism.obj
 0001:0004e7a0       ?sync@?$basic_streambuf@DU?$char_traits@D@std@@@std@@MEAAHXZ 000000018004f7a0 f i libzmq:tcp_address.obj
 0001:0004e7a0       ?zap_msg_available@mechanism_t@zmq@@UEAAHXZ 000000018004f7a0 f i libzmq:mechanism.obj
 0001:0004e7a0       ?encode@mechanism_t@zmq@@UEAAHPEAVmsg_t@2@@Z 000000018004f7a0 f i libzmq:mechanism.obj
 0001:0004e7a0       ?showmanyc@?$basic_streambuf@DU?$char_traits@D@std@@@std@@MEAA_JXZ 000000018004f7a0 f i libzmq:tcp_address.obj
 0001:0004e7a0       ?decode@mechanism_t@zmq@@UEAAHPEAVmsg_t@2@@Z 000000018004f7a0 f i libzmq:mechanism.obj
 0001:0004e7a0       ?property@mechanism_t@zmq@@MEAAHAEBV?$basic_string@DU?$char_traits@D@std@@V?$allocator@D@2@@std@@PEBX_K@Z 000000018004f7a0 f i libzmq:mechanism.obj
 0001:0004e7b0       ?get_user_id@mechanism_t@zmq@@QEBA?AV?$basic_string@EU?$char_traits@E@std@@V?$allocator@E@2@@std@@XZ 000000018004f7b0 f   libzmq:mechanism.obj
 0001:0004e7f0       ?parse_metadata@mechanism_t@zmq@@IEAAHPEBE_K_N@Z 000000018004f7f0 f   libzmq:mechanism.obj
 0001:0004ed80       ?peer_identity@mechanism_t@zmq@@QEAAXPEAVmsg_t@2@@Z 000000018004fd80 f   libzmq:mechanism.obj
 0001:0004ee50       ?set_peer_identity@mechanism_t@zmq@@QEAAXPEBX_K@Z 000000018004fe50 f   libzmq:mechanism.obj
 0001:0004ef10       ?set_user_id@mechanism_t@zmq@@QEAAXPEBX_K@Z 000000018004ff10 f   libzmq:mechanism.obj
 0001:0004f0d0       ?socket_type_string@mechanism_t@zmq@@IEBAPEBDH@Z 00000001800500d0 f   libzmq:mechanism.obj
 0001:0004f140       ??0null_mechanism_t@zmq@@QEAA@PEAVsession_base_t@1@AEBV?$basic_string@DU?$char_traits@D@std@@V?$allocator@D@2@@std@@AEBUoptions_t@1@@Z 0000000180050140 f   libzmq:null_mechanism.obj
 0001:0004f210       ??1null_mechanism_t@zmq@@UEAA@XZ 0000000180050210 f   libzmq:null_mechanism.obj
 0001:0004f240       ??_Enull_mechanism_t@zmq@@UEAAPEAXI@Z 0000000180050240 f i libzmq:null_mechanism.obj
 0001:0004f240       ??_Gnull_mechanism_t@zmq@@UEAAPEAXI@Z 0000000180050240 f i libzmq:null_mechanism.obj
 0001:0004f280       ?next_handshake_command@null_mechanism_t@zmq@@UEAAHPEAVmsg_t@2@@Z 0000000180050280 f   libzmq:null_mechanism.obj
 0001:0004f570       ?process_error_command@null_mechanism_t@zmq@@AEAAHPEBE_K@Z 0000000180050570 f   libzmq:null_mechanism.obj
 0001:0004f5b0       ?process_handshake_command@null_mechanism_t@zmq@@UEAAHPEAVmsg_t@2@@Z 00000001800505b0 f   libzmq:null_mechanism.obj
 0001:0004f780       ?process_ready_command@null_mechanism_t@zmq@@AEAAHPEBE_K@Z 0000000180050780 f   libzmq:null_mechanism.obj
 0001:0004f7a0       ?receive_and_process_zap_reply@null_mechanism_t@zmq@@AEAAHXZ 00000001800507a0 f   libzmq:null_mechanism.obj
 0001:0004faa0       ?send_zap_request@null_mechanism_t@zmq@@AEAAXXZ 0000000180050aa0 f   libzmq:null_mechanism.obj
 0001:00050190       ?status@null_mechanism_t@zmq@@UEBA?AW4status_t@mechanism_t@2@XZ 0000000180051190 f   libzmq:null_mechanism.obj
 0001:000501f0       ?zap_msg_available@null_mechanism_t@zmq@@UEAAHXZ 00000001800511f0 f   libzmq:null_mechanism.obj
 0001:00050230       ??0plain_client_t@zmq@@QEAA@AEBUoptions_t@1@@Z 0000000180051230 f   libzmq:plain_client.obj
 0001:00050260       ??1plain_client_t@zmq@@UEAA@XZ 0000000180051260 f   libzmq:plain_client.obj
 0001:00050270       ??_Gplain_client_t@zmq@@UEAAPEAXI@Z 0000000180051270 f i libzmq:plain_client.obj
 0001:00050270       ??_Eplain_client_t@zmq@@UEAAPEAXI@Z 0000000180051270 f i libzmq:plain_client.obj
 0001:000502b0       ?next_handshake_command@plain_client_t@zmq@@UEAAHPEAVmsg_t@2@@Z 00000001800512b0 f   libzmq:plain_client.obj
 0001:00050310       ?process_error@plain_client_t@zmq@@AEAAHPEBE_K@Z 0000000180051310 f   libzmq:plain_client.obj
 0001:00050360       ?process_handshake_command@plain_client_t@zmq@@UEAAHPEAVmsg_t@2@@Z 0000000180051360 f   libzmq:plain_client.obj
 0001:00050520       ?process_ready@plain_client_t@zmq@@AEAAHPEBE_K@Z 0000000180051520 f   libzmq:plain_client.obj
 0001:00050570       ?process_welcome@plain_client_t@zmq@@AEAAHPEBE_K@Z 0000000180051570 f   libzmq:plain_client.obj
 0001:000505b0       ?produce_hello@plain_client_t@zmq@@AEBAHPEAVmsg_t@2@@Z 00000001800515b0 f   libzmq:plain_client.obj
 0001:000508b0       ?produce_initiate@plain_client_t@zmq@@AEBAHPEAVmsg_t@2@@Z 00000001800518b0 f   libzmq:plain_client.obj
 0001:00050a50       ?status@plain_client_t@zmq@@UEBA?AW4status_t@mechanism_t@2@XZ 0000000180051a50 f   libzmq:plain_client.obj
 0001:00050a70       ??0plain_server_t@zmq@@QEAA@PEAVsession_base_t@1@AEBV?$basic_string@DU?$char_traits@D@std@@V?$allocator@D@2@@std@@AEBUoptions_t@1@@Z 0000000180051a70 f   libzmq:plain_server.obj
 0001:00050b20       ??1plain_server_t@zmq@@UEAA@XZ 0000000180051b20 f   libzmq:plain_server.obj
 0001:00050b60       ??_Eplain_server_t@zmq@@UEAAPEAXI@Z 0000000180051b60 f i libzmq:plain_server.obj
 0001:00050b60       ??_Gplain_server_t@zmq@@UEAAPEAXI@Z 0000000180051b60 f i libzmq:plain_server.obj
 0001:00050ba0       ?next_handshake_command@plain_server_t@zmq@@UEAAHPEAVmsg_t@2@@Z 0000000180051ba0 f   libzmq:plain_server.obj
 0001:00050c30       ?process_handshake_command@plain_server_t@zmq@@UEAAHPEAVmsg_t@2@@Z 0000000180051c30 f   libzmq:plain_server.obj
 0001:00050d50       ?process_hello@plain_server_t@zmq@@AEAAHPEAVmsg_t@2@@Z 0000000180051d50 f   libzmq:plain_server.obj
 0001:00050fc0       ?process_initiate@plain_server_t@zmq@@AEAAHPEAVmsg_t@2@@Z 0000000180051fc0 f   libzmq:plain_server.obj
 0001:00051070       ?produce_error@plain_server_t@zmq@@AEBAHPEAVmsg_t@2@@Z 0000000180052070 f   libzmq:plain_server.obj
 0001:00051190       ?produce_ready@plain_server_t@zmq@@AEBAHPEAVmsg_t@2@@Z 0000000180052190 f   libzmq:plain_server.obj
 0001:00051320       ?produce_welcome@plain_server_t@zmq@@AEBAHPEAVmsg_t@2@@Z 0000000180052320 f   libzmq:plain_server.obj
 0001:000513c0       ?receive_and_process_zap_reply@plain_server_t@zmq@@AEAAHXZ 00000001800523c0 f   libzmq:plain_server.obj
 0001:00051780       ?send_zap_request@plain_server_t@zmq@@AEAAXAEBV?$basic_string@DU?$char_traits@D@std@@V?$allocator@D@2@@std@@0@Z 0000000180052780 f   libzmq:plain_server.obj
 0001:00052070       ?status@plain_server_t@zmq@@UEBA?AW4status_t@mechanism_t@2@XZ 0000000180053070 f   libzmq:plain_server.obj
 0001:00052090       ?zap_msg_available@plain_server_t@zmq@@UEAAHXZ 0000000180053090 f   libzmq:plain_server.obj
 0001:00052150       ??0raw_decoder_t@zmq@@QEAA@_K@Z 0000000180053150 f   libzmq:raw_decoder.obj
 0001:00052200       ??1raw_decoder_t@zmq@@UEAA@XZ 0000000180053200 f   libzmq:raw_decoder.obj
 0001:000522b0       ??_Eraw_decoder_t@zmq@@UEAAPEAXI@Z 00000001800532b0 f i libzmq:raw_decoder.obj
 0001:000522b0       ??_Graw_decoder_t@zmq@@UEAAPEAXI@Z 00000001800532b0 f i libzmq:raw_decoder.obj
 0001:000522f0       ?decode@raw_decoder_t@zmq@@UEAAHPEBE_KAEA_K@Z 00000001800532f0 f   libzmq:raw_decoder.obj
 0001:000523d0       ?get_buffer@raw_decoder_t@zmq@@UEAAXPEAPEAEPEA_K@Z 00000001800533d0 f   libzmq:raw_decoder.obj
 0001:00052410       ?msg@raw_decoder_t@zmq@@UEAAPEAVmsg_t@2@XZ 0000000180053410 f i libzmq:raw_decoder.obj
 0001:00052410       ?addr@tcp_address_t@zmq@@QEBAPEBUsockaddr@@XZ 0000000180053410 f i libzmq:tcp_address.obj
 0001:00052420       ??0?$encoder_base_t@Vraw_encoder_t@zmq@@@zmq@@QEAA@_K@Z 0000000180053420 f i libzmq:raw_encoder.obj
 0001:000524e0       ??0raw_encoder_t@zmq@@QEAA@_K@Z 00000001800534e0 f   libzmq:raw_encoder.obj
 0001:00052540       ??1raw_encoder_t@zmq@@UEAA@XZ 0000000180053540 f   libzmq:raw_encoder.obj
 0001:00052570       ??_G?$encoder_base_t@Vraw_encoder_t@zmq@@@zmq@@UEAAPEAXI@Z 0000000180053570 f i libzmq:raw_encoder.obj
 0001:00052570       ??_E?$encoder_base_t@Vraw_encoder_t@zmq@@@zmq@@UEAAPEAXI@Z 0000000180053570 f i libzmq:raw_encoder.obj
 0001:000525c0       ??_Graw_encoder_t@zmq@@UEAAPEAXI@Z 00000001800535c0 f i libzmq:raw_encoder.obj
 0001:000525c0       ??_Eraw_encoder_t@zmq@@UEAAPEAXI@Z 00000001800535c0 f i libzmq:raw_encoder.obj
 0001:00052600       ?raw_message_ready@raw_encoder_t@zmq@@AEAAXXZ 0000000180053600 f   libzmq:raw_encoder.obj
 0001:00052670       ??0socks_choice_decoder_t@zmq@@QEAA@XZ 0000000180053670 f   libzmq:socks.obj
 0001:00052680       ??0socks_choice_t@zmq@@QEAA@E@Z 0000000180053680 f   libzmq:socks.obj
 0001:00052690       ??0socks_greeting_t@zmq@@QEAA@E@Z 0000000180053690 f   libzmq:socks.obj
 0001:000526b0       ??0socks_greeting_encoder_t@zmq@@QEAA@XZ 00000001800536b0 f   libzmq:socks.obj
 0001:000526b0       ??0socks_request_encoder_t@zmq@@QEAA@XZ 00000001800536b0 f   libzmq:socks.obj
 0001:000526c0       ??0socks_request_t@zmq@@QEAA@EV?$basic_string@DU?$char_traits@D@std@@V?$allocator@D@2@@std@@G@Z 00000001800536c0 f   libzmq:socks.obj
 0001:000527c0       ??0socks_response_decoder_t@zmq@@QEAA@XZ 00000001800537c0 f   libzmq:socks.obj
 0001:000527d0       ??0socks_response_t@zmq@@QEAA@EV?$basic_string@DU?$char_traits@D@std@@V?$allocator@D@2@@std@@G@Z 00000001800537d0 f   libzmq:socks.obj
 0001:00052870       ?decode@socks_choice_decoder_t@zmq@@QEAA?AUsocks_choice_t@2@XZ 0000000180053870 f   libzmq:socks.obj
 0001:000528f0       ?decode@socks_response_decoder_t@zmq@@QEAA?AUsocks_response_t@2@XZ 00000001800538f0 f   libzmq:socks.obj
 0001:000529b0       ?encode@socks_greeting_encoder_t@zmq@@QEAAXAEBUsocks_greeting_t@2@@Z 00000001800539b0 f   libzmq:socks.obj
 0001:00052a20       ?encode@socks_request_encoder_t@zmq@@QEAAXAEBUsocks_request_t@2@@Z 0000000180053a20 f   libzmq:socks.obj
 0001:00052bc0       ?has_pending_data@socks_request_encoder_t@zmq@@QEBA_NXZ 0000000180053bc0 f   libzmq:socks.obj
 0001:00052bc0       ?has_pending_data@socks_greeting_encoder_t@zmq@@QEBA_NXZ 0000000180053bc0 f   libzmq:socks.obj
 0001:00052bd0       ?input@socks_choice_decoder_t@zmq@@QEAAH_K@Z 0000000180053bd0 f   libzmq:socks.obj
 0001:00052c70       ?input@socks_response_decoder_t@zmq@@QEAAH_K@Z 0000000180053c70 f   libzmq:socks.obj
 0001:00052db0       ?message_ready@socks_choice_decoder_t@zmq@@QEBA_NXZ 0000000180053db0 f   libzmq:socks.obj
 0001:00052dc0       ?message_ready@socks_response_decoder_t@zmq@@QEBA_NXZ 0000000180053dc0 f   libzmq:socks.obj
 0001:00052e90       ?output@socks_greeting_encoder_t@zmq@@QEAAH_K@Z 0000000180053e90 f   libzmq:socks.obj
 0001:00052e90       ?output@socks_request_encoder_t@zmq@@QEAAH_K@Z 0000000180053e90 f   libzmq:socks.obj
 0001:00052ed0       ?reset@socks_choice_decoder_t@zmq@@QEAAXXZ 0000000180053ed0 f   libzmq:socks.obj
 0001:00052ee0       ?reset@socks_request_encoder_t@zmq@@QEAAXXZ 0000000180053ee0 f   libzmq:socks.obj
 0001:00052ee0       ?reset@socks_greeting_encoder_t@zmq@@QEAAXXZ 0000000180053ee0 f   libzmq:socks.obj
 0001:00052ef0       ?reset@socks_response_decoder_t@zmq@@QEAAXXZ 0000000180053ef0 f   libzmq:socks.obj
 0001:00052f00       ??0shared_message_memory_allocator@zmq@@QEAA@_K0@Z 0000000180053f00 f   libzmq:decoder_allocators.obj
 0001:00052f20       ??0shared_message_memory_allocator@zmq@@QEAA@_K@Z 0000000180053f20 f   libzmq:decoder_allocators.obj
 0001:00052fa0       ??1shared_message_memory_allocator@zmq@@QEAA@XZ 0000000180053fa0 f   libzmq:decoder_allocators.obj
 0001:00052fb0       ?allocate@shared_message_memory_allocator@zmq@@QEAAPEAEXZ 0000000180053fb0 f   libzmq:decoder_allocators.obj
 0001:00053080       ?call_dec_ref@shared_message_memory_allocator@zmq@@SAXPEAX0@Z 0000000180054080 f   libzmq:decoder_allocators.obj
 0001:00053100       ?data@shared_message_memory_allocator@zmq@@QEAAPEAEXZ 0000000180054100 f   libzmq:decoder_allocators.obj
 0001:00053110       ?deallocate@shared_message_memory_allocator@zmq@@QEAAXXZ 0000000180054110 f   libzmq:decoder_allocators.obj
 0001:00053150       ?inc_ref@shared_message_memory_allocator@zmq@@QEAAXXZ 0000000180054150 f   libzmq:decoder_allocators.obj
 0001:00053160       ?release@shared_message_memory_allocator@zmq@@QEAAPEAEXZ 0000000180054160 f   libzmq:decoder_allocators.obj
 0001:00053180       ?get_ctx@object_t@zmq@@QEAAPEAVctx_t@2@XZ 0000000180054180 f   libzmq:object.obj
 0001:00053180       ?size@shared_message_memory_allocator@zmq@@QEBA_KXZ 0000000180054180 f   libzmq:decoder_allocators.obj
 0001:00053180       ?get_fd@signaler_t@zmq@@QEBA_KXZ 0000000180054180 f   libzmq:signaler.obj
 0001:00053186       __WSAFDIsSet               0000000180054186 f   ws2_32:WS2_32.dll
 0001:0005318c       GetAdaptersAddresses       000000018005418c f   iphlpapi:IPHLPAPI.DLL
 0001:00053192       if_nametoindex             0000000180054192 f   iphlpapi:IPHLPAPI.DLL
 0001:00053198       if_indextoname             0000000180054198 f   iphlpapi:IPHLPAPI.DLL
 0001:000531a0       ??0bad_alloc@std@@QEAA@AEBV01@@Z 00000001800541a0 f i libcpmt:xthrow.obj
 0001:000531e0       ??0bad_alloc@std@@QEAA@XZ  00000001800541e0 f i libcpmt:xthrow.obj
 0001:00053200       ??0length_error@std@@QEAA@AEBV01@@Z 0000000180054200 f i libcpmt:xthrow.obj
 0001:00053240       ??0length_error@std@@QEAA@PEBD@Z 0000000180054240 f i libcpmt:xthrow.obj
 0001:0005328c       ??0logic_error@std@@QEAA@AEBV01@@Z 000000018005428c f i libcpmt:xthrow.obj
 0001:000532cc       ??0out_of_range@std@@QEAA@AEBV01@@Z 00000001800542cc f i libcpmt:xthrow.obj
 0001:0005330c       ??0out_of_range@std@@QEAA@PEBD@Z 000000018005430c f i libcpmt:xthrow.obj
 0001:00053358       ?__scrt_throw_std_bad_alloc@@YAXXZ 0000000180054358 f   LIBCMT:throw_bad_alloc.obj
 0001:00053358       ?_Xbad_alloc@std@@YAXXZ    0000000180054358 f   libcpmt:xthrow.obj
 0001:00053378       ?_Xlength_error@std@@YAXPEBD@Z 0000000180054378 f   libcpmt:xthrow.obj
 0001:0005339c       ?_Xout_of_range@std@@YAXPEBD@Z 000000018005439c f   libcpmt:xthrow.obj
 0001:000533c0       ??0_Init_locks@std@@QEAA@XZ 00000001800543c0 f   libcpmt:xlock.obj
 0001:0005340c       ??0_Lockit@std@@QEAA@H@Z   000000018005440c f   libcpmt:xlock.obj
 0001:00053448       ??1_Init_locks@std@@QEAA@XZ 0000000180054448 f   libcpmt:xlock.obj
 0001:0005348c       ??1_Lockit@std@@QEAA@XZ    000000018005448c f   libcpmt:xlock.obj
 0001:000534c0       ?uncaught_exception@std@@YA_NXZ 00000001800544c0 f   libcpmt:uncaught.obj
 0001:000534c8       _Getctype                  00000001800544c8 f   libcpmt:_tolower.obj
 0001:00053588       _Tolower                   0000000180054588 f   libcpmt:_tolower.obj
 0001:000536b0       _Getcvt                    00000001800546b0 f   libcpmt:xwctomb.obj
 0001:00053740       _Toupper                   0000000180054740 f   libcpmt:_toupper.obj
 0001:00053878       ??4?$_Yarn@D@std@@QEAAAEAV01@PEBD@Z 0000000180054878 f i libcpmt:locale0.obj
 0001:000538f0       ??_G_Fac_node@std@@QEAAPEAXI@Z 00000001800548f0 f i libcpmt:locale0.obj
 0001:0005397c       ??_E_Locimp@locale@std@@MEAAPEAXI@Z 000000018005497c f i libcpmt:locale0.obj
 0001:0005397c       ??_G_Locimp@locale@std@@MEAAPEAXI@Z 000000018005497c f i libcpmt:locale0.obj
 0001:000539e8       ?_Facet_Register@std@@YAXPEAV_Facet_base@1@@Z 00000001800549e8 f   libcpmt:locale0.obj
 0001:00053a20       ?_Getgloballocale@locale@std@@CAPEAV_Locimp@12@XZ 0000000180054a20 f   libcpmt:locale0.obj
 0001:00053a28       ?_Init@locale@std@@CAPEAV_Locimp@12@_N@Z 0000000180054a28 f   libcpmt:locale0.obj
 0001:00053ae4       ?_Locimp_dtor@_Locimp@locale@std@@CAXPEAV123@@Z 0000000180054ae4 f   libcpmt:locale0.obj
 0001:00053b8c       ?_Locinfo_ctor@_Locinfo@std@@SAXPEAV12@PEBD@Z 0000000180054b8c f   libcpmt:locale0.obj
 0001:00053bf8       ?_Locinfo_dtor@_Locinfo@std@@SAXPEAV12@@Z 0000000180054bf8 f   libcpmt:locale0.obj
 0001:00053c1c       ?_New_Locimp@_Locimp@locale@std@@CAPEAV123@_N@Z 0000000180054c1c f   libcpmt:locale0.obj
 0001:00053c8c       ?_Setgloballocale@locale@std@@CAXPEAX@Z 0000000180054c8c f   libcpmt:locale0.obj
 0001:00053cc0       _Deletegloballocale        0000000180054cc0 f   libcpmt:locale0.obj
 0001:00053d48       ?_Syserror_map@std@@YAPEBDH@Z 0000000180054d48 f   libcpmt:syserror.obj
 0001:00053d70       ??_Glocale@std@@QEAAPEAXI@Z 0000000180054d70 f i libcpmt:ios.obj
 0001:00053e00       ?_Addstd@ios_base@std@@SAXPEAV12@@Z 0000000180054e00 f   libcpmt:ios.obj
 0001:00053e70       ?_Ios_base_dtor@ios_base@std@@CAXPEAV12@@Z 0000000180054e70 f   libcpmt:ios.obj
 0001:00053eb4       ?_Tidy@ios_base@std@@AEAAXXZ 0000000180054eb4 f i libcpmt:ios.obj
 0001:00053f50       ??1mutex_t@zmq@@QEAA@XZ    0000000180054f50 f   libzmq:ctx.obj
 0001:00053f50       _Mtxdst                    0000000180054f50 f   libcpmt:xmtx.obj
 0001:00053f58       _Mtxinit                   0000000180054f58 f   libcpmt:xmtx.obj
 0001:00053f68       _Mtxlock                   0000000180054f68 f   libcpmt:xmtx.obj
 0001:00053f70       _Mtxunlock                 0000000180054f70 f   libcpmt:xmtx.obj
 0001:00053f78       __crtLCMapStringA          0000000180054f78 f   libcpmt:StlLCMapStringA.obj
 0001:00054264       ?_Atexit@@YAXP6AXXZ@Z      0000000180055264 f   libcpmt:iosptrs.obj
 0001:00054774       __crtInitializeCriticalSectionEx 0000000180055774 f   libcpmt:winapisupp.obj
 0001:000547d4       GetTableIndexFromLocaleName 00000001800557d4 f   libcpmt:winapinls.obj
 0001:00054860       __crtDownlevelLocaleNameToLCID 0000000180055860 f   libcpmt:winapinls.obj
 0001:00054894       __crtLCMapStringEx         0000000180055894 f   libcpmt:winapinls.obj
 0001:00054950       __wcsnicmp_ascii           0000000180055950 f   libcpmt:winapinls.obj
 0001:000549c0       __security_check_cookie    00000001800559c0 f   LIBCMT:_amdsecgs_.obj
 0001:000549e4       __raise_securityfailure    00000001800559e4 f   LIBCMT:gs_report.obj
 0001:00054a18       __report_gsfailure         0000000180055a18 f   LIBCMT:gs_report.obj
 0001:00054aec       __report_rangecheckfailure 0000000180055aec f   LIBCMT:gs_report.obj
 0001:00054b00       __report_securityfailure   0000000180055b00 f   LIBCMT:gs_report.obj
 0001:00054c80       ??2@YAPEAX_K@Z             0000000180055c80 f   LIBCMT:new_scalar.obj
 0001:00054cbc       __scrt_acquire_startup_lock 0000000180055cbc f   LIBCMT:utility.obj
 0001:00054cf8       __scrt_dllmain_after_initialize_c 0000000180055cf8 f   LIBCMT:utility.obj
 0001:00054d2c       __scrt_dllmain_before_initialize_c 0000000180055d2c f   LIBCMT:utility.obj
 0001:00054d44       __scrt_dllmain_crt_thread_attach 0000000180055d44 f   LIBCMT:utility.obj
 0001:00054d6c       __scrt_dllmain_crt_thread_detach 0000000180055d6c f   LIBCMT:utility.obj
 0001:00054d84       __scrt_dllmain_exception_filter 0000000180055d84 f   LIBCMT:utility.obj
 0001:00054de8       __scrt_dllmain_uninitialize_c 0000000180055de8 f   LIBCMT:utility.obj
 0001:00054e18       __scrt_dllmain_uninitialize_critical 0000000180055e18 f   LIBCMT:utility.obj
 0001:00054e2c       __scrt_initialize_crt      0000000180055e2c f   LIBCMT:utility.obj
 0001:00054e78       __scrt_initialize_onexit_tables 0000000180055e78 f   LIBCMT:utility.obj
 0001:00054f44       __scrt_is_nonwritable_in_current_image 0000000180055f44 f   LIBCMT:utility.obj
 0001:00054fe0       __scrt_release_startup_lock 0000000180055fe0 f   LIBCMT:utility.obj
 0001:00055004       __scrt_uninitialize_crt    0000000180056004 f   LIBCMT:utility.obj
 0001:00055030       _onexit                    0000000180056030 f   LIBCMT:utility.obj
 0001:00055080       atexit                     0000000180056080 f   LIBCMT:utility.obj
 0001:00055098       ??_V@YAXPEAX@Z             0000000180056098 f   LIBCMT:delete_array.obj
 0001:00055098       ??3@YAXPEAX_K@Z            0000000180056098 f   LIBCMT:delete_scalar_size.obj
 0001:00055098       ??3@YAXPEAXAEBUnothrow_t@std@@@Z 0000000180056098 f   LIBCMT:delete_scalar_nothrow.obj
 0001:000553ec       _DllMainCRTStartup         00000001800563ec f   LIBCMT:dll_dllmain.obj
 0001:0005542c       ??_U@YAPEAX_K@Z            000000018005642c f   LIBCMT:new_array.obj
 0001:00055434       ??2@YAPEAX_KAEBUnothrow_t@std@@@Z 0000000180056434 f   LIBCMT:new_scalar_nothrow.obj
 0001:00055454       __GSHandlerCheck           0000000180056454 f   LIBCMT:_gshandler_.obj
 0001:00055474       __GSHandlerCheckCommon     0000000180056474 f   LIBCMT:_gshandler_.obj
 0001:000554d0       __GSHandlerCheck_EH        00000001800564d0 f   LIBCMT:gshandlereh.obj
 0001:00055550       ??_Gtype_info@@UEAAPEAXI@Z 0000000180056550 f i LIBCMT:std_type_info_static.obj
 0001:00055550       ??_Etype_info@@UEAAPEAXI@Z 0000000180056550 f i LIBCMT:std_type_info_static.obj
 0001:00055590       _alloca_probe              0000000180056590 f   LIBCMT:_chkstk_.obj
 0001:00055590       __chkstk                   0000000180056590 f   LIBCMT:_chkstk_.obj
 0001:0005572c       _Init_thread_footer        000000018005672c f   LIBCMT:thread_safe_statics.obj
 0001:0005578c       _Init_thread_header        000000018005678c f   LIBCMT:thread_safe_statics.obj
 0001:000557f4       _Init_thread_notify        00000001800567f4 f   LIBCMT:thread_safe_statics.obj
 0001:00055850       _Init_thread_wait          0000000180056850 f   LIBCMT:thread_safe_statics.obj
 0001:000558e8       _guard_check_icall         00000001800568e8 f i LIBCMT:checkcfg.obj
 0001:000558f0       ??0bad_array_new_length@std@@QEAA@AEBV01@@Z 00000001800568f0 f i LIBCMT:throw_bad_alloc.obj
 0001:00055930       ??0bad_array_new_length@std@@QEAA@XZ 0000000180056930 f i LIBCMT:throw_bad_alloc.obj
 0001:00055950       ??1failure@ios_base@std@@UEAA@XZ 0000000180056950 f i libzmq:tcp_address.obj
 0001:00055950       ??1length_error@std@@UEAA@XZ 0000000180056950 f i libcpmt:xthrow.obj
 0001:00055950       ??1bad_cast@std@@UEAA@XZ   0000000180056950 f i libzmq:tcp_address.obj
 0001:00055950       ??1runtime_error@std@@UEAA@XZ 0000000180056950 f i libzmq:tcp_address.obj
 0001:00055950       ??1bad_exception@std@@UEAA@XZ 0000000180056950 f i libvcruntime:frame.obj
 0001:00055950       ??1bad_alloc@std@@UEAA@XZ  0000000180056950 f i libcpmt:xthrow.obj
 0001:00055950       ??1bad_array_new_length@std@@UEAA@XZ 0000000180056950 f i LIBCMT:throw_bad_alloc.obj
 0001:00055950       ??1out_of_range@std@@UEAA@XZ 0000000180056950 f i libcpmt:xthrow.obj
 0001:00055970       ??_Ebad_alloc@std@@UEAAPEAXI@Z 0000000180056970 f i libcpmt:xthrow.obj
 0001:00055970       ??_Eexception@std@@UEAAPEAXI@Z 0000000180056970 f i libzmq:tcp_address.obj
 0001:00055970       ??_Ebad_array_new_length@std@@UEAAPEAXI@Z 0000000180056970 f i LIBCMT:throw_bad_alloc.obj
 0001:00055970       ??_Glogic_error@std@@UEAAPEAXI@Z 0000000180056970 f i libcpmt:xthrow.obj
 0001:00055970       ??_Gbad_cast@std@@UEAAPEAXI@Z 0000000180056970 f i libzmq:tcp_address.obj
 0001:00055970       ??_Eruntime_error@std@@UEAAPEAXI@Z 0000000180056970 f i libzmq:tcp_address.obj
 0001:00055970       ??_Gout_of_range@std@@UEAAPEAXI@Z 0000000180056970 f i libcpmt:xthrow.obj
 0001:00055970       ??_Gruntime_error@std@@UEAAPEAXI@Z 0000000180056970 f i libzmq:tcp_address.obj
 0001:00055970       ??_Elength_error@std@@UEAAPEAXI@Z 0000000180056970 f i libcpmt:xthrow.obj
 0001:00055970       ??_Glength_error@std@@UEAAPEAXI@Z 0000000180056970 f i libcpmt:xthrow.obj
 0001:00055970       ??_Gbad_alloc@std@@UEAAPEAXI@Z 0000000180056970 f i libcpmt:xthrow.obj
 0001:00055970       ??_Eout_of_range@std@@UEAAPEAXI@Z 0000000180056970 f i libcpmt:xthrow.obj
 0001:00055970       ??_Ebad_exception@std@@UEAAPEAXI@Z 0000000180056970 f i libvcruntime:frame.obj
 0001:00055970       ??_Gbad_exception@std@@UEAAPEAXI@Z 0000000180056970 f i libvcruntime:frame.obj
 0001:00055970       ??_Gexception@std@@UEAAPEAXI@Z 0000000180056970 f i libzmq:tcp_address.obj
 0001:00055970       ??_Gbad_array_new_length@std@@UEAAPEAXI@Z 0000000180056970 f i LIBCMT:throw_bad_alloc.obj
 0001:00055970       ??_Elogic_error@std@@UEAAPEAXI@Z 0000000180056970 f i libcpmt:xthrow.obj
 0001:00055970       ??_Ebad_cast@std@@UEAAPEAXI@Z 0000000180056970 f i libzmq:tcp_address.obj
 0001:000559b4       ?__scrt_throw_std_bad_array_new_length@@YAXXZ 00000001800569b4 f   LIBCMT:throw_bad_alloc.obj
 0001:000559d4       __isa_available_init       00000001800569d4 f   LIBCMT:_cpu_disp_.obj
 0001:00055b9c       __scrt_is_ucrt_dll_in_use  0000000180056b9c f   LIBCMT:ucrt_detection.obj
 0001:00055ba8       __crt_debugger_hook        0000000180056ba8 f   LIBCMT:utility_desktop.obj
 0001:00055bb0       __scrt_fastfail            0000000180056bb0 f   LIBCMT:utility_desktop.obj
 0001:00055cf8       __security_init_cookie     0000000180056cf8 f   LIBCMT:gs_support.obj
 0001:00055da4       _get_startup_argv_mode     0000000180056da4 f   LIBCMT:argv_mode.obj
 0001:00055da4       DllMain                    0000000180056da4 f   LIBCMT:dll_dllmain_stub.obj
 0001:00055dac       ?__scrt_initialize_type_info@@YAXXZ 0000000180056dac f   LIBCMT:tncleanup.obj
 0001:00055dbc       ?__scrt_uninitialize_type_info@@YAXXZ 0000000180056dbc f   LIBCMT:tncleanup.obj
 0001:00055dc8       __local_stdio_scanf_options 0000000180056dc8 f i LIBCMT:default_local_stdio_options.obj
 0001:00055dd0       __scrt_initialize_default_local_stdio_options 0000000180056dd0 f   LIBCMT:default_local_stdio_options.obj
 0001:00055dec       __scrt_get_dyn_tls_init_callback 0000000180056dec f   LIBCMT:dyn_tls_init.obj
 0001:00055df4       _RTC_Initialize            0000000180056df4 f   LIBCMT:_initsect_.obj
 0001:00055e40       _RTC_Terminate             0000000180056e40 f   LIBCMT:_initsect_.obj
 0001:00055ea0       memmove                    0000000180056ea0 f   libvcruntime:memcpy.obj
 0001:00055ea0       memcpy                     0000000180056ea0 f   libvcruntime:memcpy.obj
 0001:000562d8       _CxxThrowException         00000001800572d8 f   libvcruntime:throw.obj
 0001:000563b0       ?_ExecutionInCatch@@YAHPEAU_xDISPATCHER_CONTEXT@@PEBU_s_FuncInfo@@@Z 00000001800573b0 f   libvcruntime:trnsctrl.obj
 0001:00056424       ?_GetEstablisherFrame@@YAPEA_KPEA_KPEAU_xDISPATCHER_CONTEXT@@PEBU_s_FuncInfo@@0@Z 0000000180057424 f   libvcruntime:trnsctrl.obj
 0001:000564f0       ?_GetRangeOfTrysToCheck@@YAPEBU_s_TryBlockMapEntry@@PEA_KPEBU_s_FuncInfo@@HHPEAI2PEAU_xDISPATCHER_CONTEXT@@@Z 00000001800574f0 f   libvcruntime:trnsctrl.obj
 0001:0005661c       ?__FrameUnwindToEmptyState@@YAXPEA_KPEAU_xDISPATCHER_CONTEXT@@PEBU_s_FuncInfo@@@Z 000000018005761c f   libvcruntime:trnsctrl.obj
 0001:000566b0       ?__SehTransFilter@@YAHPEAU_EXCEPTION_POINTERS@@PEAUEHExceptionRecord@@PEA_KPEAU_CONTEXT@@PEAU_xDISPATCHER_CONTEXT@@PEBU_s_FuncInfo@@PEAH@Z 00000001800576b0 f   libvcruntime:trnsctrl.obj
 0001:00056748       _CallSETranslator          0000000180057748 f   libvcruntime:trnsctrl.obj
 0001:000567a0       _CreateFrameInfo           00000001800577a0 f   libvcruntime:trnsctrl.obj
 0001:000567dc       _FindAndUnlinkFrame        00000001800577dc f   libvcruntime:trnsctrl.obj
 0001:00056834       _GetImageBase              0000000180057834 f   libvcruntime:trnsctrl.obj
 0001:00056848       _GetThrowImageBase         0000000180057848 f   libvcruntime:trnsctrl.obj
 0001:0005685c       _IsExceptionObjectToBeDestroyed 000000018005785c f   libvcruntime:trnsctrl.obj
 0001:0005688c       _SetImageBase              000000018005788c f   libvcruntime:trnsctrl.obj
 0001:000568a4       _SetThrowImageBase         00000001800578a4 f   libvcruntime:trnsctrl.obj
 0001:000568bc       _UnwindNestedFrames        00000001800578bc f   libvcruntime:trnsctrl.obj
 0001:000569e0       __CxxFrameHandler3         00000001800579e0 f   libvcruntime:trnsctrl.obj
 0001:00056a60       __DestructExceptionObject  0000000180057a60 f   libvcruntime:frame.obj
 0001:00056ae8       ??0bad_exception@std@@QEAA@AEBV01@@Z 0000000180057ae8 f i libvcruntime:frame.obj
 0001:00056b28       ??0bad_exception@std@@QEAA@XZ 0000000180057b28 f i libvcruntime:frame.obj
 0001:000574a4       ?_CallMemberFunction0@@YAXPEAXP6AX0@Z@Z 00000001800584a4 f i libvcruntime:frame.obj
 0001:000574a8       ?_CallMemberFunction1@@YAXPEAXP6AX0@Z0@Z 00000001800584a8 f i libvcruntime:frame.obj
 0001:000574b4       ?_CallMemberFunction2@@YAXPEAXP6AX0@Z0H@Z 00000001800584b4 f i libvcruntime:frame.obj
 0001:000574c4       __AdjustPointer            00000001800584c4 f   libvcruntime:frame.obj
 0001:000574e8       __BuildCatchObject         00000001800584e8 f   libvcruntime:frame.obj
 0001:000575ac       __BuildCatchObjectHelper   00000001800585ac f   libvcruntime:frame.obj
 0001:0005778c       __CxxCallCatchBlock        000000018005878c f   libvcruntime:frame.obj
 0001:00057978       __FrameUnwindFilter        0000000180058978 f   libvcruntime:frame.obj
 0001:000579c4       __FrameUnwindToState       00000001800589c4 f   libvcruntime:frame.obj
 0001:00057b58       __InternalCxxFrameHandler  0000000180058b58 f   libvcruntime:frame.obj
 0001:00057db0       __TypeMatch                0000000180058db0 f   libvcruntime:frame.obj
 0001:00057ef0       __std_terminate            0000000180058ef0 f   libvcruntime:frame.obj
 0001:00057efc       __uncaught_exception       0000000180058efc f   libvcruntime:frame.obj
 0001:00057f30       memcmp                     0000000180058f30 f   libvcruntime:memcmp.obj
 0001:00058010       memset                     0000000180059010 f   libvcruntime:memset.obj
 0001:000581b0       _purecall                  00000001800591b0 f   libvcruntime:purevirt.obj
 0001:000581ec       memchr                     00000001800591ec f   libvcruntime:memchr.obj
 0001:00058208       strrchr                    0000000180059208 f   libvcruntime:strrchr.obj
 0001:00058348       __std_exception_copy       0000000180059348 f   libvcruntime:std_exception.obj
 0001:000583d8       __std_exception_destroy    00000001800593d8 f   libvcruntime:std_exception.obj
 0001:00058400       __vcrt_initialize          0000000180059400 f   libvcruntime:initialization.obj
 0001:00058434       __vcrt_thread_attach       0000000180059434 f   libvcruntime:initialization.obj
 0001:00058448       __vcrt_thread_detach       0000000180059448 f   libvcruntime:initialization.obj
 0001:0005845c       __vcrt_uninitialize        000000018005945c f   libvcruntime:initialization.obj
 0001:0005847c       __vcrt_uninitialize_critical 000000018005947c f   libvcruntime:initialization.obj
 0001:0005848c       __C_specific_handler       000000018005948c f   libvcruntime:_chandler_.obj
 0001:00058850       __vcrt_FlsAlloc            0000000180059850 f   libvcruntime:winapi_downlevel.obj
 0001:000588a4       __vcrt_FlsFree             00000001800598a4 f   libvcruntime:winapi_downlevel.obj
 0001:000588f8       __vcrt_FlsGetValue         00000001800598f8 f   libvcruntime:winapi_downlevel.obj
 0001:0005894c       __vcrt_FlsSetValue         000000018005994c f   libvcruntime:winapi_downlevel.obj
 0001:000589b4       __vcrt_InitializeCriticalSectionEx 00000001800599b4 f   libvcruntime:winapi_downlevel.obj
 0001:00058a2c       __vcrt_initialize_winapi_thunks 0000000180059a2c f   libvcruntime:winapi_downlevel.obj
 0001:00058a78       __vcrt_uninitialize_winapi_thunks 0000000180059a78 f   libvcruntime:winapi_downlevel.obj
 0001:00058ab8       __std_type_info_compare    0000000180059ab8 f   libvcruntime:std_type_info.obj
 0001:00058ae0       __std_type_info_destroy_list 0000000180059ae0 f   libvcruntime:std_type_info.obj
 0001:00058b0c       __vcrt_freefls             0000000180059b0c f   libvcruntime:per_thread_data.obj
 0001:00058b2c       __vcrt_freeptd             0000000180059b2c f   libvcruntime:per_thread_data.obj
 0001:00058b7c       __vcrt_getptd              0000000180059b7c f   libvcruntime:per_thread_data.obj
 0001:00058b98       __vcrt_getptd_noexit       0000000180059b98 f   libvcruntime:per_thread_data.obj
 0001:00058c50       __vcrt_initialize_ptd      0000000180059c50 f   libvcruntime:per_thread_data.obj
 0001:00058c90       __vcrt_uninitialize_ptd    0000000180059c90 f   libvcruntime:per_thread_data.obj
 0001:00058cb4       ?__GetCurrentState@@YAHPEA_KPEAU_xDISPATCHER_CONTEXT@@PEBU_s_FuncInfo@@@Z 0000000180059cb4 f   libvcruntime:ehstate.obj
 0001:00058cdc       ?__GetUnwindTryBlock@@YAHPEA_KPEAU_xDISPATCHER_CONTEXT@@PEBU_s_FuncInfo@@@Z 0000000180059cdc f   libvcruntime:ehstate.obj
 0001:00058d08       ?__SetState@@YAXPEA_KPEAU_xDISPATCHER_CONTEXT@@PEBU_s_FuncInfo@@H@Z 0000000180059d08 f   libvcruntime:ehstate.obj
 0001:00058d14       ?__SetUnwindTryBlock@@YAXPEA_KPEAU_xDISPATCHER_CONTEXT@@PEBU_s_FuncInfo@@H@Z 0000000180059d14 f   libvcruntime:ehstate.obj
 0001:00058d50       ?__StateFromControlPc@@YAHPEBU_s_FuncInfo@@PEAU_xDISPATCHER_CONTEXT@@@Z 0000000180059d50 f   libvcruntime:ehstate.obj
 0001:00058d58       ?__StateFromIp@@YAHPEBU_s_FuncInfo@@PEAU_xDISPATCHER_CONTEXT@@_J@Z 0000000180059d58 f   libvcruntime:ehstate.obj
 0001:00058de0       _CallSettingFrame          0000000180059de0 f   libvcruntime:handlers.obj
 0001:00058e30       _local_unwind              0000000180059e30 f   libvcruntime:_jmpuwind_.obj
 0001:00058e60       _NLG_Notify                0000000180059e60 f   libvcruntime:_jmpuwind_.obj
 0001:00058e80       __NLG_Dispatch2            0000000180059e80 f   libvcruntime:_jmpuwind_.obj
 0001:00058e90       __NLG_Return2              0000000180059e90 f   libvcruntime:_jmpuwind_.obj
 0001:00058e94       __vcrt_initialize_pure_virtual_call_handler 0000000180059e94 f   libvcruntime:purevirt_data.obj
 0001:00058eb8       __vcrt_initialize_locks    0000000180059eb8 f   libvcruntime:locks.obj
 0001:00058f00       __vcrt_uninitialize_locks  0000000180059f00 f   libvcruntime:locks.obj
 0001:00059524       ??$ensure_buffer_is_big_enough@D@formatting_buffer@__crt_stdio_output@@QEAA_N_K@Z 000000018005a524 f i libucrt:output.obj
 0001:000595cc       ??$ensure_buffer_is_big_enough@_W@formatting_buffer@__crt_stdio_output@@QEAA_N_K@Z 000000018005a5cc f i libucrt:output.obj
 0001:00059678       ??$is_wide_character_specifier@_W@__crt_stdio_output@@YA_N_K_WW4length_modifier@0@@Z 000000018005a678 f i libucrt:output.obj
 0001:000596b8       ??$type_case_integer_parse_into_buffer@I@?$output_processor@DV?$stream_output_adapter@D@__crt_stdio_output@@V?$standard_base@DV?$stream_output_adapter@D@__crt_stdio_output@@@2@@__crt_stdio_output@@AEAAXII_N@Z 000000018005a6b8 f i libucrt:output.obj
 0001:000596b8       ??$type_case_integer_parse_into_buffer@I@?$output_processor@DV?$string_output_adapter@D@__crt_stdio_output@@V?$format_validation_base@DV?$string_output_adapter@D@__crt_stdio_output@@@2@@__crt_stdio_output@@AEAAXII_N@Z 000000018005a6b8 f i libucrt:output.obj
 0001:000596b8       ??$type_case_integer_parse_into_buffer@I@?$output_processor@DV?$string_output_adapter@D@__crt_stdio_output@@V?$standard_base@DV?$string_output_adapter@D@__crt_stdio_output@@@2@@__crt_stdio_output@@AEAAXII_N@Z 000000018005a6b8 f i libucrt:output.obj
 0001:00059748       ??$type_case_integer_parse_into_buffer@I@?$output_processor@_WV?$stream_output_adapter@_W@__crt_stdio_output@@V?$standard_base@_WV?$stream_output_adapter@_W@__crt_stdio_output@@@2@@__crt_stdio_output@@AEAAXII_N@Z 000000018005a748 f i libucrt:output.obj
 0001:00059748       ??$type_case_integer_parse_into_buffer@I@?$output_processor@_WV?$string_output_adapter@_W@__crt_stdio_output@@V?$standard_base@_WV?$string_output_adapter@_W@__crt_stdio_output@@@2@@__crt_stdio_output@@AEAAXII_N@Z 000000018005a748 f i libucrt:output.obj
 0001:000597e8       ??$type_case_integer_parse_into_buffer@_K@?$output_processor@DV?$stream_output_adapter@D@__crt_stdio_output@@V?$standard_base@DV?$stream_output_adapter@D@__crt_stdio_output@@@2@@__crt_stdio_output@@AEAAX_KI_N@Z 000000018005a7e8 f i libucrt:output.obj
 0001:000597e8       ??$type_case_integer_parse_into_buffer@_K@?$output_processor@DV?$string_output_adapter@D@__crt_stdio_output@@V?$standard_base@DV?$string_output_adapter@D@__crt_stdio_output@@@2@@__crt_stdio_output@@AEAAX_KI_N@Z 000000018005a7e8 f i libucrt:output.obj
 0001:000597e8       ??$type_case_integer_parse_into_buffer@_K@?$output_processor@DV?$string_output_adapter@D@__crt_stdio_output@@V?$format_validation_base@DV?$string_output_adapter@D@__crt_stdio_output@@@2@@__crt_stdio_output@@AEAAX_KI_N@Z 000000018005a7e8 f i libucrt:output.obj
 0001:0005987c       ??$type_case_integer_parse_into_buffer@_K@?$output_processor@_WV?$stream_output_adapter@_W@__crt_stdio_output@@V?$standard_base@_WV?$stream_output_adapter@_W@__crt_stdio_output@@@2@@__crt_stdio_output@@AEAAX_KI_N@Z 000000018005a87c f i libucrt:output.obj
 0001:0005987c       ??$type_case_integer_parse_into_buffer@_K@?$output_processor@_WV?$string_output_adapter@_W@__crt_stdio_output@@V?$standard_base@_WV?$string_output_adapter@_W@__crt_stdio_output@@@2@@__crt_stdio_output@@AEAAX_KI_N@Z 000000018005a87c f i libucrt:output.obj
 0001:00059920       ??$write_multiple_characters@V?$stream_output_adapter@D@__crt_stdio_output@@D@__crt_stdio_output@@YAXAEBV?$stream_output_adapter@D@0@DHQEAH@Z 000000018005a920 f i libucrt:output.obj
 0001:000599ac       ??$write_multiple_characters@V?$stream_output_adapter@_W@__crt_stdio_output@@D@__crt_stdio_output@@YAXAEBV?$stream_output_adapter@_W@0@DHQEAH@Z 000000018005a9ac f i libucrt:output.obj
 0001:00059a40       ??$write_multiple_characters@V?$string_output_adapter@D@__crt_stdio_output@@D@__crt_stdio_output@@YAXAEBV?$string_output_adapter@D@0@DHQEAH@Z 000000018005aa40 f i libucrt:output.obj
 0001:00059ab8       ??$write_multiple_characters@V?$string_output_adapter@_W@__crt_stdio_output@@D@__crt_stdio_output@@YAXAEBV?$string_output_adapter@_W@0@DHQEAH@Z 000000018005aab8 f i libucrt:output.obj
 0001:00059b34       ??0_LocaleUpdate@@QEAA@QEAU__crt_locale_pointers@@@Z 000000018005ab34 f i libucrt:output.obj
 0001:00059bd0       ??1_LocaleUpdate@@QEAA@XZ  000000018005abd0 f i libucrt:output.obj
 0001:00059e48       ?crop_zeroes@__crt_stdio_output@@YAXPEADQEAU__crt_locale_pointers@@@Z 000000018005ae48 f i libucrt:output.obj
 0001:00059eb4       ?force_decimal_point@__crt_stdio_output@@YAXPEADQEAU__crt_locale_pointers@@@Z 000000018005aeb4 f i libucrt:output.obj
 0001:00059f24       ?parse_int_from_format_string@?$output_processor@DV?$stream_output_adapter@D@__crt_stdio_output@@V?$standard_base@DV?$stream_output_adapter@D@__crt_stdio_output@@@2@@__crt_stdio_output@@AEAA_NQEAH@Z 000000018005af24 f i libucrt:output.obj
 0001:00059f24       ?parse_int_from_format_string@?$output_processor@DV?$string_output_adapter@D@__crt_stdio_output@@V?$standard_base@DV?$string_output_adapter@D@__crt_stdio_output@@@2@@__crt_stdio_output@@AEAA_NQEAH@Z 000000018005af24 f i libucrt:output.obj
 0001:00059f24       ?parse_int_from_format_string@?$output_processor@DV?$string_output_adapter@D@__crt_stdio_output@@V?$format_validation_base@DV?$string_output_adapter@D@__crt_stdio_output@@@2@@__crt_stdio_output@@AEAA_NQEAH@Z 000000018005af24 f i libucrt:output.obj
 0001:00059fc8       ?parse_int_from_format_string@?$output_processor@_WV?$string_output_adapter@_W@__crt_stdio_output@@V?$standard_base@_WV?$string_output_adapter@_W@__crt_stdio_output@@@2@@__crt_stdio_output@@AEAA_NQEAH@Z 000000018005afc8 f i libucrt:output.obj
 0001:00059fc8       ?parse_int_from_format_string@?$output_processor@_WV?$stream_output_adapter@_W@__crt_stdio_output@@V?$standard_base@_WV?$stream_output_adapter@_W@__crt_stdio_output@@@2@@__crt_stdio_output@@AEAA_NQEAH@Z 000000018005afc8 f i libucrt:output.obj
 0001:0005a06c       ?process@?$output_processor@DV?$stream_output_adapter@D@__crt_stdio_output@@V?$standard_base@DV?$stream_output_adapter@D@__crt_stdio_output@@@2@@__crt_stdio_output@@QEAAHXZ 000000018005b06c f i libucrt:output.obj
 0001:0005a280       ?process@?$output_processor@DV?$string_output_adapter@D@__crt_stdio_output@@V?$format_validation_base@DV?$string_output_adapter@D@__crt_stdio_output@@@2@@__crt_stdio_output@@QEAAHXZ 000000018005b280 f i libucrt:output.obj
 0001:0005a494       ?process@?$output_processor@DV?$string_output_adapter@D@__crt_stdio_output@@V?$standard_base@DV?$string_output_adapter@D@__crt_stdio_output@@@2@@__crt_stdio_output@@QEAAHXZ 000000018005b494 f i libucrt:output.obj
 0001:0005a698       ?process@?$output_processor@_WV?$stream_output_adapter@_W@__crt_stdio_output@@V?$standard_base@_WV?$stream_output_adapter@_W@__crt_stdio_output@@@2@@__crt_stdio_output@@QEAAHXZ 000000018005b698 f i libucrt:output.obj
 0001:0005a8f0       ?process@?$output_processor@_WV?$string_output_adapter@_W@__crt_stdio_output@@V?$standard_base@_WV?$string_output_adapter@_W@__crt_stdio_output@@@2@@__crt_stdio_output@@QEAAHXZ 000000018005b8f0 f i libucrt:output.obj
 0001:0005ab4c       ?state_case_normal@?$output_processor@DV?$stream_output_adapter@D@__crt_stdio_output@@V?$standard_base@DV?$stream_output_adapter@D@__crt_stdio_output@@@2@@__crt_stdio_output@@AEAA_NXZ 000000018005bb4c f i libucrt:output.obj
 0001:0005abbc       ?state_case_normal@?$output_processor@DV?$string_output_adapter@D@__crt_stdio_output@@V?$format_validation_base@DV?$string_output_adapter@D@__crt_stdio_output@@@2@@__crt_stdio_output@@AEAA_NXZ 000000018005bbbc f i libucrt:output.obj
 0001:0005abbc       ?state_case_normal@?$output_processor@DV?$string_output_adapter@D@__crt_stdio_output@@V?$standard_base@DV?$string_output_adapter@D@__crt_stdio_output@@@2@@__crt_stdio_output@@AEAA_NXZ 000000018005bbbc f i libucrt:output.obj
 0001:0005ac30       ?state_case_normal_tchar@?$output_processor@DV?$stream_output_adapter@D@__crt_stdio_output@@V?$standard_base@DV?$stream_output_adapter@D@__crt_stdio_output@@@2@@__crt_stdio_output@@AEAA_ND@Z 000000018005bc30 f i libucrt:output.obj
 0001:0005accc       ?state_case_normal_tchar@?$output_processor@DV?$string_output_adapter@D@__crt_stdio_output@@V?$format_validation_base@DV?$string_output_adapter@D@__crt_stdio_output@@@2@@__crt_stdio_output@@AEAA_ND@Z 000000018005bccc f i libucrt:output.obj
 0001:0005accc       ?state_case_normal_tchar@?$output_processor@DV?$string_output_adapter@D@__crt_stdio_output@@V?$standard_base@DV?$string_output_adapter@D@__crt_stdio_output@@@2@@__crt_stdio_output@@AEAA_ND@Z 000000018005bccc f i libucrt:output.obj
 0001:0005ad64       ?state_case_size@?$output_processor@DV?$stream_output_adapter@D@__crt_stdio_output@@V?$standard_base@DV?$stream_output_adapter@D@__crt_stdio_output@@@2@@__crt_stdio_output@@AEAA_NXZ 000000018005bd64 f i libucrt:output.obj
 0001:0005aed8       ?state_case_size@?$output_processor@DV?$string_output_adapter@D@__crt_stdio_output@@V?$format_validation_base@DV?$string_output_adapter@D@__crt_stdio_output@@@2@@__crt_stdio_output@@AEAA_NXZ 000000018005bed8 f i libucrt:output.obj
 0001:0005aed8       ?state_case_size@?$output_processor@DV?$string_output_adapter@D@__crt_stdio_output@@V?$standard_base@DV?$string_output_adapter@D@__crt_stdio_output@@@2@@__crt_stdio_output@@AEAA_NXZ 000000018005bed8 f i libucrt:output.obj
 0001:0005b04c       ?state_case_size@?$output_processor@_WV?$stream_output_adapter@_W@__crt_stdio_output@@V?$standard_base@_WV?$stream_output_adapter@_W@__crt_stdio_output@@@2@@__crt_stdio_output@@AEAA_NXZ 000000018005c04c f i libucrt:output.obj
 0001:0005b1e4       ?state_case_size@?$output_processor@_WV?$string_output_adapter@_W@__crt_stdio_output@@V?$standard_base@_WV?$string_output_adapter@_W@__crt_stdio_output@@@2@@__crt_stdio_output@@AEAA_NXZ 000000018005c1e4 f i libucrt:output.obj
 0001:0005b37c       ?state_case_type@?$output_processor@DV?$stream_output_adapter@D@__crt_stdio_output@@V?$standard_base@DV?$stream_output_adapter@D@__crt_stdio_output@@@2@@__crt_stdio_output@@AEAA_NXZ 000000018005c37c f i libucrt:output.obj
 0001:0005b60c       ?state_case_type@?$output_processor@DV?$string_output_adapter@D@__crt_stdio_output@@V?$standard_base@DV?$string_output_adapter@D@__crt_stdio_output@@@2@@__crt_stdio_output@@AEAA_NXZ 000000018005c60c f i libucrt:output.obj
 0001:0005b60c       ?state_case_type@?$output_processor@DV?$string_output_adapter@D@__crt_stdio_output@@V?$format_validation_base@DV?$string_output_adapter@D@__crt_stdio_output@@@2@@__crt_stdio_output@@AEAA_NXZ 000000018005c60c f i libucrt:output.obj
 0001:0005b878       ?state_case_type@?$output_processor@_WV?$stream_output_adapter@_W@__crt_stdio_output@@V?$standard_base@_WV?$stream_output_adapter@_W@__crt_stdio_output@@@2@@__crt_stdio_output@@AEAA_NXZ 000000018005c878 f i libucrt:output.obj
 0001:0005bb64       ?state_case_type@?$output_processor@_WV?$string_output_adapter@_W@__crt_stdio_output@@V?$standard_base@_WV?$string_output_adapter@_W@__crt_stdio_output@@@2@@__crt_stdio_output@@AEAA_NXZ 000000018005cb64 f i libucrt:output.obj
 0001:0005be38       ?type_case_Z@?$output_processor@DV?$stream_output_adapter@D@__crt_stdio_output@@V?$standard_base@DV?$stream_output_adapter@D@__crt_stdio_output@@@2@@__crt_stdio_output@@AEAA_NXZ 000000018005ce38 f i libucrt:output.obj
 0001:0005be38       ?type_case_Z@?$output_processor@DV?$string_output_adapter@D@__crt_stdio_output@@V?$standard_base@DV?$string_output_adapter@D@__crt_stdio_output@@@2@@__crt_stdio_output@@AEAA_NXZ 000000018005ce38 f i libucrt:output.obj
 0001:0005be38       ?type_case_Z@?$output_processor@DV?$string_output_adapter@D@__crt_stdio_output@@V?$format_validation_base@DV?$string_output_adapter@D@__crt_stdio_output@@@2@@__crt_stdio_output@@AEAA_NXZ 000000018005ce38 f i libucrt:output.obj
 0001:0005beb0       ?type_case_Z@?$output_processor@_WV?$string_output_adapter@_W@__crt_stdio_output@@V?$standard_base@_WV?$string_output_adapter@_W@__crt_stdio_output@@@2@@__crt_stdio_output@@AEAA_NXZ 000000018005ceb0 f i libucrt:output.obj
 0001:0005beb0       ?type_case_Z@?$output_processor@_WV?$stream_output_adapter@_W@__crt_stdio_output@@V?$standard_base@_WV?$stream_output_adapter@_W@__crt_stdio_output@@@2@@__crt_stdio_output@@AEAA_NXZ 000000018005ceb0 f i libucrt:output.obj
 0001:0005bf2c       ?type_case_a@?$output_processor@DV?$string_output_adapter@D@__crt_stdio_output@@V?$standard_base@DV?$string_output_adapter@D@__crt_stdio_output@@@2@@__crt_stdio_output@@AEAA_NXZ 000000018005cf2c f i libucrt:output.obj
 0001:0005bf2c       ?type_case_a@?$output_processor@DV?$string_output_adapter@D@__crt_stdio_output@@V?$format_validation_base@DV?$string_output_adapter@D@__crt_stdio_output@@@2@@__crt_stdio_output@@AEAA_NXZ 000000018005cf2c f i libucrt:output.obj
 0001:0005bf2c       ?type_case_a@?$output_processor@DV?$stream_output_adapter@D@__crt_stdio_output@@V?$standard_base@DV?$stream_output_adapter@D@__crt_stdio_output@@@2@@__crt_stdio_output@@AEAA_NXZ 000000018005cf2c f i libucrt:output.obj
 0001:0005c0e8       ?type_case_a@?$output_processor@_WV?$string_output_adapter@_W@__crt_stdio_output@@V?$standard_base@_WV?$string_output_adapter@_W@__crt_stdio_output@@@2@@__crt_stdio_output@@AEAA_NXZ 000000018005d0e8 f i libucrt:output.obj
 0001:0005c0e8       ?type_case_a@?$output_processor@_WV?$stream_output_adapter@_W@__crt_stdio_output@@V?$standard_base@_WV?$stream_output_adapter@_W@__crt_stdio_output@@@2@@__crt_stdio_output@@AEAA_NXZ 000000018005d0e8 f i libucrt:output.obj
 0001:0005c2c8       ?type_case_c_tchar@?$output_processor@DV?$string_output_adapter@D@__crt_stdio_output@@V?$format_validation_base@DV?$string_output_adapter@D@__crt_stdio_output@@@2@@__crt_stdio_output@@AEAA_ND@Z 000000018005d2c8 f i libucrt:output.obj
 0001:0005c2c8       ?type_case_c_tchar@?$output_processor@DV?$stream_output_adapter@D@__crt_stdio_output@@V?$standard_base@DV?$stream_output_adapter@D@__crt_stdio_output@@@2@@__crt_stdio_output@@AEAA_ND@Z 000000018005d2c8 f i libucrt:output.obj
 0001:0005c2c8       ?type_case_c_tchar@?$output_processor@DV?$string_output_adapter@D@__crt_stdio_output@@V?$standard_base@DV?$string_output_adapter@D@__crt_stdio_output@@@2@@__crt_stdio_output@@AEAA_ND@Z 000000018005d2c8 f i libucrt:output.obj
 0001:0005c38c       ?type_case_c_tchar@?$output_processor@_WV?$stream_output_adapter@_W@__crt_stdio_output@@V?$standard_base@_WV?$stream_output_adapter@_W@__crt_stdio_output@@@2@@__crt_stdio_output@@AEAA_N_W@Z 000000018005d38c f i libucrt:output.obj
 0001:0005c38c       ?type_case_c_tchar@?$output_processor@_WV?$string_output_adapter@_W@__crt_stdio_output@@V?$standard_base@_WV?$string_output_adapter@_W@__crt_stdio_output@@@2@@__crt_stdio_output@@AEAA_N_W@Z 000000018005d38c f i libucrt:output.obj
 0001:0005c434       ?type_case_integer@?$output_processor@DV?$stream_output_adapter@D@__crt_stdio_output@@V?$standard_base@DV?$stream_output_adapter@D@__crt_stdio_output@@@2@@__crt_stdio_output@@AEAA_NI_N@Z 000000018005d434 f i libucrt:output.obj
 0001:0005c434       ?type_case_integer@?$output_processor@DV?$string_output_adapter@D@__crt_stdio_output@@V?$standard_base@DV?$string_output_adapter@D@__crt_stdio_output@@@2@@__crt_stdio_output@@AEAA_NI_N@Z 000000018005d434 f i libucrt:output.obj
 0001:0005c434       ?type_case_integer@?$output_processor@DV?$string_output_adapter@D@__crt_stdio_output@@V?$format_validation_base@DV?$string_output_adapter@D@__crt_stdio_output@@@2@@__crt_stdio_output@@AEAA_NI_N@Z 000000018005d434 f i libucrt:output.obj
 0001:0005c5fc       ?type_case_integer@?$output_processor@_WV?$string_output_adapter@_W@__crt_stdio_output@@V?$standard_base@_WV?$string_output_adapter@_W@__crt_stdio_output@@@2@@__crt_stdio_output@@AEAA_NI_N@Z 000000018005d5fc f i libucrt:output.obj
 0001:0005c5fc       ?type_case_integer@?$output_processor@_WV?$stream_output_adapter@_W@__crt_stdio_output@@V?$standard_base@_WV?$stream_output_adapter@_W@__crt_stdio_output@@@2@@__crt_stdio_output@@AEAA_NI_N@Z 000000018005d5fc f i libucrt:output.obj
 0001:0005c7c8       ?type_case_n@?$output_processor@DV?$string_output_adapter@D@__crt_stdio_output@@V?$format_validation_base@DV?$string_output_adapter@D@__crt_stdio_output@@@2@@__crt_stdio_output@@AEAA_NXZ 000000018005d7c8 f i libucrt:output.obj
 0001:0005c7c8       ?type_case_n@?$output_processor@_WV?$stream_output_adapter@_W@__crt_stdio_output@@V?$standard_base@_WV?$stream_output_adapter@_W@__crt_stdio_output@@@2@@__crt_stdio_output@@AEAA_NXZ 000000018005d7c8 f i libucrt:output.obj
 0001:0005c7c8       ?type_case_n@?$output_processor@DV?$string_output_adapter@D@__crt_stdio_output@@V?$standard_base@DV?$string_output_adapter@D@__crt_stdio_output@@@2@@__crt_stdio_output@@AEAA_NXZ 000000018005d7c8 f i libucrt:output.obj
 0001:0005c7c8       ?type_case_n@?$output_processor@DV?$stream_output_adapter@D@__crt_stdio_output@@V?$standard_base@DV?$stream_output_adapter@D@__crt_stdio_output@@@2@@__crt_stdio_output@@AEAA_NXZ 000000018005d7c8 f i libucrt:output.obj
 0001:0005c7c8       ?type_case_n@?$output_processor@_WV?$string_output_adapter@_W@__crt_stdio_output@@V?$standard_base@_WV?$string_output_adapter@_W@__crt_stdio_output@@@2@@__crt_stdio_output@@AEAA_NXZ 000000018005d7c8 f i libucrt:output.obj
 0001:0005c8a4       ?type_case_s@?$output_processor@DV?$string_output_adapter@D@__crt_stdio_output@@V?$format_validation_base@DV?$string_output_adapter@D@__crt_stdio_output@@@2@@__crt_stdio_output@@AEAA_NXZ 000000018005d8a4 f i libucrt:output.obj
 0001:0005c8a4       ?type_case_s@?$output_processor@DV?$string_output_adapter@D@__crt_stdio_output@@V?$standard_base@DV?$string_output_adapter@D@__crt_stdio_output@@@2@@__crt_stdio_output@@AEAA_NXZ 000000018005d8a4 f i libucrt:output.obj
 0001:0005c8a4       ?type_case_s@?$output_processor@DV?$stream_output_adapter@D@__crt_stdio_output@@V?$standard_base@DV?$stream_output_adapter@D@__crt_stdio_output@@@2@@__crt_stdio_output@@AEAA_NXZ 000000018005d8a4 f i libucrt:output.obj
 0001:0005c93c       ?type_case_s@?$output_processor@_WV?$stream_output_adapter@_W@__crt_stdio_output@@V?$standard_base@_WV?$stream_output_adapter@_W@__crt_stdio_output@@@2@@__crt_stdio_output@@AEAA_NXZ 000000018005d93c f i libucrt:output.obj
 0001:0005c93c       ?type_case_s@?$output_processor@_WV?$string_output_adapter@_W@__crt_stdio_output@@V?$standard_base@_WV?$string_output_adapter@_W@__crt_stdio_output@@@2@@__crt_stdio_output@@AEAA_NXZ 000000018005d93c f i libucrt:output.obj
 0001:0005ca00       ?validate_stream_is_ansi_if_required@?$__acrt_stdio_char_traits@D@@SA_NQEAU_iobuf@@@Z 000000018005da00 f i libucrt:output.obj
 0001:0005ca94       ?write_stored_string_tchar@?$output_processor@DV?$stream_output_adapter@D@__crt_stdio_output@@V?$standard_base@DV?$stream_output_adapter@D@__crt_stdio_output@@@2@@__crt_stdio_output@@AEAA_ND@Z 000000018005da94 f i libucrt:output.obj
 0001:0005cbb8       ?write_stored_string_tchar@?$output_processor@DV?$string_output_adapter@D@__crt_stdio_output@@V?$standard_base@DV?$string_output_adapter@D@__crt_stdio_output@@@2@@__crt_stdio_output@@AEAA_ND@Z 000000018005dbb8 f i libucrt:output.obj
 0001:0005cbb8       ?write_stored_string_tchar@?$output_processor@DV?$string_output_adapter@D@__crt_stdio_output@@V?$format_validation_base@DV?$string_output_adapter@D@__crt_stdio_output@@@2@@__crt_stdio_output@@AEAA_ND@Z 000000018005dbb8 f i libucrt:output.obj
 0001:0005cc90       ?write_stored_string_tchar@?$output_processor@_WV?$stream_output_adapter@_W@__crt_stdio_output@@V?$standard_base@_WV?$stream_output_adapter@_W@__crt_stdio_output@@@2@@__crt_stdio_output@@AEAA_N_W@Z 000000018005dc90 f i libucrt:output.obj
 0001:0005cd98       ?write_stored_string_tchar@?$output_processor@_WV?$string_output_adapter@_W@__crt_stdio_output@@V?$standard_base@_WV?$string_output_adapter@_W@__crt_stdio_output@@@2@@__crt_stdio_output@@AEAA_N_W@Z 000000018005dd98 f i libucrt:output.obj
 0001:0005ce84       ?write_string@?$string_output_adapter@D@__crt_stdio_output@@QEBAXQEBDHQEAHAEAV__crt_deferred_errno_cache@@@Z 000000018005de84 f i libucrt:output.obj
 0001:0005cf28       ?write_string@?$string_output_adapter@_W@__crt_stdio_output@@QEBAXQEB_WHQEAHAEAV__crt_deferred_errno_cache@@@Z 000000018005df28 f i libucrt:output.obj
 0001:0005cfd0       ?write_string_impl@?$output_adapter_common@DV?$stream_output_adapter@D@__crt_stdio_output@@@__crt_stdio_output@@IEBAXQEBDHQEAHAEAV__crt_deferred_errno_cache@@@Z 000000018005dfd0 f i libucrt:output.obj
 0001:0005d0c8       ?write_string_impl@?$output_adapter_common@_WV?$stream_output_adapter@_W@__crt_stdio_output@@@__crt_stdio_output@@IEBAXQEB_WHQEAHAEAV__crt_deferred_errno_cache@@@Z 000000018005e0c8 f i libucrt:output.obj
 0001:0005d1cc       __stdio_common_vfprintf    000000018005e1cc f   libucrt:output.obj
 0001:0005d258       __stdio_common_vfwprintf   000000018005e258 f   libucrt:output.obj
 0001:0005d2e4       __stdio_common_vsnprintf_s 000000018005e2e4 f   libucrt:output.obj
 0001:0005d418       __stdio_common_vsprintf    000000018005e418 f   libucrt:output.obj
 0001:0005d420       __stdio_common_vsprintf_s  000000018005e420 f   libucrt:output.obj
 0001:0005d484       __stdio_common_vswprintf   000000018005e484 f   libucrt:output.obj
 0001:0005d48c       free                       000000018005e48c f   libucrt:free.obj
 0001:0005de78       ??$ftprintf@PEAU_iobuf@@PEB_WAEBQEB_WAEBQEB_WAEBI@?$__crt_char_traits@_W@@SAH$$QEAPEAU_iobuf@@$$QEAPEB_WAEBQEB_W2AEBI@Z 000000018005ee78 f i libucrt:assert.obj
 0001:0005dea0       _wassert                   000000018005eea0 f   libucrt:assert.obj
 0001:0005df24       fwprintf                   000000018005ef24 f i libucrt:assert.obj
 0001:0005df68       swprintf                   000000018005ef68 f i libucrt:assert.obj
 0001:0005dfbc       __acrt_call_reportfault    000000018005efbc f   libucrt:invalid_parameter.obj
 0001:0005e118       __acrt_initialize_invalid_parameter_handler 000000018005f118 f   libucrt:invalid_parameter.obj
 0001:0005e120       _invalid_parameter         000000018005f120 f   libucrt:invalid_parameter.obj
 0001:0005e1d0       _invalid_parameter_noinfo  000000018005f1d0 f   libucrt:invalid_parameter.obj
 0001:0005e1f0       _invalid_parameter_noinfo_noreturn 000000018005f1f0 f   libucrt:invalid_parameter.obj
 0001:0005e220       _invoke_watson             000000018005f220 f   libucrt:invalid_parameter.obj
 0001:0005e268       malloc                     000000018005f268 f   libucrt:malloc.obj
 0001:0005e270       __ascii_stricmp            000000018005f270 f   libucrt:stricmp.obj
 0001:0005e2b0       _stricmp                   000000018005f2b0 f   libucrt:stricmp.obj
 0001:0005e2f8       _stricmp_l                 000000018005f2f8 f   libucrt:stricmp.obj
 0001:0005e3ac       __acrt_errno_from_os_error 000000018005f3ac f   libucrt:errno.obj
 0001:0005e3f4       __acrt_errno_map_os_error  000000018005f3f4 f   libucrt:errno.obj
 0001:0005e444       __doserrno                 000000018005f444 f   libucrt:errno.obj
 0001:0005e464       _errno                     000000018005f464 f   libucrt:errno.obj
 0001:0005e484       strerror                   000000018005f484 f   libucrt:strerror.obj
 0001:0005e52c       __acrt_initialize_stdio    000000018005f52c f   libucrt:_file.obj
 0001:0005e64c       __acrt_iob_func            000000018005f64c f   libucrt:_file.obj
 0001:0005e660       __acrt_uninitialize_stdio  000000018005f660 f   libucrt:_file.obj
 0001:0005e6bc       _lock_file                 000000018005f6bc f   libucrt:_file.obj
 0001:0005e6c8       _unlock_file               000000018005f6c8 f   libucrt:_file.obj
 0001:0005e8f0       __acrt_stdio_flush_nolock  000000018005f8f0 f   libucrt:fflush.obj
 0001:0005e96c       _fflush_nolock             000000018005f96c f   libucrt:fflush.obj
 0001:0005e9b8       _flushall                  000000018005f9b8 f   libucrt:fflush.obj
 0001:0005e9c0       fflush                     000000018005f9c0 f   libucrt:fflush.obj
 0001:0005ea28       ??$parse_integer@KV?$c_string_character_source@D@__crt_strtox@@@__crt_strtox@@YAKQEAU__crt_locale_pointers@@V?$c_string_character_source@D@0@H_N@Z 000000018005fa28 f i libucrt:atox.obj
 0001:0005ed64       ??$parse_integer@KV?$c_string_character_source@_W@__crt_strtox@@@__crt_strtox@@YAKQEAU__crt_locale_pointers@@V?$c_string_character_source@_W@0@H_N@Z 000000018005fd64 f i libucrt:atox.obj
 0001:0005f418       _wtol                      0000000180060418 f   libucrt:atox.obj
 0001:0005f444       atoi                       0000000180060444 f   libucrt:atox.obj
 0001:0005f538       puts                       0000000180060538 f   libucrt:puts.obj
 0001:0005f650       strncpy                    0000000180060650 f   libucrt:strncpy.obj
 0001:0005f7b4       isalnum                    00000001800607b4 f i libucrt:_ctype.obj
 0001:0005f834       isalpha                    0000000180060834 f i libucrt:_ctype.obj
 0001:0005f8b4       isdigit                    00000001800608b4 f i libucrt:_ctype.obj
 0001:0005f92c       islower                    000000018006092c f i libucrt:_ctype.obj
 0001:0005f9a4       isupper                    00000001800609a4 f i libucrt:_ctype.obj
 0001:0005fa1c       isxdigit                   0000000180060a1c f i libucrt:_ctype.obj
 0001:0005fbd8       _beginthreadex             0000000180060bd8 f   libucrt:thread.obj
 0001:0005fcac       _endthreadex               0000000180060cac f   libucrt:thread.obj
 0001:0005fd60       strcspn                    0000000180060d60 f   libucrt:strcspn.obj
 0001:00060124       frexp                      0000000180061124 f   libucrt:frexp.obj
 0001:0006021c       calloc                     000000018006121c f   libucrt:calloc.obj
 0001:00060224       localeconv                 0000000180061224 f   libucrt:localeconv.obj
 0001:00060258       realloc                    0000000180061258 f   libucrt:realloc.obj
 0001:00060260       rand                       0000000180061260 f   libucrt:rand.obj
 0001:000602a0       strncmp                    00000001800612a0 f   libucrt:strncmp.obj
 0001:00060320       ceil                       0000000180061320 f   libucrt:ceil.obj
 0001:000603e4       __acrt_initialize_locks    00000001800613e4 f   libucrt:locks.obj
 0001:0006042c       __acrt_lock                000000018006142c f   libucrt:locks.obj
 0001:00060448       __acrt_uninitialize_locks  0000000180061448 f   libucrt:locks.obj
 0001:00060480       __acrt_unlock              0000000180061480 f   libucrt:locks.obj
 0001:0006049c       _lock_locales              000000018006149c f   libucrt:locks.obj
 0001:000604b8       _unlock_locales            00000001800614b8 f   libucrt:locks.obj
 0001:000604c8       _calloc_base               00000001800614c8 f   libucrt:calloc_base.obj
 0001:00060540       __pctype_func              0000000180061540 f   libucrt:ctype.obj
 0001:00060570       _wcsdup                    0000000180061570 f   libucrt:wcsdup.obj
 0001:000605f4       ___lc_codepage_func        00000001800615f4 f   libucrt:initctype.obj
 0001:00060624       ___lc_locale_name_func     0000000180061624 f   libucrt:initctype.obj
 0001:00060658       ___mb_cur_max_func         0000000180061658 f   libucrt:initctype.obj
 0001:00060688       __acrt_locale_initialize_ctype 0000000180061688 f   libucrt:initctype.obj
 0001:00060d5c       _ismbblead                 0000000180061d5c f   libucrt:ismbbyte.obj
 0001:0006107c       setlocale                  000000018006207c f   libucrt:setlocale.obj
 0001:000610c8       __strncnt                  00000001800620c8 f   libucrt:strncnt.obj
 0001:000610e0       _free_base                 00000001800620e0 f   libucrt:free_base.obj
 0001:00061120       _malloc_base               0000000180062120 f   libucrt:malloc_base.obj
 0001:00061180       abort                      0000000180062180 f   libucrt:abort.obj
 0001:000611d8       _realloc_base              00000001800621d8 f   libucrt:realloc_base.obj
 0001:00061260       ?divide@__crt_strtox@@YA_KAEAUbig_integer@1@AEBU21@@Z 0000000180062260 f i libucrt:strtod.obj
 0001:00061780       pow                        0000000180062780 f   libucrt:pow.obj
 0001:00062e20       powf                       0000000180063e20 f   libucrt:powf.obj
 0001:00063ce8       wcscpy_s                   0000000180064ce8 f   libucrt:wcscpy_s.obj
 0001:00063d60       strnlen                    0000000180064d60 f   libucrt:strnlen.obj
 0001:00063eb0       wcsnlen                    0000000180064eb0 f   libucrt:strnlen.obj
 0001:000640d8       _tolower_l                 00000001800650d8 f   libucrt:tolower_toupper.obj
 0001:00064218       tolower                    0000000180065218 f   libucrt:tolower_toupper.obj
 0001:00064244       __acrt_initialize_new_handler 0000000180065244 f   libucrt:new_handler.obj
 0001:0006424c       _callnewh                  000000018006524c f   libucrt:new_handler.obj
 0001:0006427c       _query_new_handler         000000018006527c f   libucrt:new_handler.obj
 0001:000642b0       _seh_filter_dll            00000001800652b0 f   libucrt:exception_filter.obj
 0001:000642c4       _seh_filter_exe            00000001800652c4 f   libucrt:exception_filter.obj
 0001:000646bc       __acrt_initialize_thread_local_exit_callback 00000001800656bc f   libucrt:exit.obj
 0001:000646c4       _cexit                     00000001800656c4 f   libucrt:exit.obj
 0001:000646d4       _exit                      00000001800656d4 f   libucrt:exit.obj
 0001:000646e0       _is_c_termination_complete 00000001800656e0 f   libucrt:exit.obj
 0001:000648ac       __acrt_allocate_buffer_for_argv 00000001800658ac f   libucrt:argv_parsing.obj
 0001:0006490c       _configure_narrow_argv     000000018006590c f   libucrt:argv_parsing.obj
 0001:00064c84       __dcrt_uninitialize_environments_nolock 0000000180065c84 f   libucrt:environment_initialization.obj
 0001:00064cbc       _initialize_narrow_environment 0000000180065cbc f   libucrt:environment_initialization.obj
 0001:0006504c       _crt_atexit                000000018006604c f   libucrt:onexit.obj
 0001:0006505c       _execute_onexit_table      000000018006605c f   libucrt:onexit.obj
 0001:00065098       _initialize_onexit_table   0000000180066098 f   libucrt:onexit.obj
 0001:000650d8       _register_onexit_function  00000001800660d8 f   libucrt:onexit.obj
 0001:00065170       ?xhas_out@xsub_t@zmq@@MEAA_NXZ 0000000180066170 f   libzmq:xsub.obj
 0001:00065170       __acrt_uninitialize_command_line 0000000180066170 f   libucrt:argv_data.obj
 0001:00065170       ?xhas_out@stream_t@zmq@@UEAA_NXZ 0000000180066170 f   libzmq:stream.obj
 0001:00065170       ?xhas_out@dish_t@zmq@@MEAA_NXZ 0000000180066170 f   libzmq:dish.obj
 0001:00065170       ?xhas_out@router_t@zmq@@UEAA_NXZ 0000000180066170 f   libzmq:router.obj
 0001:00065170       ?xhas_out@server_t@zmq@@UEAA_NXZ 0000000180066170 f   libzmq:server.obj
 0001:00065170       ?has_out@dist_t@zmq@@QEAA_NXZ 0000000180066170 f   libzmq:dist.obj
 0001:00065170       ?is_valid@options_t@zmq@@QEBA_NH@Z 0000000180066170 f   libzmq:options.obj
 0001:0006526c       __acrt_initialize          000000018006626c f   libucrt:initialization.obj
 0001:00065280       __acrt_thread_attach       0000000180066280 f   libucrt:initialization.obj
 0001:00065294       __acrt_thread_detach       0000000180066294 f   libucrt:initialization.obj
 0001:000652a4       __acrt_uninitialize        00000001800662a4 f   libucrt:initialization.obj
 0001:000652dc       __acrt_uninitialize_critical 00000001800662dc f   libucrt:initialization.obj
 0001:000652ec       _initterm                  00000001800662ec f   libucrt:initterm.obj
 0001:00065350       _initterm_e                0000000180066350 f   libucrt:initterm.obj
 0001:00065390       terminate                  0000000180066390 f   libucrt:terminate.obj
 0001:000653b0       strcpy_s                   00000001800663b0 f   libucrt:strcpy_s.obj
 0001:00065420       strtol                     0000000180066420 f   libucrt:strtox.obj
 0001:0006544c       wcstol                     000000018006644c f   libucrt:strtox.obj
 0001:00065478       _mbtowc_l                  0000000180066478 f   libucrt:mbtowc.obj
 0001:000655f4       mbtowc                     00000001800665f4 f   libucrt:mbtowc.obj
 0001:000655fc       _wctomb_s_l                00000001800665fc f   libucrt:wctomb.obj
 0001:00065780       wctomb_s                   0000000180066780 f   libucrt:wctomb.obj
 0001:00065b0c       __acrt_freeptd             0000000180066b0c f   libucrt:per_thread_data.obj
 0001:00065b50       __acrt_getptd              0000000180066b50 f   libucrt:per_thread_data.obj
 0001:00065c14       __acrt_getptd_head         0000000180066c14 f   libucrt:per_thread_data.obj
 0001:00065cbc       __acrt_getptd_noexit       0000000180066cbc f   libucrt:per_thread_data.obj
 0001:00065d74       __acrt_initialize_ptd      0000000180066d74 f   libucrt:per_thread_data.obj
 0001:00065db0       __acrt_uninitialize_ptd    0000000180066db0 f   libucrt:per_thread_data.obj
 0001:00065dd4       __acrt_update_locale_info  0000000180066dd4 f   libucrt:locale_update.obj
 0001:00065e08       __acrt_update_multibyte_info 0000000180066e08 f   libucrt:locale_update.obj
 0001:0006680c       __acrt_fp_format           000000018006780c f   libucrt:cvt.obj
 0001:00066a94       _fputwc_nolock             0000000180067a94 f   libucrt:fputwc.obj
 0001:00066c0c       _fileno                    0000000180067c0c f   libucrt:fileno.obj
 0001:00066c34       _fputc_nolock              0000000180067c34 f   libucrt:fputc.obj
 0001:00066c4c       _get_printf_count_output   0000000180067c4c f   libucrt:printf_count_output.obj
 0001:00066c64       __acrt_stdio_begin_temporary_buffering_nolock 0000000180067c64 f   libucrt:_sftbuf.obj
 0001:00066d34       __acrt_stdio_end_temporary_buffering_nolock 0000000180067d34 f   libucrt:_sftbuf.obj
 0001:00066fd8       __acrt_copy_locale_name    0000000180067fd8 f   libucrt:wsetlocale.obj
 0001:0006705c       __acrt_set_locale_changed  000000018006805c f   libucrt:wsetlocale.obj
 0001:00067068       __acrt_uninitialize_locale 0000000180068068 f   libucrt:wsetlocale.obj
 0001:00067098       __lc_lctowcs               0000000180068098 f   libucrt:wsetlocale.obj
 0001:0006713c       __lc_wcstolc               000000018006813c f   libucrt:wsetlocale.obj
 0001:000673bc       _expandlocale              00000001800683bc f   libucrt:wsetlocale.obj
 0001:00067844       _wcscats                   0000000180068844 f   libucrt:wsetlocale.obj
 0001:000678ac       _wsetlocale                00000001800688ac f   libucrt:wsetlocale.obj
 0001:00068300       __acrt_initialize_lowio    0000000180069300 f   libucrt:ioinit.obj
 0001:0006833c       __acrt_uninitialize_lowio  000000018006933c f   libucrt:ioinit.obj
 0001:0006837c       _query_app_type            000000018006937c f   libucrt:report_runtime_error.obj
 0001:000684b4       _itow_s                    00000001800694b4 f   libucrt:xtoa.obj
 0001:000684d4       _set_error_mode            00000001800694d4 f   libucrt:set_error_mode.obj
 0001:00068514       wcscat_s                   0000000180069514 f   libucrt:wcscat_s.obj
 0001:000685a0       wcsncat_s                  00000001800695a0 f   libucrt:wcsncat_s.obj
 0001:000686b4       __acrt_GetModuleFileNameA  00000001800696b4 f   libucrt:getmodulefilenamea.obj
 0001:00068730       __acrt_show_wide_message_box 0000000180069730 f   libucrt:crtmbox.obj
 0001:00068904       setvbuf                    0000000180069904 f   libucrt:setvbuf.obj
 0001:000689e8       __acrt_get_sigabrt_handler 00000001800699e8 f   libucrt:signal.obj
 0001:00068a18       __acrt_initialize_signal_handlers 0000000180069a18 f   libucrt:signal.obj
 0001:00068a38       raise                      0000000180069a38 f   libucrt:signal.obj
 0001:00068cb8       __sys_errlist              0000000180069cb8 f   libucrt:syserr.obj
 0001:00068cc0       __sys_nerr                 0000000180069cc0 f   libucrt:syserr.obj
 0001:00068ecc       _mbstowcs_l                0000000180069ecc f   libucrt:mbstowcs.obj
 0001:00068ed4       _mbstowcs_s_l              0000000180069ed4 f   libucrt:mbstowcs.obj
 0001:00069008       mbstowcs                   000000018006a008 f   libucrt:mbstowcs.obj
 0001:00069024       mbstowcs_s                 000000018006a024 f   libucrt:mbstowcs.obj
 0001:00069044       strncpy_s                  000000018006a044 f   libucrt:strncpy_s.obj
 0001:000693d0       __acrt_AppPolicyGetProcessTerminationMethodInternal 000000018006a3d0 f   libucrt:winapi_thunks.obj
 0001:00069420       __acrt_AppPolicyGetShowDeveloperDiagnosticInternal 000000018006a420 f   libucrt:winapi_thunks.obj
 0001:00069470       __acrt_AppPolicyGetThreadInitializationTypeInternal 000000018006a470 f   libucrt:winapi_thunks.obj
 0001:000694c0       __acrt_AppPolicyGetWindowingModelInternal 000000018006a4c0 f   libucrt:winapi_thunks.obj
 0001:00069510       __acrt_EnumSystemLocalesEx 000000018006a510 f   libucrt:winapi_thunks.obj
 0001:000695a8       __acrt_FlsAlloc            000000018006a5a8 f   libucrt:winapi_thunks.obj
 0001:000695f0       __acrt_FlsFree             000000018006a5f0 f   libucrt:winapi_thunks.obj
 0001:00069638       __acrt_FlsGetValue         000000018006a638 f   libucrt:winapi_thunks.obj
 0001:00069680       __acrt_FlsSetValue         000000018006a680 f   libucrt:winapi_thunks.obj
 0001:000696d4       __acrt_GetLocaleInfoEx     000000018006a6d4 f   libucrt:winapi_thunks.obj
 0001:00069758       __acrt_GetUserDefaultLocaleName 000000018006a758 f   libucrt:winapi_thunks.obj
 0001:000697bc       __acrt_InitializeCriticalSectionEx 000000018006a7bc f   libucrt:winapi_thunks.obj
 0001:00069820       __acrt_IsValidLocaleName   000000018006a820 f   libucrt:winapi_thunks.obj
 0001:00069878       __acrt_LCIDToLocaleName    000000018006a878 f   libucrt:winapi_thunks.obj
 0001:000698e8       __acrt_LCMapStringEx       000000018006a8e8 f   libucrt:winapi_thunks.obj
 0001:000699c4       __acrt_LocaleNameToLCID    000000018006a9c4 f   libucrt:winapi_thunks.obj
 0001:00069a14       __acrt_MessageBoxW         000000018006aa14 f   libucrt:winapi_thunks.obj
 0001:00069a88       __acrt_RoInitialize        000000018006aa88 f   libucrt:winapi_thunks.obj
 0001:00069ac8       __acrt_RoUninitialize      000000018006aac8 f   libucrt:winapi_thunks.obj
 0001:00069afc       __acrt_can_show_message_box 000000018006aafc f   libucrt:winapi_thunks.obj
 0001:00069b6c       __acrt_can_use_vista_locale_apis 000000018006ab6c f   libucrt:winapi_thunks.obj
 0001:00069b9c       __acrt_eagerly_load_locale_apis 000000018006ab9c f   libucrt:winapi_thunks.obj
 0001:00069cf8       __acrt_get_parent_window   000000018006acf8 f   libucrt:winapi_thunks.obj
 0001:00069d74       __acrt_initialize_winapi_thunks 000000018006ad74 f   libucrt:winapi_thunks.obj
 0001:00069dbc       __acrt_is_interactive      000000018006adbc f   libucrt:winapi_thunks.obj
 0001:00069e84       __acrt_uninitialize_winapi_thunks 000000018006ae84 f   libucrt:winapi_thunks.obj
 0001:00069ec8       _fcloseall                 000000018006aec8 f   libucrt:closeall.obj
 0001:00069f7c       __acrt_stdio_free_buffer_nolock 000000018006af7c f   libucrt:_freebuf.obj
 0001:0006a048       _commit                    000000018006b048 f   libucrt:commit.obj
 0001:0006a684       _write                     000000018006b684 f   libucrt:write.obj
 0001:0006a770       _write_nolock              000000018006b770 f   libucrt:write.obj
 0001:0006aa50       iswctype                   000000018006ba50 f   libucrt:iswctype.obj
 0001:0006aac0       _isctype_l                 000000018006bac0 f   libucrt:isctype.obj
 0001:0006abd4       _fwrite_nolock             000000018006bbd4 f   libucrt:fwrite.obj
 0001:0006ad7c       __acrt_get_begin_thread_init_policy 000000018006bd7c f   libucrt:win_policies.obj
 0001:0006add0       __acrt_get_developer_information_policy 000000018006bdd0 f   libucrt:win_policies.obj
 0001:0006ae24       __acrt_get_process_end_policy 000000018006be24 f   libucrt:win_policies.obj
 0001:0006ae60       __acrt_get_windowing_model_policy 000000018006be60 f   libucrt:win_policies.obj
 0001:0006aecc       _dsign                     000000018006becc f   libucrt:nan.obj
 0001:0006aee4       _errcode                   000000018006bee4 f   libucrt:fpexcept.obj
 0001:0006af28       _except1                   000000018006bf28 f   libucrt:fpexcept.obj
 0001:0006b01c       _handle_exc                000000018006c01c f   libucrt:fpexcept.obj
 0001:0006b284       _raise_exc                 000000018006c284 f   libucrt:fpexcept.obj
 0001:0006b2ac       _raise_exc_ex              000000018006c2ac f   libucrt:fpexcept.obj
 0001:0006b5bc       _raise_excf                000000018006c5bc f   libucrt:fpexcept.obj
 0001:0006b5e8       _set_errno_from_matherr    000000018006c5e8 f   libucrt:fpexcept.obj
 0001:0006b618       _umatherr                  000000018006c618 f   libucrt:fpexcept.obj
 0001:0006b6ec       _decomp                    000000018006c6ec f   libucrt:util.obj
 0001:0006b824       _sptype                    000000018006c824 f   libucrt:util.obj
 0001:0006b898       _clrfp                     000000018006c898 f   libucrt:fpctrl.obj
 0001:0006b8b8       _ctrlfp                    000000018006c8b8 f   libucrt:fpctrl.obj
 0001:0006b934       _set_statfp                000000018006c934 f   libucrt:fpctrl.obj
 0001:0006b954       _statfp                    000000018006c954 f   libucrt:fpctrl.obj
 0001:0006ba8c       _handle_error              000000018006ca8c f   libucrt:libm_error.obj
 0001:0006bbb4       _handle_errorf             000000018006cbb4 f   libucrt:libm_error.obj
 0001:0006bce8       _handle_nan                000000018006cce8 f   libucrt:libm_error.obj
 0001:0006bd04       _handle_nanf               000000018006cd04 f   libucrt:libm_error.obj
 0001:0006bd14       _query_new_mode            000000018006cd14 f   libucrt:new_mode.obj
 0001:0006bd1c       __acrt_initialize_heap     000000018006cd1c f   libucrt:heap_handle.obj
 0001:0006bd38       __acrt_uninitialize_heap   000000018006cd38 f   libucrt:heap_handle.obj
 0001:0006bec0       __acrt_GetLocaleInfoA      000000018006cec0 f   libucrt:getlocaleinfoa.obj
 0001:0006c088       __acrt_GetStringTypeA      000000018006d088 f   libucrt:getstringtypea.obj
 0001:0006c530       __acrt_LCMapStringA        000000018006d530 f   libucrt:lcmapstringa.obj
 0001:0006c930       _wcstombs_l                000000018006d930 f   libucrt:wcstombs.obj
 0001:0006c938       _wcstombs_s_l              000000018006d938 f   libucrt:wcstombs.obj
 0001:0006ca30       __acrt_initialize_fma3     000000018006da30 f   libucrt:fma3_available.obj
 0001:0006caa0       _pow_special               000000018006daa0 f   libucrt:pow_special.obj
 0001:0006cbc4       _powf_special              000000018006dbc4 f   libucrt:pow_special.obj
 0001:0006cd50       __acrt_MultiByteToWideChar 000000018006dd50 f   libucrt:multibytetowidechar.obj
 0001:0006cdac       __acrt_WideCharToMultiByte 000000018006ddac f   libucrt:widechartomultibyte.obj
 0001:0006ce44       _wcsicmp                   000000018006de44 f   libucrt:wcsicmp.obj
 0001:0006cedc       _wcsicmp_l                 000000018006dedc f   libucrt:wcsicmp.obj
 0001:0006cfdc       __acrt_initialize_timeset  000000018006dfdc f   libucrt:timeset.obj
 0001:0006d020       _isleadbyte_l              000000018006e020 f i libucrt:_wctype.obj
 0001:0006d5c8       __acrt_expand_narrow_argv_wildcards 000000018006e5c8 f   libucrt:argv_wildcards.obj
 0001:0006dcfc       __acrt_initialize_multibyte 000000018006ecfc f   libucrt:mbctype.obj
 0001:0006dd5c       __acrt_update_thread_multibyte_data 000000018006ed5c f   libucrt:mbctype.obj
 0001:0006dd78       _setmbcp_nolock            000000018006ed78 f   libucrt:mbctype.obj
 0001:0006e030       __acrt_initialize_command_line 000000018006f030 f   libucrt:argv_data.obj
 0001:0006e058       __dcrt_get_narrow_environment_from_os 000000018006f058 f   libucrt:get_environment_from_os.obj
 0001:0006e15c       _recalloc                  000000018006f15c f   libucrt:recalloc.obj
 0001:0006e164       _recalloc_base             000000018006f164 f   libucrt:recalloc.obj
 0001:0006e1fc       __acrt_execute_initializers 000000018006f1fc f   libucrt:shared_initialization.obj
 0001:0006e27c       __acrt_execute_uninitializers 000000018006f27c f   libucrt:shared_initialization.obj
 0001:0006e2b8       __acrt_has_user_matherr    000000018006f2b8 f   libucrt:matherr.obj
 0001:0006e2d8       __acrt_initialize_user_matherr 000000018006f2d8 f   libucrt:matherr.obj
 0001:0006e2e0       __acrt_invoke_user_matherr 000000018006f2e0 f   libucrt:matherr.obj
 0001:0006e310       ?__mbrtowc_utf8@__crt_mbstring@@YA_KPEA_WPEBD_KPEAU_Mbstatet@@@Z 000000018006f310 f   libucrt:mbrtowc.obj
 0001:0006e34c       ?__mbsrtowcs_utf8@__crt_mbstring@@YA_KPEA_WPEAPEBD_KPEAU_Mbstatet@@@Z 000000018006f34c f   libucrt:mbrtowc.obj
 0001:0006e4c4       __acrt_add_locale_ref      000000018006f4c4 f   libucrt:locale_refcounting.obj
 0001:0006e550       __acrt_free_locale         000000018006f550 f   libucrt:locale_refcounting.obj
 0001:0006e6c8       __acrt_locale_add_lc_time_reference 000000018006f6c8 f   libucrt:locale_refcounting.obj
 0001:0006e6f0       __acrt_locale_free_lc_time_if_unreferenced 000000018006f6f0 f   libucrt:locale_refcounting.obj
 0001:0006e728       __acrt_locale_release_lc_time_reference 000000018006f728 f   libucrt:locale_refcounting.obj
 0001:0006e750       __acrt_release_locale_ref  000000018006f750 f   libucrt:locale_refcounting.obj
 0001:0006e7f8       __acrt_update_thread_locale_data 000000018006f7f8 f   libucrt:locale_refcounting.obj
 0001:0006e868       _updatetlocinfoEx_nolock   000000018006f868 f   libucrt:locale_refcounting.obj
 0001:0006e8d0       __acrt_fp_strflt_to_string 000000018006f8d0 f   libucrt:_fptostr.obj
 0001:0006e9b4       __acrt_fltout              000000018006f9b4 f   libucrt:cfout.obj
 0001:0006fe50       __acrt_stdio_flush_and_write_narrow_nolock 0000000180070e50 f   libucrt:_flsbuf.obj
 0001:0006ff38       __acrt_stdio_flush_and_write_wide_nolock 0000000180070f38 f   libucrt:_flsbuf.obj
 0001:00070024       _isatty                    0000000180071024 f   libucrt:isatty.obj
 0001:00070084       __acrt_locale_free_monetary 0000000180071084 f   libucrt:initmon.obj
 0001:00070190       __acrt_locale_initialize_monetary 0000000180071190 f   libucrt:initmon.obj
 0001:000706c4       __acrt_locale_free_numeric 00000001800716c4 f   libucrt:initnum.obj
 0001:00070730       __acrt_locale_initialize_numeric 0000000180071730 f   libucrt:initnum.obj
 0001:00070dac       __acrt_locale_free_time    0000000180071dac f   libucrt:inittime.obj
 0001:00070eb4       __acrt_locale_initialize_time 0000000180071eb4 f   libucrt:inittime.obj
 0001:00070f50       wcsncpy_s                  0000000180071f50 f   libucrt:wcsncpy_s.obj
 0001:00071044       wcscspn                    0000000180072044 f   libucrt:wcscspn.obj
 0001:00071084       wcsncmp                    0000000180072084 f   libucrt:wcsncmp.obj
 0001:000710b0       wcspbrk                    00000001800720b0 f   libucrt:wcspbrk.obj
 0001:00071970       __acrt_get_qualified_locale 0000000180072970 f   libucrt:get_qualified_locale.obj
 0001:000723b4       __acrt_get_qualified_locale_downlevel 00000001800733b4 f   libucrt:getqloc_downlevel.obj
 0001:00072634       __acrt_lowio_create_handle_array 0000000180073634 f   libucrt:osfinfo.obj
 0001:000726cc       __acrt_lowio_destroy_handle_array 00000001800736cc f   libucrt:osfinfo.obj
 0001:0007271c       __acrt_lowio_ensure_fh_exists 000000018007371c f   libucrt:osfinfo.obj
 0001:000727c4       __acrt_lowio_lock_fh       00000001800737c4 f   libucrt:osfinfo.obj
 0001:000727e8       __acrt_lowio_unlock_fh     00000001800737e8 f   libucrt:osfinfo.obj
 0001:0007280c       _free_osfhnd               000000018007380c f   libucrt:osfinfo.obj
 0001:000728c8       _get_osfhandle             00000001800738c8 f   libucrt:osfinfo.obj
 0001:00072a28       __acrt_DownlevelLCIDToLocaleName 0000000180073a28 f   libucrt:lcidtoname_downlevel.obj
 0001:00072b10       __acrt_DownlevelLocaleNameToLCID 0000000180073b10 f   libucrt:lcidtoname_downlevel.obj
 0001:00072b44       _fclose_nolock             0000000180073b44 f   libucrt:fclose.obj
 0001:00072bc8       fclose                     0000000180073bc8 f   libucrt:fclose.obj
 0001:00072db8       _lseeki64                  0000000180073db8 f   libucrt:lseek.obj
 0001:00072dc0       _lseeki64_nolock           0000000180073dc0 f   libucrt:lseek.obj
 0001:00072dc8       _putwch_nolock             0000000180073dc8 f   libucrt:putwch.obj
 0001:00072e04       __acrt_GetStringTypeW      0000000180073e04 f   libucrt:getstringtypew.obj
 0001:00072e20       _get_fpsr                  0000000180073e20 f   libucrt:fpsr.obj
 0001:00072e30       _set_fpsr                  0000000180073e30 f   libucrt:fpsr.obj
 0001:00072e3a       _fclrf                     0000000180073e3a f   libucrt:fpsr.obj
 0001:00072e4e       _frnd                      0000000180073e4e f   libucrt:fpsr.obj
 0001:00072e70       ?__wcsrtombs_utf8@__crt_mbstring@@YA_KPEADPEAPEB_W_KPEAU_Mbstatet@@@Z 0000000180073e70 f   libucrt:wcrtomb.obj
 0001:00072f8c       __acrt_fenv_get_control    0000000180073f8c f   libucrt:_fenvutils.obj
 0001:0007308c       __acrt_fenv_get_status     000000018007408c f   libucrt:_fenvutils.obj
 0001:000730e4       __acrt_fenv_set_control    00000001800740e4 f   libucrt:_fenvutils.obj
 0001:0007322c       __acrt_fenv_set_status     000000018007422c f   libucrt:_fenvutils.obj
 0001:000732b0       _towlower_l                00000001800742b0 f   libucrt:towlower.obj
 0001:00073380       qsort                      0000000180074380 f   libucrt:qsort.obj
 0001:000737d0       strpbrk                    00000001800747d0 f   libucrt:strpbrk.obj
 0001:00073bb0       ??$__acrt_convert_wcs_mbs@D_W$$A6A_KPEA_WPEBD_KPEAU__crt_locale_pointers@@@ZU__crt_win32_buffer_internal_dynamic_resizing@@@@YAHQEBDAEAV?$__crt_win32_buffer@_WU__crt_win32_buffer_internal_dynamic_resizing@@@@A6A_KPEA_WPEBD_KPEAU__crt_locale_pointers@@@Z5@Z 0000000180074bb0 f i libucrt:findfirstfileexa.obj
 0001:00073cb8       __acrt_FindFirstFileExA    0000000180074cb8 f   libucrt:findfirstfileexa.obj
 0001:00073d5c       ??$__acrt_convert_wcs_mbs@_WD$$A6A_KPEADPEB_W_KPEAU__crt_locale_pointers@@@ZU__crt_win32_buffer_no_resizing@@@@YAHQEB_WAEAV?$__crt_win32_buffer@DU__crt_win32_buffer_no_resizing@@@@A6A_KPEADPEB_W_KPEAU__crt_locale_pointers@@@Z5@Z 0000000180074d5c f i libucrt:findnextfilea.obj
 0001:00073e28       __acrt_FindNextFileA       0000000180074e28 f   libucrt:findnextfilea.obj
 0001:00073f5c       _mbsdec                    0000000180074f5c f   libucrt:mbsdec.obj
 0001:00073f64       _mbsdec_l                  0000000180074f64 f   libucrt:mbsdec.obj
 0001:00074010       _msize                     0000000180075010 f   libucrt:msize.obj
 0001:00074018       _msize_base                0000000180075018 f   libucrt:msize.obj
 0001:00074054       ?__mbrtoc32_utf8@__crt_mbstring@@YA_KPEA_UPEBD_KPEAU_Mbstatet@@@Z 0000000180075054 f   libucrt:mbrtoc32.obj
 0001:00074230       fegetenv                   0000000180075230 f   libucrt:fegetenv.obj
 0001:00074250       fesetenv                   0000000180075250 f   libucrt:fesetenv.obj
 0001:000742a0       feholdexcept               00000001800752a0 f   libucrt:feholdexcept.obj
 0001:000742f0       log10                      00000001800752f0 f   libucrt:log10.obj
 0001:0007489c       __acrt_stdio_allocate_buffer_nolock 000000018007589c f   libucrt:_getbuf.obj
 0001:00074904       _wcsnicmp                  0000000180075904 f   libucrt:wcsnicmp.obj
 0001:000749b0       _wcsnicmp_l                00000001800759b0 f   libucrt:wcsnicmp.obj
 0001:00074ad8       wcscmp                     0000000180075ad8 f   libucrt:wcscmp.obj
 0001:00074b84       _close                     0000000180075b84 f   libucrt:close.obj
 0001:00074c28       _close_nolock              0000000180075c28 f   libucrt:close.obj
 0001:00074ce4       ?__acrt_stdio_free_stream@@YAXV__crt_stdio_stream@@@Z 0000000180075ce4 f   libucrt:stream.obj
 0001:00074d00       __dcrt_lowio_ensure_console_output_initialized 0000000180075d00 f   libucrt:initcon.obj
 0001:00074d54       __dcrt_terminate_console_output 0000000180075d54 f   libucrt:initcon.obj
 0001:00074d70       __dcrt_write_console       0000000180075d70 f   libucrt:initcon.obj
 0001:00074e30       ?__c16rtomb_utf8@__crt_mbstring@@YA_KPEAD_SPEAU_Mbstatet@@@Z 0000000180075e30 f   libucrt:c16rtomb.obj
 0001:00074ed8       __acrt_LCMapStringW        0000000180075ed8 f   libucrt:lcmapstringw.obj
 0001:00074f60       _clearfp                   0000000180075f60 f   libucrt:ieee.obj
 0001:00074fd0       _log10_special             0000000180075fd0 f   libucrt:log_special.obj
 0001:00075088       ?__c32rtomb_utf8@__crt_mbstring@@YA_KPEAD_UPEAU_Mbstatet@@@Z 0000000180076088 f   libucrt:c32rtomb.obj
 0001:00075140       c32rtomb                   0000000180076140 f   libucrt:c32rtomb.obj
 0001:00075146       IsProcessorFeaturePresent  0000000180076146 f   kernel32:KERNEL32.dll
 0001:0007514c       RtlUnwindEx                000000018007614c f   kernel32:KERNEL32.dll
 0001:00075154       ?DloadAcquireSectionWriteAccess@@YAXXZ 0000000180076154 f i DelayImp:delayhlp.obj
 0001:00075210       ?DloadGetSRWLockFunctionPointers@@YAEXZ 0000000180076210 f i DelayImp:delayhlp.obj
 0001:000752ac       ?DloadMakePermanentImageCommit@@YAXPEAX_K@Z 00000001800762ac f i DelayImp:delayhlp.obj
 0001:00075344       ?DloadObtainSection@@YAPEAXPEAK0@Z 0000000180076344 f i DelayImp:delayhlp.obj
 0001:000753dc       ?DloadProtectSection@@YAXKPEAK@Z 00000001800763dc f i DelayImp:delayhlp.obj
 0001:0007546c       ?DloadReleaseSectionWriteAccess@@YAXXZ 000000018007646c f i DelayImp:delayhlp.obj
 0001:00075510       __delayLoadHelper2         0000000180076510 f   DelayImp:delayhlp.obj
 0001:00075810       _FindPESection             0000000180076810 f   LIBCMT:pesect.obj
 0001:00075860       _IsNonwritableInCurrentImage 0000000180076860 f   LIBCMT:pesect.obj
 0001:000758b0       _ValidateImageBase         00000001800768b0 f   LIBCMT:pesect.obj
 0001:000758e0       wcschr                     00000001800768e0 f   libvcruntime:wcschr.obj
 0001:00075990       _guard_dispatch_icall_nop  0000000180076990 f   LIBCMT:_guard_dispatch_.obj
 0001:00078bd0       ??__F_Static@?1???$_Immortalize@V_Iostream_error_category@std@@@std@@YAAEAV_Iostream_error_category@0@XZ@YAXXZ 0000000180079bd0 f i libzmq:tcp_address.obj
 0002:00000000       __imp_InitializeSecurityDescriptor 000000018007a000     advapi32:ADVAPI32.dll
 0002:00000008       __imp_SetSecurityDescriptorDacl 000000018007a008     advapi32:ADVAPI32.dll
 0002:00000010       \177ADVAPI32_NULL_THUNK_DATA 000000018007a010     advapi32:ADVAPI32.dll
 0002:00000018       __imp_if_indextoname       000000018007a018     iphlpapi:IPHLPAPI.DLL
 0002:00000020       __imp_GetAdaptersAddresses 000000018007a020     iphlpapi:IPHLPAPI.DLL
 0002:00000028       __imp_if_nametoindex       000000018007a028     iphlpapi:IPHLPAPI.DLL
 0002:00000030       \177IPHLPAPI_NULL_THUNK_DATA 000000018007a030     iphlpapi:IPHLPAPI.DLL
 0002:00000038       __imp_GetSystemInfo        000000018007a038     kernel32:KERNEL32.dll
 0002:00000040       __imp_CreateFileW          000000018007a040     kernel32:KERNEL32.dll
 0002:00000048       __imp_HeapSize             000000018007a048     kernel32:KERNEL32.dll
 0002:00000050       __imp_SetFilePointerEx     000000018007a050     kernel32:KERNEL32.dll
 0002:00000058       __imp_SetStdHandle         000000018007a058     kernel32:KERNEL32.dll
 0002:00000060       __imp_FreeEnvironmentStringsW 000000018007a060     kernel32:KERNEL32.dll
 0002:00000068       __imp_GetEnvironmentStringsW 000000018007a068     kernel32:KERNEL32.dll
 0002:00000070       __imp_GetCommandLineW      000000018007a070     kernel32:KERNEL32.dll
 0002:00000078       __imp_GetCommandLineA      000000018007a078     kernel32:KERNEL32.dll
 0002:00000080       __imp_GetOEMCP             000000018007a080     kernel32:KERNEL32.dll
 0002:00000088       __imp_GetACP               000000018007a088     kernel32:KERNEL32.dll
 0002:00000090       __imp_VirtualProtect       000000018007a090     kernel32:KERNEL32.dll
 0002:00000098       __imp_FindNextFileW        000000018007a098     kernel32:KERNEL32.dll
 0002:000000a0       __imp_FindFirstFileExW     000000018007a0a0     kernel32:KERNEL32.dll
 0002:000000a8       __imp_FindClose            000000018007a0a8     kernel32:KERNEL32.dll
 0002:000000b0       __imp_GetProcessHeap       000000018007a0b0     kernel32:KERNEL32.dll
 0002:000000b8       __imp_GetConsoleMode       000000018007a0b8     kernel32:KERNEL32.dll
 0002:000000c0       __imp_GetConsoleCP         000000018007a0c0     kernel32:KERNEL32.dll
 0002:000000c8       __imp_FlushFileBuffers     000000018007a0c8     kernel32:KERNEL32.dll
 0002:000000d0       __imp_EnumSystemLocalesW   000000018007a0d0     kernel32:KERNEL32.dll
 0002:000000d8       __imp_GetUserDefaultLCID   000000018007a0d8     kernel32:KERNEL32.dll
 0002:000000e0       __imp_IsValidLocale        000000018007a0e0     kernel32:KERNEL32.dll
 0002:000000e8       __imp_OutputDebugStringW   000000018007a0e8     kernel32:KERNEL32.dll
 0002:000000f0       __imp_WriteFile            000000018007a0f0     kernel32:KERNEL32.dll
 0002:000000f8       __imp_VirtualQuery         000000018007a0f8     kernel32:KERNEL32.dll
 0002:00000100       __imp_IsValidCodePage      000000018007a100     kernel32:KERNEL32.dll
 0002:00000108       __imp_GetModuleHandleA     000000018007a108     kernel32:KERNEL32.dll
 0002:00000110       __imp_Sleep                000000018007a110     kernel32:KERNEL32.dll
 0002:00000118       __imp_RaiseException       000000018007a118     kernel32:KERNEL32.dll
 0002:00000120       __imp_GetLastError         000000018007a120     kernel32:KERNEL32.dll
 0002:00000128       __imp_FormatMessageA       000000018007a128     kernel32:KERNEL32.dll
 0002:00000130       __imp_InitializeCriticalSection 000000018007a130     kernel32:KERNEL32.dll
 0002:00000138       __imp_EnterCriticalSection 000000018007a138     kernel32:KERNEL32.dll
 0002:00000140       __imp_LeaveCriticalSection 000000018007a140     kernel32:KERNEL32.dll
 0002:00000148       __imp_DeleteCriticalSection 000000018007a148     kernel32:KERNEL32.dll
 0002:00000150       __imp_QueryPerformanceCounter 000000018007a150     kernel32:KERNEL32.dll
 0002:00000158       __imp_GetTickCount         000000018007a158     kernel32:KERNEL32.dll
 0002:00000160       __imp_FreeLibrary          000000018007a160     kernel32:KERNEL32.dll
 0002:00000168       __imp_GetProcAddress       000000018007a168     kernel32:KERNEL32.dll
 0002:00000170       __imp_LoadLibraryA         000000018007a170     kernel32:KERNEL32.dll
 0002:00000178       __imp_CloseHandle          000000018007a178     kernel32:KERNEL32.dll
 0002:00000180       __imp_WaitForSingleObject  000000018007a180     kernel32:KERNEL32.dll
 0002:00000188       __imp_WideCharToMultiByte  000000018007a188     kernel32:KERNEL32.dll
 0002:00000190       __imp_TryEnterCriticalSection 000000018007a190     kernel32:KERNEL32.dll
 0002:00000198       __imp_SetHandleInformation 000000018007a198     kernel32:KERNEL32.dll
 0002:000001a0       __imp_InitializeConditionVariable 000000018007a1a0     kernel32:KERNEL32.dll
 0002:000001a8       __imp_WakeAllConditionVariable 000000018007a1a8     kernel32:KERNEL32.dll
 0002:000001b0       __imp_SleepConditionVariableCS 000000018007a1b0     kernel32:KERNEL32.dll
 0002:000001b8       __imp_GetCurrentProcessId  000000018007a1b8     kernel32:KERNEL32.dll
 0002:000001c0       __imp_MultiByteToWideChar  000000018007a1c0     kernel32:KERNEL32.dll
 0002:000001c8       __imp_EncodePointer        000000018007a1c8     kernel32:KERNEL32.dll
 0002:000001d0       __imp_DecodePointer        000000018007a1d0     kernel32:KERNEL32.dll
 0002:000001d8       __imp_SetLastError         000000018007a1d8     kernel32:KERNEL32.dll
 0002:000001e0       __imp_InitializeCriticalSectionAndSpinCount 000000018007a1e0     kernel32:KERNEL32.dll
 0002:000001e8       __imp_CreateEventW         000000018007a1e8     kernel32:KERNEL32.dll
 0002:000001f0       __imp_TlsAlloc             000000018007a1f0     kernel32:KERNEL32.dll
 0002:000001f8       __imp_TlsGetValue          000000018007a1f8     kernel32:KERNEL32.dll
 0002:00000200       __imp_TlsSetValue          000000018007a200     kernel32:KERNEL32.dll
 0002:00000208       __imp_TlsFree              000000018007a208     kernel32:KERNEL32.dll
 0002:00000210       __imp_GetSystemTimeAsFileTime 000000018007a210     kernel32:KERNEL32.dll
 0002:00000218       __imp_GetModuleHandleW     000000018007a218     kernel32:KERNEL32.dll
 0002:00000220       __imp_LCMapStringW         000000018007a220     kernel32:KERNEL32.dll
 0002:00000228       __imp_GetLocaleInfoW       000000018007a228     kernel32:KERNEL32.dll
 0002:00000230       __imp_GetStringTypeW       000000018007a230     kernel32:KERNEL32.dll
 0002:00000238       __imp_GetCPInfo            000000018007a238     kernel32:KERNEL32.dll
 0002:00000240       __imp_RtlCaptureContext    000000018007a240     kernel32:KERNEL32.dll
 0002:00000248       __imp_RtlLookupFunctionEntry 000000018007a248     kernel32:KERNEL32.dll
 0002:00000250       __imp_RtlVirtualUnwind     000000018007a250     kernel32:KERNEL32.dll
 0002:00000258       __imp_UnhandledExceptionFilter 000000018007a258     kernel32:KERNEL32.dll
 0002:00000260       __imp_SetUnhandledExceptionFilter 000000018007a260     kernel32:KERNEL32.dll
 0002:00000268       __imp_GetCurrentProcess    000000018007a268     kernel32:KERNEL32.dll
 0002:00000270       __imp_TerminateProcess     000000018007a270     kernel32:KERNEL32.dll
 0002:00000278       __imp_IsProcessorFeaturePresent 000000018007a278     kernel32:KERNEL32.dll
 0002:00000280       __imp_SetEvent             000000018007a280     kernel32:KERNEL32.dll
 0002:00000288       __imp_ResetEvent           000000018007a288     kernel32:KERNEL32.dll
 0002:00000290       __imp_WaitForSingleObjectEx 000000018007a290     kernel32:KERNEL32.dll
 0002:00000298       __imp_IsDebuggerPresent    000000018007a298     kernel32:KERNEL32.dll
 0002:000002a0       __imp_GetStartupInfoW      000000018007a2a0     kernel32:KERNEL32.dll
 0002:000002a8       __imp_GetCurrentThreadId   000000018007a2a8     kernel32:KERNEL32.dll
 0002:000002b0       __imp_InitializeSListHead  000000018007a2b0     kernel32:KERNEL32.dll
 0002:000002b8       __imp_RtlPcToFileHeader    000000018007a2b8     kernel32:KERNEL32.dll
 0002:000002c0       __imp_RtlUnwindEx          000000018007a2c0     kernel32:KERNEL32.dll
 0002:000002c8       __imp_LoadLibraryExW       000000018007a2c8     kernel32:KERNEL32.dll
 0002:000002d0       __imp_InterlockedFlushSList 000000018007a2d0     kernel32:KERNEL32.dll
 0002:000002d8       __imp_GetStdHandle         000000018007a2d8     kernel32:KERNEL32.dll
 0002:000002e0       __imp_GetFileType          000000018007a2e0     kernel32:KERNEL32.dll
 0002:000002e8       __imp_GetModuleFileNameW   000000018007a2e8     kernel32:KERNEL32.dll
 0002:000002f0       __imp_GetModuleHandleExW   000000018007a2f0     kernel32:KERNEL32.dll
 0002:000002f8       __imp_WriteConsoleW        000000018007a2f8     kernel32:KERNEL32.dll
 0002:00000300       __imp_CreateThread         000000018007a300     kernel32:KERNEL32.dll
 0002:00000308       __imp_ExitThread           000000018007a308     kernel32:KERNEL32.dll
 0002:00000310       __imp_FreeLibraryAndExitThread 000000018007a310     kernel32:KERNEL32.dll
 0002:00000318       __imp_HeapAlloc            000000018007a318     kernel32:KERNEL32.dll
 0002:00000320       __imp_HeapFree             000000018007a320     kernel32:KERNEL32.dll
 0002:00000328       __imp_HeapReAlloc          000000018007a328     kernel32:KERNEL32.dll
 0002:00000330       __imp_ExitProcess          000000018007a330     kernel32:KERNEL32.dll
 0002:00000338       __imp_LoadLibraryExA       000000018007a338     kernel32:KERNEL32.dll
 0002:00000340       \177KERNEL32_NULL_THUNK_DATA 000000018007a340     kernel32:KERNEL32.dll
 0002:00000348       __imp_sendto               000000018007a348     ws2_32:WS2_32.dll
 0002:00000350       __imp_recvfrom             000000018007a350     ws2_32:WS2_32.dll
 0002:00000358       __imp_inet_ntoa            000000018007a358     ws2_32:WS2_32.dll
 0002:00000360       __imp_WSAIoctl             000000018007a360     ws2_32:WS2_32.dll
 0002:00000368       __imp_socket               000000018007a368     ws2_32:WS2_32.dll
 0002:00000370       __imp_getpeername          000000018007a370     ws2_32:WS2_32.dll
 0002:00000378       __imp_ioctlsocket          000000018007a378     ws2_32:WS2_32.dll
 0002:00000380       __imp_inet_addr            000000018007a380     ws2_32:WS2_32.dll
 0002:00000388       __imp_setsockopt           000000018007a388     ws2_32:WS2_32.dll
 0002:00000390       __imp_send                 000000018007a390     ws2_32:WS2_32.dll
 0002:00000398       __imp_recv                 000000018007a398     ws2_32:WS2_32.dll
 0002:000003a0       __imp_listen               000000018007a3a0     ws2_32:WS2_32.dll
 0002:000003a8       __imp_connect              000000018007a3a8     ws2_32:WS2_32.dll
 0002:000003b0       __imp_closesocket          000000018007a3b0     ws2_32:WS2_32.dll
 0002:000003b8       __imp_bind                 000000018007a3b8     ws2_32:WS2_32.dll
 0002:000003c0       __imp_accept               000000018007a3c0     ws2_32:WS2_32.dll
 0002:000003c8       __imp_WSAWaitForMultipleEvents 000000018007a3c8     ws2_32:WS2_32.dll
 0002:000003d0       __imp_WSAEventSelect       000000018007a3d0     ws2_32:WS2_32.dll
 0002:000003d8       __imp_WSACreateEvent       000000018007a3d8     ws2_32:WS2_32.dll
 0002:000003e0       __imp_WSACloseEvent        000000018007a3e0     ws2_32:WS2_32.dll
 0002:000003e8       __imp_getsockopt           000000018007a3e8     ws2_32:WS2_32.dll
 0002:000003f0       __imp_getsockname          000000018007a3f0     ws2_32:WS2_32.dll
 0002:000003f8       __imp_getnameinfo          000000018007a3f8     ws2_32:WS2_32.dll
 0002:00000400       __imp_freeaddrinfo         000000018007a400     ws2_32:WS2_32.dll
 0002:00000408       __imp_getaddrinfo          000000018007a408     ws2_32:WS2_32.dll
 0002:00000410       __imp_ntohs                000000018007a410     ws2_32:WS2_32.dll
 0002:00000418       __imp_htons                000000018007a418     ws2_32:WS2_32.dll
 0002:00000420       __imp_htonl                000000018007a420     ws2_32:WS2_32.dll
 0002:00000428       __imp_select               000000018007a428     ws2_32:WS2_32.dll
 0002:00000430       __imp___WSAFDIsSet         000000018007a430     ws2_32:WS2_32.dll
 0002:00000438       __imp_WSAGetLastError      000000018007a438     ws2_32:WS2_32.dll
 0002:00000440       __imp_WSACleanup           000000018007a440     ws2_32:WS2_32.dll
 0002:00000448       __imp_WSAStartup           000000018007a448     ws2_32:WS2_32.dll
 0002:00000450       \177WS2_32_NULL_THUNK_DATA 000000018007a450     ws2_32:WS2_32.dll
 0002:00000458       __guard_check_icall_fptr   000000018007a458     LIBCMT:guard_support.obj
 0002:00000460       __guard_dispatch_icall_fptr 000000018007a460     LIBCMT:guard_support.obj
 0002:00000468       __xc_a                     000000018007a468     LIBCMT:initializers.obj
 0002:000004f8       _register_zmq_             000000018007a4f8     binding.obj
 0002:00000500       __xc_z                     000000018007a500     LIBCMT:initializers.obj
 0002:00000508       __xi_a                     000000018007a508     LIBCMT:initializers.obj
 0002:00000520       __acrt_stdio_initializer   000000018007a520     libucrt:stdio_initializer.obj
 0002:00000528       __acrt_tran_fma3_initializer 000000018007a528     libucrt:fma3_initializer.obj
 0002:00000530       __acrt_timeset_initializer 000000018007a530     libucrt:timeset_initializer.obj
 0002:00000538       __acrt_multibyte_initializer 000000018007a538     libucrt:multibyte_initializer.obj
 0002:00000540       __xi_z                     000000018007a540     LIBCMT:initializers.obj
 0002:00000548       __xl_a                     000000018007a548     LIBCMT:tlssup.obj
 0002:00000550       __xl_z                     000000018007a550     LIBCMT:tlssup.obj
 0002:00000558       __xp_a                     000000018007a558     LIBCMT:initializers.obj
 0002:00000560       __acrt_locale_terminator   000000018007a560     libucrt:locale_initializer.obj
 0002:00000568       __dcrt_console_output_terminator 000000018007a568     libucrt:console_output_initializer.obj
 0002:00000570       __acrt_stdio_terminator    000000018007a570     libucrt:stdio_initializer.obj
 0002:00000578       __xp_z                     000000018007a578     LIBCMT:initializers.obj
 0002:00000580       __xt_a                     000000018007a580     LIBCMT:initializers.obj
 0002:00000588       __xt_z                     000000018007a588     LIBCMT:initializers.obj
 0002:00000590       __sz_node_exe              000000018007a590     node:node.exe
 0002:000005f0       ??_C@_0BA@JFNIOLAK@string?5too?5long?$AA@ 000000018007a5f0     libzmq:zmq.obj
 0002:00000600       ??_C@_0BI@CFPLBAOH@invalid?5string?5position?$AA@ 000000018007a600     libzmq:zmq.obj
 0002:00000618       ??_C@_0BI@IEHEFMBI@?4?4?2?4?4?2?4?4?2?4?4?2src?2zmq?4cpp?$AA@ 000000018007a618     libzmq:zmq.obj
 0002:00000630       ??_C@_07HFKBMJGN@rc?5?$DN?$DN?50?$AA@ 000000018007a630     libzmq:zmq.obj
 0002:00000638       ??_C@_0BO@DEGLPKDD@Assertion?5failed?3?5?$CFs?5?$CI?$CFs?3?$CFd?$CJ?6?$AA@ 000000018007a638     libzmq:zmq.obj
 0002:00000660       ??_C@_0ED@KEPBCGIK@LOBYTE?5?$CIwsa_data?4wVersion?$CJ?5?$DN?$DN?52?5@ 000000018007a660     libzmq:zmq.obj
 0002:000006a8       ??_C@_0CE@EBAADHDC@FATAL?5ERROR?3?5OUT?5OF?5MEMORY?5?$CI?$CFs?3?$CF@ 000000018007a6a8     libzmq:zmq.obj
 0002:000006d0       ??_C@_0BL@GFDHKPDM@FATAL?5ERROR?3?5OUT?5OF?5MEMORY?$AA@ 000000018007a6d0     libzmq:zmq.obj
 0002:000006f0       ??_C@_0M@KMONFFGL@?$CFs?5?$CI?$CFs?3?$CFd?$CJ?6?$AA@ 000000018007a6f0     libzmq:zmq.obj
 0002:000006fc       ??_C@_04FNDLFGDN@__fd?$AA@ 000000018007a6fc     libzmq:zmq.obj
 0002:00000708       ??_C@_0P@INGLHKOI@events?5?$CB?$DN?5NULL?$AA@ 000000018007a708     libzmq:zmq.obj
 0002:00000718       ??_C@_0O@BKCHHJEH@Not?5supported?$AA@ 000000018007a718     libzmq:err.obj
 0002:00000728       ??_C@_0BH@JNBKLLAJ@Protocol?5not?5supported?$AA@ 000000018007a728     libzmq:err.obj
 0002:00000740       ??_C@_0BK@OCAHGMEA@No?5buffer?5space?5available?$AA@ 000000018007a740     libzmq:err.obj
 0002:00000760       ??_C@_0BA@LPIEBGEK@Network?5is?5down?$AA@ 000000018007a760     libzmq:err.obj
 0002:00000770       ??_C@_0P@DLAODLOG@Address?5in?5use?$AA@ 000000018007a770     libzmq:err.obj
 0002:00000780       ??_C@_0BG@LPGNEDFC@Address?5not?5available?$AA@ 000000018007a780     libzmq:err.obj
 0002:00000798       ??_C@_0BD@NPDMPPFP@Connection?5refused?$AA@ 000000018007a798     libzmq:err.obj
 0002:000007b0       ??_C@_0BG@CLDIHNON@Operation?5in?5progress?$AA@ 000000018007a7b0     libzmq:err.obj
 0002:000007c8       ??_C@_0DC@DLPMJLMC@Operation?5cannot?5be?5accomplished@ 000000018007a7c8     libzmq:err.obj
 0002:00000800       ??_C@_0DE@KMJDHMBM@The?5protocol?5is?5not?5compatible?5w@ 000000018007a800     libzmq:err.obj
 0002:00000838       ??_C@_0BH@IGBCFAGM@Context?5was?5terminated?$AA@ 000000018007a838     libzmq:err.obj
 0002:00000850       ??_C@_0BE@IAGHOOEH@No?5thread?5available?$AA@ 000000018007a850     libzmq:err.obj
 0002:00000868       ??_C@_0BB@BJPAGEMG@Host?5unreachable?$AA@ 000000018007a868     libzmq:err.obj
 0002:00000880       ??_C@_08IKODGPEB@No?5Error?$AA@ 000000018007a880     libzmq:err.obj
 0002:00000890       ??_C@_0BI@EAGLFFDI@Interrupted?5system?5call?$AA@ 000000018007a890     libzmq:err.obj
 0002:000008a8       ??_C@_0BA@IMABKEOI@Bad?5file?5number?$AA@ 000000018007a8a8     libzmq:err.obj
 0002:000008b8       ??_C@_0BC@HFNFNKAI@Permission?5denied?$AA@ 000000018007a8b8     libzmq:err.obj
 0002:000008d0       ??_C@_0M@LOEHLCJD@Bad?5address?$AA@ 000000018007a8d0     libzmq:err.obj
 0002:000008e0       ??_C@_0BB@HMGGCEBG@Invalid?5argument?$AA@ 000000018007a8e0     libzmq:err.obj
 0002:000008f8       ??_C@_0BE@INBJMKGG@Too?5many?5open?5files?$AA@ 000000018007a8f8     libzmq:err.obj
 0002:00000910       ??_C@_0BG@GMFMDOIH@Operation?5would?5block?$AA@ 000000018007a910     libzmq:err.obj
 0002:00000928       ??_C@_0BK@LBMNDGCG@Operation?5now?5in?5progress?$AA@ 000000018007a928     libzmq:err.obj
 0002:00000948       ??_C@_0BO@BMABNIPB@Operation?5already?5in?5progress?$AA@ 000000018007a948     libzmq:err.obj
 0002:00000968       ??_C@_0BP@MCCLAMPH@Socket?5operation?5on?5non?9socket?$AA@ 000000018007a968     libzmq:err.obj
 0002:00000988       ??_C@_0BN@HFCIEIME@Destination?5address?5required?$AA@ 000000018007a988     libzmq:err.obj
 0002:000009a8       ??_C@_0BB@NDAKHOCP@Message?5too?5long?$AA@ 000000018007a9a8     libzmq:err.obj
 0002:000009c0       ??_C@_0BP@PDKJLOAE@Protocol?5wrong?5type?5for?5socket?$AA@ 000000018007a9c0     libzmq:err.obj
 0002:000009e0       ??_C@_0BE@NEGCDJON@Bad?5protocol?5option?$AA@ 000000018007a9e0     libzmq:err.obj
 0002:000009f8       ??_C@_0BK@LMAIHBL@Socket?5type?5not?5supported?$AA@ 000000018007a9f8     libzmq:err.obj
 0002:00000a18       ??_C@_0CC@GKIJMEBA@Operation?5not?5supported?5on?5socke@ 000000018007aa18     libzmq:err.obj
 0002:00000a40       ??_C@_0BO@EBCCBLCJ@Protocol?5family?5not?5supported?$AA@ 000000018007aa40     libzmq:err.obj
 0002:00000a60       ??_C@_0DA@KDGLCJJO@Address?5family?5not?5supported?5by?5@ 000000018007aa60     libzmq:err.obj
 0002:00000a90       ??_C@_0BH@LOKACPE@Address?5already?5in?5use?$AA@ 000000018007aa90     libzmq:err.obj
 0002:00000aa8       ??_C@_0BP@OKMOKAIP@Can?8t?5assign?5requested?5address?$AA@ 000000018007aaa8     libzmq:err.obj
 0002:00000ac8       ??_C@_0BH@CIEOBPFM@Network?5is?5unreachable?$AA@ 000000018007aac8     libzmq:err.obj
 0002:00000ae0       ??_C@_0CA@JNBJELFJ@Net?5dropped?5connection?5or?5reset?$AA@ 000000018007aae0     libzmq:err.obj
 0002:00000b00       ??_C@_0CB@DJAOADN@Software?5caused?5connection?5abort@ 000000018007ab00     libzmq:err.obj
 0002:00000b28       ??_C@_0BJ@FJAMCHKE@Connection?5reset?5by?5peer?$AA@ 000000018007ab28     libzmq:err.obj
 0002:00000b48       ??_C@_0BM@CCONNCKE@Socket?5is?5already?5connected?$AA@ 000000018007ab48     libzmq:err.obj
 0002:00000b68       ??_C@_0BI@ILAOGBJJ@Socket?5is?5not?5connected?$AA@ 000000018007ab68     libzmq:err.obj
 0002:00000b80       ??_C@_0CB@IOOOMFJJ@Can?8t?5send?5after?5socket?5shutdown@ 000000018007ab80     libzmq:err.obj
 0002:00000ba8       ??_C@_0CB@FJKGGIJB@Too?5many?5references?5can?8t?5splice@ 000000018007aba8     libzmq:err.obj
 0002:00000bd0       ??_C@_0BF@IBBHAGLD@Connection?5timed?5out?$AA@ 000000018007abd0     libzmq:err.obj
 0002:00000be8       ??_C@_0CC@CPDHMANB@Too?5many?5levels?5of?5symbolic?5link@ 000000018007abe8     libzmq:err.obj
 0002:00000c10       ??_C@_0BD@CGPKCNP@File?5name?5too?5long?$AA@ 000000018007ac10     libzmq:err.obj
 0002:00000c28       ??_C@_0N@OHOPOBEF@Host?5is?5down?$AA@ 000000018007ac28     libzmq:err.obj
 0002:00000c38       ??_C@_0BB@PJLNOFCM@No?5Route?5to?5Host?$AA@ 000000018007ac38     libzmq:err.obj
 0002:00000c50       ??_C@_0BE@ICMCHPHH@Directory?5not?5empty?$AA@ 000000018007ac50     libzmq:err.obj
 0002:00000c68       ??_C@_0BD@LPHIGPM@Too?5many?5processes?$AA@ 000000018007ac68     libzmq:err.obj
 0002:00000c80       ??_C@_0P@DAFGFIDC@Too?5many?5users?$AA@ 000000018007ac80     libzmq:err.obj
 0002:00000c90       ??_C@_0BE@PEDAMG@Disc?5Quota?5Exceeded?$AA@ 000000018007ac90     libzmq:err.obj
 0002:00000ca8       ??_C@_0BG@KNCBNNDC@Stale?5NFS?5file?5handle?$AA@ 000000018007aca8     libzmq:err.obj
 0002:00000cc0       ??_C@_0CC@DBGGHIAG@Too?5many?5levels?5of?5remote?5in?5pat@ 000000018007acc0     libzmq:err.obj
 0002:00000ce8       ??_C@_0CB@MDCMIEKK@Network?5SubSystem?5is?5unavailable@ 000000018007ace8     libzmq:err.obj
 0002:00000d10       ??_C@_0CB@FGLJFAAL@WINSOCK?5DLL?5Version?5out?5of?5range@ 000000018007ad10     libzmq:err.obj
 0002:00000d38       ??_C@_0CI@GMCLOAPG@Successful?5WSASTARTUP?5not?5yet?5pe@ 000000018007ad38     libzmq:err.obj
 0002:00000d60       ??_C@_0P@CAFMJNJH@Host?5not?5found?$AA@ 000000018007ad60     libzmq:err.obj
 0002:00000d70       ??_C@_0CB@JBBGGNOF@Non?9Authoritative?5Host?5not?5found@ 000000018007ad70     libzmq:err.obj
 0002:00000d98       ??_C@_0CP@FNNFJCIA@Non?9Recoverable?5errors?3?5FORMERR?5@ 000000018007ad98     libzmq:err.obj
 0002:00000dc8       ??_C@_0CH@EKOFAFHE@Valid?5name?5no?5data?5record?5of?5req@ 000000018007adc8     libzmq:err.obj
 0002:00000df0       ??_C@_0BC@PBJKICCB@error?5not?5defined?$AA@ 000000018007adf0     libzmq:err.obj
 0002:00000e08       ??_C@_0BI@DGONOBBG@?4?4?2?4?4?2?4?4?2?4?4?2src?2err?4cpp?$AA@ 000000018007ae08     libzmq:err.obj
 0002:00000e20       ??_C@_02BJBLKCLH@rc?$AA@   000000018007ae20     libzmq:err.obj
 0002:000013d0       ??_7tcp_address_t@zmq@@6B@ 000000018007b3d0     libzmq:ctx.obj
 0002:000013e8       ??_7tcp_address_mask_t@zmq@@6B@ 000000018007b3e8     libzmq:ctx.obj
 0002:000013f8       ??_C@_0BI@DCMJPOMN@?4?4?2?4?4?2?4?4?2?4?4?2src?2ctx?4cpp?$AA@ 000000018007b3f8     libzmq:ctx.obj
 0002:00001410       ??_C@_0BB@CDNOHFEP@sockets?4empty?5?$CI?$CJ?$AA@ 000000018007b410     libzmq:ctx.obj
 0002:00001424       ??_C@_01LKDEMHDF@s?$AA@    000000018007b424     libzmq:ctx.obj
 0002:00001428       ??_C@_0BM@OHHINMIA@cmd?4type?5?$DN?$DN?5command_t?3?3done?$AA@ 000000018007b428     libzmq:ctx.obj
 0002:00001444       ??_C@_02MFDMBIJM@ok?$AA@   000000018007b444     libzmq:ctx.obj
 0002:00001448       ??_C@_07DFCJBJKJ@written?$AA@ 000000018007b448     libzmq:ctx.obj
 0002:00001450       ??_C@_0BD@OLBABOEK@vector?$DMT?$DO?5too?5long?$AA@ 000000018007b450     libzmq:ctx.obj
 0002:00001464       ??_C@_05LAPONLG@false?$AA@ 000000018007b464     libzmq:proxy.obj
 0002:000015d8       ??_C@_0BI@BAGEGCDP@?4?4?2?4?4?2?4?4?2?4?4?2src?2msg?4cpp?$AA@ 000000018007b5d8     libzmq:msg.obj
 0002:000015f0       ??_C@_0O@PFAGPPIE@NULL?5?$CB?$DN?5data_?$AA@ 000000018007b5f0     libzmq:msg.obj
 0002:00001600       ??_C@_0BB@CDJGGFLN@NULL?5?$CB?$DN?5content_?$AA@ 000000018007b600     libzmq:msg.obj
 0002:00001618       ??_C@_0BM@DPBDGNPO@data_?5?$CB?$DN?5NULL?5?$HM?$HM?5size_?5?$DN?$DN?50?$AA@ 000000018007b618     libzmq:msg.obj
 0002:00001638       ??_C@_0BG@IDHDLPGJ@u?4zclmsg?4content?9?$DOffn?$AA@ 000000018007b638     libzmq:msg.obj
 0002:00001650       ??_C@_08BEDAJCFJ@check?5?$CI?$CJ?$AA@ 000000018007b650     libzmq:msg.obj
 0002:00001660       ??_C@_0L@CBDEMOKI@refs_?5?$DO?$DN?50?$AA@ 000000018007b660     libzmq:msg.obj
 0002:00001670       ??_C@_0BI@MDDBHDFM@u?4base?4metadata?5?$DN?$DN?5NULL?$AA@ 000000018007b670     libzmq:msg.obj
 0002:00001c00       ??_C@_00CNPNBAHC@?$AA@     000000018007bc00     libzmq:socket_base.obj
 0002:00001c10       ??_7i_poll_events@zmq@@6B@ 000000018007bc10     libzmq:socket_base.obj
 0002:00001c38       ??_7i_pipe_events@zmq@@6B@ 000000018007bc38     libzmq:socket_base.obj
 0002:00001c68       ??_7?$array_item_t@$0A@@zmq@@6B@ 000000018007bc68     libzmq:socket_base.obj
 0002:00001c78       ??_7socket_base_t@zmq@@6Bown_t@1@@ 000000018007bc78     libzmq:socket_base.obj
 0002:00001d78       ??_7socket_base_t@zmq@@6B?$array_item_t@$0A@@1@@ 000000018007bd78     libzmq:socket_base.obj
 0002:00001d88       ??_7socket_base_t@zmq@@6Bi_poll_events@1@@ 000000018007bd88     libzmq:socket_base.obj
 0002:00001db0       ??_7socket_base_t@zmq@@6Bi_pipe_events@1@@ 000000018007bdb0     libzmq:socket_base.obj
 0002:00001dd8       ??_C@_0CA@OLAOJOKH@?4?4?2?4?4?2?4?4?2?4?4?2src?2socket_base?4cpp?$AA@ 000000018007bdd8     libzmq:socket_base.obj
 0002:00001df8       ??_C@_09OMEHJBAL@destroyed?$AA@ 000000018007bdf8     libzmq:socket_base.obj
 0002:00001e08       ??_C@_0N@LLMOFACD@uri_?5?$CB?$DN?5NULL?$AA@ 000000018007be08     libzmq:socket_base.obj
 0002:00001e18       ??_C@_03GACAABJG@?3?1?1?$AA@ 000000018007be18     libzmq:socket_base.obj
 0002:00001e1c       ??_C@_06HLPMHLDM@inproc?$AA@ 000000018007be1c     libzmq:socket_base.obj
 0002:00001e24       ??_C@_03FPEIBLKH@tcp?$AA@  000000018007be24     libzmq:socket_base.obj
 0002:00001e28       ??_C@_03OCLLGKEH@udp?$AA@  000000018007be28     libzmq:socket_base.obj
 0002:00001e2c       ??_C@_03CIEPEIDA@pgm?$AA@  000000018007be2c     libzmq:socket_base.obj
 0002:00001e30       ??_C@_04JOPLJIAM@epgm?$AA@ 000000018007be30     libzmq:socket_base.obj
 0002:00001e38       ??_C@_04PLLMIPEP@norm?$AA@ 000000018007be38     libzmq:socket_base.obj
 0002:00001e40       ??_C@_0BA@GMDAPCCH@errno?5?$DN?$DN?5EAGAIN?$AA@ 000000018007be40     libzmq:socket_base.obj
 0002:00001e50       ??_C@_0BG@NECMEFPF@options?4recv_identity?$AA@ 000000018007be50     libzmq:socket_base.obj
 0002:00001ee0       ??_C@_0CC@ECFDMMJB@?4?4?2?4?4?2?4?4?2?4?4?2src?2socket_poller?4cp@ 000000018007bee0     libzmq:socket_poller.obj
 0002:00001f08       ??_C@_0BM@FIOCJFC@items?4size?5?$CI?$CJ?5?$DM?$DN?5FD_SETSIZE?$AA@ 000000018007bf08     libzmq:socket_poller.obj
 0002:00001f28       ??_C@_0N@HAOHNMDE@Kernel32?4dll?$AA@ 000000018007bf28     libzmq:clock.obj
 0002:00001f38       ??_C@_0P@CDHHOHKP@GetTickCount64?$AA@ 000000018007bf38     libzmq:clock.obj
 0002:00001f48       __real@43e0000000000000    000000018007bf48     libzmq:clock.obj
 0002:00001f50       ??_C@_0BL@HANADOEI@?4?4?2?4?4?2?4?4?2?4?4?2src?2thread?4cpp?$AA@ 000000018007bf50     libzmq:thread.obj
 0002:00002658       ??_7exception@std@@6B@     000000018007c658     libzmq:tcp_address.obj
 0002:00002668       ??_C@_0BC@EOODALEL@Unknown?5exception?$AA@ 000000018007c668     libzmq:tcp_address.obj
 0002:00002688       ??_7runtime_error@std@@6B@ 000000018007c688     libzmq:tcp_address.obj
 0002:000026a0       ??_7bad_cast@std@@6B@      000000018007c6a0     libzmq:tcp_address.obj
 0002:000026b0       ??_C@_08EPJLHIJG@bad?5cast?$AA@ 000000018007c6b0     libzmq:tcp_address.obj
 0002:000026c0       ??_C@_0BA@ELKIONDK@bad?5locale?5name?$AA@ 000000018007c6c0     libzmq:tcp_address.obj
 0002:000026d0       ??_C@_04LOAJBDKD@true?$AA@ 000000018007c6d0     libzmq:tcp_address.obj
 0002:000026e0       ??_7_Facet_base@std@@6B@   000000018007c6e0     libzmq:tcp_address.obj
 0002:000026f8       ??_C@_01NBENCBCI@?$CK?$AA@ 000000018007c6f8     libzmq:tcp_address.obj
 0002:00002708       ??_7?$ctype@D@std@@6B@     000000018007c708     libzmq:tcp_address.obj
 0002:00002768       ??_7error_category@std@@6B@ 000000018007c768     libzmq:tcp_address.obj
 0002:000027a0       ??_7_System_error@std@@6B@ 000000018007c7a0     libzmq:tcp_address.obj
 0002:000027b0       ??_C@_02LMMGGCAJ@?3?5?$AA@ 000000018007c7b0     libzmq:tcp_address.obj
 0002:000027c0       ??_7system_error@std@@6B@  000000018007c7c0     libzmq:tcp_address.obj
 0002:000027d8       ??_7_Iostream_error_category@std@@6B@ 000000018007c7d8     libzmq:tcp_address.obj
 0002:00002808       ??_C@_08LLGCOLLL@iostream?$AA@ 000000018007c808     libzmq:tcp_address.obj
 0002:00002818       ??_C@_0BG@PADBLCHM@iostream?5stream?5error?$AA@ 000000018007c818     libzmq:tcp_address.obj
 0002:00002838       ??_7failure@ios_base@std@@6B@ 000000018007c838     libzmq:tcp_address.obj
 0002:00002850       ??_7ios_base@std@@6B@      000000018007c850     libzmq:tcp_address.obj
 0002:00002858       ??_C@_0BF@PHHKMMFD@ios_base?3?3badbit?5set?$AA@ 000000018007c858     libzmq:tcp_address.obj
 0002:00002870       ??_C@_0BG@FMKFHCIL@ios_base?3?3failbit?5set?$AA@ 000000018007c870     libzmq:tcp_address.obj
 0002:00002888       ??_C@_0BF@OOHOMBOF@ios_base?3?3eofbit?5set?$AA@ 000000018007c888     libzmq:tcp_address.obj
 0002:000028a0       ??_C@_0CA@EOPHHKEO@?4?4?2?4?4?2?4?4?2?4?4?2src?2tcp_address?4cpp?$AA@ 000000018007c8a0     libzmq:tcp_address.obj
 0002:000028c0       ??_C@_0M@DHMPGOMA@res?5?$CB?$DN?5NULL?$AA@ 000000018007c8c0     libzmq:tcp_address.obj
 0002:000028d0       ??_C@_0CN@GEJELLCH@?$CIsize_t?$CJ?5res?9?$DOai_addrlen?5?$DM?$DN?5size@ 000000018007c8d0     libzmq:tcp_address.obj
 0002:00002900       ??_C@_0BB@IONKHIIB@sa?5?$CG?$CG?5sa_len?5?$DO?50?$AA@ 000000018007c900     libzmq:tcp_address.obj
 0002:00002914       ??_C@_01FGNFDNOH@?$CF?$AA@ 000000018007c914     libzmq:tcp_address.obj
 0002:00002918       ??_C@_01GBGANLPD@0?$AA@    000000018007c918     libzmq:tcp_address.obj
 0002:00002928       ??_7?$basic_istream@DU?$char_traits@D@std@@@std@@6B@ 000000018007c928     libzmq:tcp_address.obj
 0002:00002938       ??_7?$basic_ostream@DU?$char_traits@D@std@@@std@@6B@ 000000018007c938     libzmq:tcp_address.obj
 0002:00002948       ??_7?$basic_iostream@DU?$char_traits@D@std@@@std@@6B@ 000000018007c948     libzmq:tcp_address.obj
 0002:00002958       ??_7?$basic_streambuf@DU?$char_traits@D@std@@@std@@6B@ 000000018007c958     libzmq:tcp_address.obj
 0002:000029d8       ??_7?$basic_stringbuf@DU?$char_traits@D@std@@V?$allocator@D@2@@std@@6B@ 000000018007c9d8     libzmq:tcp_address.obj
 0002:00002a58       ??_7?$basic_stringstream@DU?$char_traits@D@std@@V?$allocator@D@2@@std@@6B@ 000000018007ca58     libzmq:tcp_address.obj
 0002:00002a60       ??_8?$basic_stringstream@DU?$char_traits@D@std@@V?$allocator@D@2@@std@@7B?$basic_istream@DU?$char_traits@D@std@@@1@@ 000000018007ca60     libzmq:tcp_address.obj
 0002:00002a68       ??_8?$basic_stringstream@DU?$char_traits@D@std@@V?$allocator@D@2@@std@@7B?$basic_ostream@DU?$char_traits@D@std@@@1@@ 000000018007ca68     libzmq:tcp_address.obj
 0002:00002a70       ??_C@_02EBHDEFHH@?$FN?3?$AA@ 000000018007ca70     libzmq:tcp_address.obj
 0002:00002a78       ??_C@_07HKCFHOEI@tcp?3?1?1?$FL?$AA@ 000000018007ca78     libzmq:tcp_address.obj
 0002:00002a80       ??_C@_01JLIPDDHJ@?3?$AA@   000000018007ca80     libzmq:tcp_address.obj
 0002:00002a84       ??_C@_06LDJNGIPH@tcp?3?1?1?$AA@ 000000018007ca84     libzmq:tcp_address.obj
 0002:00002a8c       ??_C@_02HGMGKDGD@?$FN?1?$AA@ 000000018007ca8c     libzmq:tcp_address.obj
 0002:00002a90       ??_C@_01OHGJGJJP@?$FL?$AA@ 000000018007ca90     libzmq:tcp_address.obj
 0002:00002a94       ??_C@_01KMDKNFGN@?1?$AA@   000000018007ca94     libzmq:tcp_address.obj
 0002:00002aa0       ??_C@_0FD@HMBLNLIA@address_mask?5?$CB?$DN?5?91?5?$CG?$CG?5ss?5?$CB?$DN?5NULL@ 000000018007caa0     libzmq:tcp_address.obj
 0002:00002af8       ??_C@_0CH@GHPHHOLG@ss_len?5?$DN?$DN?5sizeof?5?$CIstruct?5sockadd@ 000000018007caf8     libzmq:tcp_address.obj
 0002:00002b20       ??_C@_0CG@KFNMOMGJ@ss_len?5?$DN?$DN?5sizeof?5?$CIstruct?5sockadd@ 000000018007cb20     libzmq:tcp_address.obj
 0002:00002b50       ??_7?$num_put@DV?$ostreambuf_iterator@DU?$char_traits@D@std@@@std@@@std@@6B@ 000000018007cb50     libzmq:tcp_address.obj
 0002:00002ba8       ??_C@_02BBAHNLBA@?$CFp?$AA@ 000000018007cba8     libzmq:tcp_address.obj
 0002:00002bb8       ??_7?$numpunct@D@std@@6B@  000000018007cbb8     libzmq:tcp_address.obj
 0002:00002bf8       ??_C@_02MDKMJEGG@eE?$AA@   000000018007cbf8     libzmq:tcp_address.obj
 0002:00002bfc       ??_C@_02OOPEBDOJ@pP?$AA@   000000018007cbfc     libzmq:tcp_address.obj
 0002:00002c00       __real@4202a05f20000000    000000018007cc00     libzmq:tcp_address.obj
 0002:00002c10       __xmm@7fffffffffffffff7fffffffffffffff 000000018007cc10     libzmq:tcp_address.obj
 0002:00002cf0       ??_7i_mailbox@zmq@@6B@     000000018007ccf0     libzmq:mailbox.obj
 0002:00002d10       ??_7?$ypipe_base_t@Ucommand_t@zmq@@@zmq@@6B@ 000000018007cd10     libzmq:mailbox.obj
 0002:00002d50       ??_7?$ypipe_t@Ucommand_t@zmq@@$0BA@@zmq@@6B@ 000000018007cd50     libzmq:mailbox.obj
 0002:00002d90       ??_7mailbox_t@zmq@@6B@     000000018007cd90     libzmq:mailbox.obj
 0002:00002da8       ??_C@_0BM@HKMJJJLM@?4?4?2?4?4?2?4?4?2?4?4?2src?2mailbox?4cpp?$AA@ 000000018007cda8     libzmq:mailbox.obj
 0002:00002dc4       ??_C@_03DLHNGMJ@?$CBok?$AA@ 000000018007cdc4     libzmq:mailbox.obj
 0002:00002dd0       ??_C@_0EC@GJMBBHOL@c?3?2users?2lukasgeiger?2code?2zeromq@ 000000018007cdd0     libzmq:mailbox.obj
 0002:00002e20       ??_C@_0ED@MJLMNCPN@c?3?2users?2lukasgeiger?2code?2zeromq@ 000000018007ce20     libzmq:mailbox.obj
 0002:00002e70       ??_7object_t@zmq@@6B@      000000018007ce70     libzmq:object.obj
 0002:00002ef8       ??_C@_0BL@GJHEBONF@?4?4?2?4?4?2?4?4?2?4?4?2src?2object?4cpp?$AA@ 000000018007cef8     libzmq:object.obj
 0002:00003060       ??_7own_t@zmq@@6B@         000000018007d060     libzmq:own.obj
 0002:000030f0       ??_C@_0BI@IBABBAJJ@?4?4?2?4?4?2?4?4?2?4?4?2src?2own?4cpp?$AA@ 000000018007d0f0     libzmq:own.obj
 0002:00003108       ??_C@_06DBOFABHG@?$CBowner?$AA@ 000000018007d108     libzmq:own.obj
 0002:00003110       ??_C@_0N@DCDACNLB@?$CBterminating?$AA@ 000000018007d110     libzmq:own.obj
 0002:00003120       ??_C@_0O@PCDAEPPA@term_acks?5?$DO?50?$AA@ 000000018007d120     libzmq:own.obj
 0002:00003130       ??_C@_0P@EDGMDDIC@owned?4empty?5?$CI?$CJ?$AA@ 000000018007d130     libzmq:own.obj
 0002:00003328       ??_7select_t@zmq@@6B@      000000018007d328     libzmq:select.obj
 0002:00003330       ??_C@_0BL@FMFOCKCK@?4?4?2?4?4?2?4?4?2?4?4?2src?2select?4cpp?$AA@ 000000018007d330     libzmq:select.obj
 0002:00003350       ??_C@_0CO@IEBNLFNH@fd_entry_it?5?$CB?$DN?5family_entry?4fd_e@ 000000018007d350     libzmq:select.obj
 0002:00003380       ??_C@_0BN@CPDIBLDC@rc?5?$CB?$DN?5WSA_WAIT_IO_COMPLETION?$AA@ 000000018007d380     libzmq:select.obj
 0002:00003510       ??_7?$array_item_t@$00@zmq@@6B@ 000000018007d510     libzmq:pipe.obj
 0002:00003520       ??_7?$array_item_t@$01@zmq@@6B@ 000000018007d520     libzmq:pipe.obj
 0002:00003530       ??_7?$array_item_t@$02@zmq@@6B@ 000000018007d530     libzmq:pipe.obj
 0002:00003540       ??_7pipe_t@zmq@@6Bobject_t@1@@ 000000018007d540     libzmq:pipe.obj
 0002:000035d0       ??_7pipe_t@zmq@@6B?$array_item_t@$00@1@@ 000000018007d5d0     libzmq:pipe.obj
 0002:000035e0       ??_7pipe_t@zmq@@6B?$array_item_t@$01@1@@ 000000018007d5e0     libzmq:pipe.obj
 0002:000035f0       ??_7pipe_t@zmq@@6B?$array_item_t@$02@1@@ 000000018007d5f0     libzmq:pipe.obj
 0002:00003600       ??_C@_0EE@LLLCBFEF@c?3?2users?2lukasgeiger?2code?2zeromq@ 000000018007d600     libzmq:pipe.obj
 0002:00003648       ??_C@_0BA@NPDEBNKN@xvalue?4check?5?$CI?$CJ?$AA@ 000000018007d648     libzmq:pipe.obj
 0002:00003658       ??_C@_0P@PELBBPA@back?9?$DOcheck?5?$CI?$CJ?$AA@ 000000018007d658     libzmq:pipe.obj
 0002:00003668       ??_C@_0BA@OIKKGFBN@front?9?$DOcheck?5?$CI?$CJ?$AA@ 000000018007d668     libzmq:pipe.obj
 0002:00003680       ??_7?$ypipe_base_t@Vmsg_t@zmq@@@zmq@@6B@ 000000018007d680     libzmq:pipe.obj
 0002:000036c0       ??_7?$ypipe_conflate_t@Vmsg_t@zmq@@@zmq@@6B@ 000000018007d6c0     libzmq:pipe.obj
 0002:00003700       ??_7?$ypipe_t@Vmsg_t@zmq@@$0BAA@@zmq@@6B@ 000000018007d700     libzmq:pipe.obj
 0002:00003738       ??_C@_0BJ@MJEIEAK@?4?4?2?4?4?2?4?4?2?4?4?2src?2pipe?4cpp?$AA@ 000000018007d738     libzmq:pipe.obj
 0002:00003754       ??_C@_05CEPCHNIO@?$CBpeer?$AA@ 000000018007d754     libzmq:pipe.obj
 0002:0000375c       ??_C@_05LONBPOBP@?$CBsink?$AA@ 000000018007d75c     libzmq:pipe.obj
 0002:00003768       ??_C@_0BL@KHDNPIG@msg?4flags?5?$CI?$CJ?5?$CG?5msg_t?3?3more?$AA@ 000000018007d768     libzmq:pipe.obj
 0002:00003788       ??_C@_07EOHCINCO@outpipe?$AA@ 000000018007d788     libzmq:pipe.obj
 0002:00003790       ??_C@_05MJDNKOGN@pipe_?$AA@ 000000018007d790     libzmq:pipe.obj
 0002:000037a0       ??_C@_0EK@LJOFLGFO@state?5?$DN?$DN?5active?5?$HM?$HM?5state?5?$DN?$DN?5deli@ 000000018007d7a0     libzmq:pipe.obj
 0002:000037ec       ??_C@_04FMBHODC@sink?$AA@  000000018007d7ec     libzmq:pipe.obj
 0002:000037f8       ??_C@_0DC@FIIMNIHL@state?5?$DN?$DN?5term_ack_sent?5?$HM?$HM?5state?5@ 000000018007d7f8     libzmq:pipe.obj
 0002:00003830       ??_C@_0DC@BJMPIFNO@state?5?$DN?$DN?5active?5?$HM?$HM?5state?5?$DN?$DN?5wait@ 000000018007d830     libzmq:pipe.obj
 0002:00003898       ??_7io_thread_t@zmq@@6Bobject_t@1@@ 000000018007d898     libzmq:io_thread.obj
 0002:00003928       ??_7io_thread_t@zmq@@6Bi_poll_events@1@@ 000000018007d928     libzmq:io_thread.obj
 0002:00003948       ??_C@_0BO@HBNMDJBM@?4?4?2?4?4?2?4?4?2?4?4?2src?2io_thread?4cpp?$AA@ 000000018007d948     libzmq:io_thread.obj
 0002:00003968       ??_C@_06JHOINGN@poller?$AA@ 000000018007d968     libzmq:io_thread.obj
 0002:000039a0       ??_7reaper_t@zmq@@6Bobject_t@1@@ 000000018007d9a0     libzmq:reaper.obj
 0002:00003a30       ??_7reaper_t@zmq@@6Bi_poll_events@1@@ 000000018007da30     libzmq:reaper.obj
 0002:00003a50       ??_C@_0BL@ONENPLNF@?4?4?2?4?4?2?4?4?2?4?4?2src?2reaper?4cpp?$AA@ 000000018007da50     libzmq:reaper.obj
 0002:00003a98       ??_C@_0BN@NLHEACEK@?4?4?2?4?4?2?4?4?2?4?4?2src?2signaler?4cpp?$AA@ 000000018007da98     libzmq:signaler.obj
 0002:00003ab8       ??_C@_0BJ@EEMDBOAL@nbytes?5?$DN?$DN?5sizeof?5?$CIdummy?$CJ?$AA@ 000000018007dab8     libzmq:signaler.obj
 0002:00003ad8       ??_C@_07GMLKPICM@rc?5?$DN?$DN?51?$AA@ 000000018007dad8     libzmq:signaler.obj
 0002:00003ae0       ??_C@_0L@EAHAIKHK@dummy?5?$DN?$DN?50?$AA@ 000000018007dae0     libzmq:signaler.obj
 0002:00003b98       ??_7tcp_listener_t@zmq@@6Bown_t@1@@ 000000018007db98     libzmq:tcp_listener.obj
 0002:00003c30       ??_7tcp_listener_t@zmq@@6Bio_object_t@1@@ 000000018007dc30     libzmq:tcp_listener.obj
 0002:00003c50       ??_C@_0CB@JHHGADIP@?4?4?2?4?4?2?4?4?2?4?4?2src?2tcp_listener?4cpp@ 000000018007dc50     libzmq:tcp_listener.obj
 0002:00003c78       ??_C@_0BA@ELNFGKHF@s?5?$DN?$DN?5retired_fd?$AA@ 000000018007dc78     libzmq:tcp_listener.obj
 0002:00003c88       ??_C@_09FLFNFAJ@io_thread?$AA@ 000000018007dc88     libzmq:tcp_listener.obj
 0002:00003c98       ??_C@_0BA@HJCMHDE@s?5?$CB?$DN?5retired_fd?$AA@ 000000018007dc98     libzmq:tcp_listener.obj
 0002:00003e40       ??_7session_base_t@zmq@@6Bown_t@1@@ 000000018007de40     libzmq:session_base.obj
 0002:00003ef0       ??_7session_base_t@zmq@@6Bio_object_t@1@@ 000000018007def0     libzmq:session_base.obj
 0002:00003f18       ??_7session_base_t@zmq@@6Bi_pipe_events@1@@ 000000018007df18     libzmq:session_base.obj
 0002:00003f40       ??_C@_0CB@JFMIBGAG@?4?4?2?4?4?2?4?4?2?4?4?2src?2session_base?4cpp@ 000000018007df40     libzmq:session_base.obj
 0002:00003f64       ??_C@_05HBEKCHDL@?$CBpipe?$AA@ 000000018007df64     libzmq:session_base.obj
 0002:00003f70       ??_C@_09CHBBNDPE@?$CBzap_pipe?$AA@ 000000018007df70     libzmq:session_base.obj
 0002:00003f80       ??_C@_0BD@JCKNFF@?$CBis_terminating?5?$CI?$CJ?$AA@ 000000018007df80     libzmq:session_base.obj
 0002:00003f98       ??_C@_0N@HBABECHN@pipe?5?$CB?$DN?5NULL?$AA@ 000000018007df98     libzmq:session_base.obj
 0002:00003fb0       ??_C@_0EL@CPFMGLHC@pipe_?5?$DN?$DN?5pipe?5?$HM?$HM?5pipe_?5?$DN?$DN?5zap_pi@ 000000018007dfb0     libzmq:session_base.obj
 0002:00004000       ??_C@_0CF@KOHCPLLM@terminating_pipes?4count?5?$CIpipe_?$CJ?5@ 000000018007e000     libzmq:session_base.obj
 0002:00004028       ??_C@_0BB@CKPMHJNN@zap_pipe?5?$DN?$DN?5NULL?$AA@ 000000018007e028     libzmq:session_base.obj
 0002:00004040       ??_C@_0BH@BFNKNAA@inproc?3?1?1zeromq?4zap?401?$AA@ 000000018007e040     libzmq:session_base.obj
 0002:00004058       ??_C@_0BA@HAPBFIIB@engine_?5?$CB?$DN?5NULL?$AA@ 000000018007e058     libzmq:session_base.obj
 0002:00004068       ??_C@_07HDIOCFCK@?$CBengine?$AA@ 000000018007e068     libzmq:session_base.obj
 0002:00004070       ??_C@_0IF@MHPGLGEK@reason?5?$DN?$DN?5stream_engine_t?3?3conne@ 000000018007e070     libzmq:session_base.obj
 0002:000040f8       ??_C@_08IJDFJDAH@?$CBpending?$AA@ 000000018007e0f8     libzmq:session_base.obj
 0002:00004108       ??_C@_0BC@ONGNMOIC@?$CBhas_linger_timer?$AA@ 000000018007e108     libzmq:session_base.obj
 0002:00004120       ??_C@_0BH@MDHEOJE@id_?5?$DN?$DN?5linger_timer_id?$AA@ 000000018007e120     libzmq:session_base.obj
 0002:00004138       ??_C@_04MKFKKHBG@pipe?$AA@ 000000018007e138     libzmq:session_base.obj
 0002:00004140       ??_C@_06MDLIGPKC@active?$AA@ 000000018007e140     libzmq:session_base.obj
 0002:00004150       ??_C@_0FD@LOGMHBAG@options?4type?5?$DN?$DN?5ZMQ_DISH?5?$HM?$HM?5opti@ 000000018007e150     libzmq:session_base.obj
 0002:00004250       ??_7udp_address_t@zmq@@6B@ 000000018007e250     libzmq:udp_address.obj
 0002:000042b0       ??_C@_0EP@GHHABLND@c?3?2users?2lukasgeiger?2code?2zeromq@ 000000018007e2b0     libzmq:mailbox_safe.obj
 0002:00004308       ??_7mailbox_safe_t@zmq@@6B@ 000000018007e308     libzmq:mailbox_safe.obj
 0002:00004320       ??_C@_0CB@CLBAAFNJ@?4?4?2?4?4?2?4?4?2?4?4?2src?2mailbox_safe?4cpp@ 000000018007e320     libzmq:mailbox_safe.obj
 0002:000043a0       ??_7pair_t@zmq@@6Bown_t@1@@ 000000018007e3a0     libzmq:pair.obj
 0002:000044a0       ??_7pair_t@zmq@@6B?$array_item_t@$0A@@1@@ 000000018007e4a0     libzmq:pair.obj
 0002:000044b0       ??_7pair_t@zmq@@6Bi_poll_events@1@@ 000000018007e4b0     libzmq:pair.obj
 0002:000044d8       ??_7pair_t@zmq@@6Bi_pipe_events@1@@ 000000018007e4d8     libzmq:pair.obj
 0002:00004500       ??_C@_0BJ@DDOEHEIB@?4?4?2?4?4?2?4?4?2?4?4?2src?2pair?4cpp?$AA@ 000000018007e500     libzmq:pair.obj
 0002:00004520       ??_C@_0O@EHPCMPFK@pipe_?5?$CB?$DN?5NULL?$AA@ 000000018007e520     libzmq:pair.obj
 0002:00004600       ??_7xpub_t@zmq@@6Bown_t@1@@ 000000018007e600     libzmq:xpub.obj
 0002:00004700       ??_7xpub_t@zmq@@6B?$array_item_t@$0A@@1@@ 000000018007e700     libzmq:xpub.obj
 0002:00004710       ??_7xpub_t@zmq@@6Bi_poll_events@1@@ 000000018007e710     libzmq:xpub.obj
 0002:00004738       ??_7xpub_t@zmq@@6Bi_pipe_events@1@@ 000000018007e738     libzmq:xpub.obj
 0002:00004760       ??_C@_0BJ@JLIFBDAN@?4?4?2?4?4?2?4?4?2?4?4?2src?2xpub?4cpp?$AA@ 000000018007e760     libzmq:xpub.obj
 0002:00004780       ??_C@_0BC@KBDMBKEH@deque?$DMT?$DO?5too?5long?$AA@ 000000018007e780     libzmq:xpub.obj
 0002:000047a0       ??_7pub_t@zmq@@6Bown_t@1@@ 000000018007e7a0     libzmq:pub.obj
 0002:000048a0       ??_7pub_t@zmq@@6B?$array_item_t@$0A@@1@@ 000000018007e8a0     libzmq:pub.obj
 0002:000048b0       ??_7pub_t@zmq@@6Bi_poll_events@1@@ 000000018007e8b0     libzmq:pub.obj
 0002:000048d8       ??_7pub_t@zmq@@6Bi_pipe_events@1@@ 000000018007e8d8     libzmq:pub.obj
 0002:00004900       ??_C@_0BI@MEMHOCEM@?4?4?2?4?4?2?4?4?2?4?4?2src?2pub?4cpp?$AA@ 000000018007e900     libzmq:pub.obj
 0002:00004970       ??_7xsub_t@zmq@@6Bown_t@1@@ 000000018007e970     libzmq:xsub.obj
 0002:00004a70       ??_7xsub_t@zmq@@6B?$array_item_t@$0A@@1@@ 000000018007ea70     libzmq:xsub.obj
 0002:00004a80       ??_7xsub_t@zmq@@6Bi_poll_events@1@@ 000000018007ea80     libzmq:xsub.obj
 0002:00004aa8       ??_7xsub_t@zmq@@6Bi_pipe_events@1@@ 000000018007eaa8     libzmq:xsub.obj
 0002:00004ad0       ??_C@_0BJ@BFAKBEOO@?4?4?2?4?4?2?4?4?2?4?4?2src?2xsub?4cpp?$AA@ 000000018007ead0     libzmq:xsub.obj
 0002:00004af8       ??_7sub_t@zmq@@6Bown_t@1@@ 000000018007eaf8     libzmq:sub.obj
 0002:00004bf8       ??_7sub_t@zmq@@6B?$array_item_t@$0A@@1@@ 000000018007ebf8     libzmq:sub.obj
 0002:00004c08       ??_7sub_t@zmq@@6Bi_poll_events@1@@ 000000018007ec08     libzmq:sub.obj
 0002:00004c30       ??_7sub_t@zmq@@6Bi_pipe_events@1@@ 000000018007ec30     libzmq:sub.obj
 0002:00004c58       ??_C@_0BI@EKEIOFKP@?4?4?2?4?4?2?4?4?2?4?4?2src?2sub?4cpp?$AA@ 000000018007ec58     libzmq:sub.obj
 0002:00004ca0       ??_7dealer_t@zmq@@6Bown_t@1@@ 000000018007eca0     libzmq:dealer.obj
 0002:00004da0       ??_7dealer_t@zmq@@6B?$array_item_t@$0A@@1@@ 000000018007eda0     libzmq:dealer.obj
 0002:00004db0       ??_7dealer_t@zmq@@6Bi_poll_events@1@@ 000000018007edb0     libzmq:dealer.obj
 0002:00004dd8       ??_7dealer_t@zmq@@6Bi_pipe_events@1@@ 000000018007edd8     libzmq:dealer.obj
 0002:00004e00       ??_C@_0BL@IABKNBDJ@?4?4?2?4?4?2?4?4?2?4?4?2src?2dealer?4cpp?$AA@ 000000018007ee00     libzmq:dealer.obj
 0002:00004e50       ??_7req_t@zmq@@6Bown_t@1@@ 000000018007ee50     libzmq:req.obj
 0002:00004f50       ??_7req_t@zmq@@6B?$array_item_t@$0A@@1@@ 000000018007ef50     libzmq:req.obj
 0002:00004f60       ??_7req_t@zmq@@6Bi_poll_events@1@@ 000000018007ef60     libzmq:req.obj
 0002:00004f88       ??_7req_t@zmq@@6Bi_pipe_events@1@@ 000000018007ef88     libzmq:req.obj
 0002:00004fb8       ??_7req_session_t@zmq@@6Bown_t@1@@ 000000018007efb8     libzmq:req.obj
 0002:00005068       ??_7req_session_t@zmq@@6Bio_object_t@1@@ 000000018007f068     libzmq:req.obj
 0002:00005090       ??_7req_session_t@zmq@@6Bi_pipe_events@1@@ 000000018007f090     libzmq:req.obj
 0002:000050b8       ??_C@_0BI@GEHOAJMK@?4?4?2?4?4?2?4?4?2?4?4?2src?2req?4cpp?$AA@ 000000018007f0b8     libzmq:req.obj
 0002:000050d0       ??_C@_0L@FLAJMBK@reply_pipe?$AA@ 000000018007f0d0     libzmq:req.obj
 0002:000052f0       ??_7router_t@zmq@@6Bown_t@1@@ 000000018007f2f0     libzmq:router.obj
 0002:000053f0       ??_7router_t@zmq@@6B?$array_item_t@$0A@@1@@ 000000018007f3f0     libzmq:router.obj
 0002:00005400       ??_7router_t@zmq@@6Bi_poll_events@1@@ 000000018007f400     libzmq:router.obj
 0002:00005428       ??_7router_t@zmq@@6Bi_pipe_events@1@@ 000000018007f428     libzmq:router.obj
 0002:00005450       ??_C@_0BL@IPAJHGJL@?4?4?2?4?4?2?4?4?2?4?4?2src?2router?4cpp?$AA@ 000000018007f450     libzmq:router.obj
 0002:00005470       ??_C@_0BJ@JKMNJJDB@anonymous_pipes?4empty?5?$CI?$CJ?$AA@ 000000018007f470     libzmq:router.obj
 0002:00005490       ??_C@_0BC@NLCAAGN@outpipes?4empty?5?$CI?$CJ?$AA@ 000000018007f490     libzmq:router.obj
 0002:000054a8       ??_C@_0BI@JGFBKJPO@iter?5?$CB?$DN?5outpipes?4end?5?$CI?$CJ?$AA@ 000000018007f4a8     libzmq:router.obj
 0002:000054c0       ??_C@_0BG@DEFANNJ@it?5?$CB?$DN?5outpipes?4end?5?$CI?$CJ?$AA@ 000000018007f4c0     libzmq:router.obj
 0002:000054d8       ??_C@_0BD@HJAAIBKE@?$CBit?9?$DOsecond?4active?$AA@ 000000018007f4d8     libzmq:router.obj
 0002:000054f0       ??_C@_0N@HBGNKKAE@?$CBcurrent_out?$AA@ 000000018007f4f0     libzmq:router.obj
 0002:00005508       ??_7rep_t@zmq@@6Bown_t@1@@ 000000018007f508     libzmq:rep.obj
 0002:00005608       ??_7rep_t@zmq@@6B?$array_item_t@$0A@@1@@ 000000018007f608     libzmq:rep.obj
 0002:00005618       ??_7rep_t@zmq@@6Bi_poll_events@1@@ 000000018007f618     libzmq:rep.obj
 0002:00005640       ??_7rep_t@zmq@@6Bi_pipe_events@1@@ 000000018007f640     libzmq:rep.obj
 0002:00005668       ??_C@_0BI@KPCCNKGP@?4?4?2?4?4?2?4?4?2?4?4?2src?2rep?4cpp?$AA@ 000000018007f668     libzmq:rep.obj
 0002:000056b0       ??_7pull_t@zmq@@6Bown_t@1@@ 000000018007f6b0     libzmq:pull.obj
 0002:000057b0       ??_7pull_t@zmq@@6B?$array_item_t@$0A@@1@@ 000000018007f7b0     libzmq:pull.obj
 0002:000057c0       ??_7pull_t@zmq@@6Bi_poll_events@1@@ 000000018007f7c0     libzmq:pull.obj
 0002:000057e8       ??_7pull_t@zmq@@6Bi_pipe_events@1@@ 000000018007f7e8     libzmq:pull.obj
 0002:00005810       ??_C@_0BJ@KAPBAHBM@?4?4?2?4?4?2?4?4?2?4?4?2src?2pull?4cpp?$AA@ 000000018007f810     libzmq:pull.obj
 0002:00005860       ??_7push_t@zmq@@6Bown_t@1@@ 000000018007f860     libzmq:push.obj
 0002:00005960       ??_7push_t@zmq@@6B?$array_item_t@$0A@@1@@ 000000018007f960     libzmq:push.obj
 0002:00005970       ??_7push_t@zmq@@6Bi_poll_events@1@@ 000000018007f970     libzmq:push.obj
 0002:00005998       ??_7push_t@zmq@@6Bi_pipe_events@1@@ 000000018007f998     libzmq:push.obj
 0002:000059c0       ??_C@_0BJ@KKPGKJCN@?4?4?2?4?4?2?4?4?2?4?4?2src?2push?4cpp?$AA@ 000000018007f9c0     libzmq:push.obj
 0002:00005bf0       ??_7stream_t@zmq@@6Bown_t@1@@ 000000018007fbf0     libzmq:stream.obj
 0002:00005cf0       ??_7stream_t@zmq@@6B?$array_item_t@$0A@@1@@ 000000018007fcf0     libzmq:stream.obj
 0002:00005d00       ??_7stream_t@zmq@@6Bi_poll_events@1@@ 000000018007fd00     libzmq:stream.obj
 0002:00005d28       ??_7stream_t@zmq@@6Bi_pipe_events@1@@ 000000018007fd28     libzmq:stream.obj
 0002:00005d50       ??_C@_0BL@EDHGBLGF@?4?4?2?4?4?2?4?4?2?4?4?2src?2stream?4cpp?$AA@ 000000018007fd50     libzmq:stream.obj
 0002:00005d70       ??_C@_0CN@EIGNPFEN@?$CIprefetched_msg?4flags?5?$CI?$CJ?5?$CG?5msg_t@ 000000018007fd70     libzmq:stream.obj
 0002:00005da0       ??_C@_0BG@PAMOCGLE@it?5?$DN?$DN?5outpipes?4end?5?$CI?$CJ?$AA@ 000000018007fda0     libzmq:stream.obj
 0002:00005ed8       ??_7server_t@zmq@@6Bown_t@1@@ 000000018007fed8     libzmq:server.obj
 0002:00005fd8       ??_7server_t@zmq@@6B?$array_item_t@$0A@@1@@ 000000018007ffd8     libzmq:server.obj
 0002:00005fe8       ??_7server_t@zmq@@6Bi_poll_events@1@@ 000000018007ffe8     libzmq:server.obj
 0002:00006010       ??_7server_t@zmq@@6Bi_pipe_events@1@@ 0000000180080010     libzmq:server.obj
 0002:00006038       ??_C@_0BL@HPOBFDCG@?4?4?2?4?4?2?4?4?2?4?4?2src?2server?4cpp?$AA@ 0000000180080038     libzmq:server.obj
 0002:00006088       ??_7client_t@zmq@@6Bown_t@1@@ 0000000180080088     libzmq:client.obj
 0002:00006188       ??_7client_t@zmq@@6B?$array_item_t@$0A@@1@@ 0000000180080188     libzmq:client.obj
 0002:00006198       ??_7client_t@zmq@@6Bi_poll_events@1@@ 0000000180080198     libzmq:client.obj
 0002:000061c0       ??_7client_t@zmq@@6Bi_pipe_events@1@@ 00000001800801c0     libzmq:client.obj
 0002:000061e8       ??_C@_0BL@CFPNOBKE@?4?4?2?4?4?2?4?4?2?4?4?2src?2client?4cpp?$AA@ 00000001800801e8     libzmq:client.obj
 0002:00006288       ??_7radio_t@zmq@@6Bown_t@1@@ 0000000180080288     libzmq:radio.obj
 0002:00006388       ??_7radio_t@zmq@@6B?$array_item_t@$0A@@1@@ 0000000180080388     libzmq:radio.obj
 0002:00006398       ??_7radio_t@zmq@@6Bi_poll_events@1@@ 0000000180080398     libzmq:radio.obj
 0002:000063c0       ??_7radio_t@zmq@@6Bi_pipe_events@1@@ 00000001800803c0     libzmq:radio.obj
 0002:000063f0       ??_7radio_session_t@zmq@@6Bown_t@1@@ 00000001800803f0     libzmq:radio.obj
 0002:000064a0       ??_7radio_session_t@zmq@@6Bio_object_t@1@@ 00000001800804a0     libzmq:radio.obj
 0002:000064c8       ??_7radio_session_t@zmq@@6Bi_pipe_events@1@@ 00000001800804c8     libzmq:radio.obj
 0002:000064f0       ??_C@_0BK@GJFBJOKM@?4?4?2?4?4?2?4?4?2?4?4?2src?2radio?4cpp?$AA@ 00000001800804f0     libzmq:radio.obj
 0002:0000650c       ??_C@_05BFCJMAAN@?$AEJOIN?$AA@ 000000018008050c     libzmq:radio.obj
 0002:00006514       ??_C@_06BOLFMEBC@?$AFLEAVE?$AA@ 0000000180080514     libzmq:radio.obj
 0002:000066b8       ??_7dish_t@zmq@@6Bown_t@1@@ 00000001800806b8     libzmq:dish.obj
 0002:000067b8       ??_7dish_t@zmq@@6B?$array_item_t@$0A@@1@@ 00000001800807b8     libzmq:dish.obj
 0002:000067c8       ??_7dish_t@zmq@@6Bi_poll_events@1@@ 00000001800807c8     libzmq:dish.obj
 0002:000067f0       ??_7dish_t@zmq@@6Bi_pipe_events@1@@ 00000001800807f0     libzmq:dish.obj
 0002:00006820       ??_7dish_session_t@zmq@@6Bown_t@1@@ 0000000180080820     libzmq:dish.obj
 0002:000068d0       ??_7dish_session_t@zmq@@6Bio_object_t@1@@ 00000001800808d0     libzmq:dish.obj
 0002:000068f8       ??_7dish_session_t@zmq@@6Bi_pipe_events@1@@ 00000001800808f8     libzmq:dish.obj
 0002:00006920       ??_C@_0BJ@HAMOJODE@?4?4?2?4?4?2?4?4?2?4?4?2src?2dish?4cpp?$AA@ 0000000180080920     libzmq:dish.obj
 0002:00006970       ??_7gather_t@zmq@@6Bown_t@1@@ 0000000180080970     libzmq:gather.obj
 0002:00006a70       ??_7gather_t@zmq@@6B?$array_item_t@$0A@@1@@ 0000000180080a70     libzmq:gather.obj
 0002:00006a80       ??_7gather_t@zmq@@6Bi_poll_events@1@@ 0000000180080a80     libzmq:gather.obj
 0002:00006aa8       ??_7gather_t@zmq@@6Bi_pipe_events@1@@ 0000000180080aa8     libzmq:gather.obj
 0002:00006ad0       ??_C@_0BL@HCAOBOIG@?4?4?2?4?4?2?4?4?2?4?4?2src?2gather?4cpp?$AA@ 0000000180080ad0     libzmq:gather.obj
 0002:00006b20       ??_7scatter_t@zmq@@6Bown_t@1@@ 0000000180080b20     libzmq:scatter.obj
 0002:00006c20       ??_7scatter_t@zmq@@6B?$array_item_t@$0A@@1@@ 0000000180080c20     libzmq:scatter.obj
 0002:00006c30       ??_7scatter_t@zmq@@6Bi_poll_events@1@@ 0000000180080c30     libzmq:scatter.obj
 0002:00006c58       ??_7scatter_t@zmq@@6Bi_pipe_events@1@@ 0000000180080c58     libzmq:scatter.obj
 0002:00006c80       ??_C@_0BM@HMHMPKIG@?4?4?2?4?4?2?4?4?2?4?4?2src?2scatter?4cpp?$AA@ 0000000180080c80     libzmq:scatter.obj
 0002:00006cf8       ??_7dgram_t@zmq@@6Bown_t@1@@ 0000000180080cf8     libzmq:dgram.obj
 0002:00006df8       ??_7dgram_t@zmq@@6B?$array_item_t@$0A@@1@@ 0000000180080df8     libzmq:dgram.obj
 0002:00006e08       ??_7dgram_t@zmq@@6Bi_poll_events@1@@ 0000000180080e08     libzmq:dgram.obj
 0002:00006e30       ??_7dgram_t@zmq@@6Bi_pipe_events@1@@ 0000000180080e30     libzmq:dgram.obj
 0002:00006e58       ??_C@_0BK@PEAIMBEJ@?4?4?2?4?4?2?4?4?2?4?4?2src?2dgram?4cpp?$AA@ 0000000180080e58     libzmq:dgram.obj
 0002:00006f98       ??_7poller_base_t@zmq@@6B@ 0000000180080f98     libzmq:poller_base.obj
 0002:00006fa0       ??_C@_0CA@BJEFCLI@?4?4?2?4?4?2?4?4?2?4?4?2src?2poller_base?4cpp?$AA@ 0000000180080fa0     libzmq:poller_base.obj
 0002:00006fc0       ??_C@_0BB@BFAJGGHN@get_load?5?$CI?$CJ?5?$DN?$DN?50?$AA@ 0000000180080fc0     libzmq:poller_base.obj
 0002:00006fd8       ??_C@_0BH@LODLOFOK@?4?4?2?4?4?2?4?4?2?4?4?2src?2ip?4cpp?$AA@ 0000000180080fd8     libzmq:ip.obj
 0002:00007020       ??_7io_object_t@zmq@@6B@   0000000180081020     libzmq:io_object.obj
 0002:00007040       ??_C@_0BO@GIHIBJIB@?4?4?2?4?4?2?4?4?2?4?4?2src?2io_object?4cpp?$AA@ 0000000180081040     libzmq:io_object.obj
 0002:00007060       ??_C@_0L@EEPKEMOK@io_thread_?$AA@ 0000000180081060     libzmq:io_object.obj
 0002:00007070       ??_C@_07MEOMOPLC@?$CBpoller?$AA@ 0000000180081070     libzmq:io_object.obj
 0002:000072d8       ??_7i_engine@zmq@@6B@      00000001800812d8     libzmq:stream_engine.obj
 0002:00007310       ??_7stream_engine_t@zmq@@6Bio_object_t@1@@ 0000000180081310     libzmq:stream_engine.obj
 0002:00007338       ??_7stream_engine_t@zmq@@6Bi_engine@1@@ 0000000180081338     libzmq:stream_engine.obj
 0002:00007368       ??_C@_0CC@IJIICAHC@?4?4?2?4?4?2?4?4?2?4?4?2src?2stream_engine?4cp@ 0000000180081368     libzmq:stream_engine.obj
 0002:00007390       ??_C@_08PFLLJFEN@?$CBplugged?$AA@ 0000000180081390     libzmq:stream_engine.obj
 0002:000073a0       ??_C@_08LKDCBPEN@?$CBsession?$AA@ 00000001800813a0     libzmq:stream_engine.obj
 0002:000073b0       ??_C@_08JAOIFKJP@session_?$AA@ 00000001800813b0     libzmq:stream_engine.obj
 0002:000073c0       ??_C@_0BB@OILPMNHB@metadata?5?$DN?$DN?5NULL?$AA@ 00000001800813c0     libzmq:stream_engine.obj
 0002:000073d8       ??_C@_07ODBKMIGK@plugged?$AA@ 00000001800813d8     libzmq:stream_engine.obj
 0002:000073e0       ??_C@_09NEODDBOJ@?$CBio_error?$AA@ 00000001800813e0     libzmq:stream_engine.obj
 0002:000073f0       ??_C@_07GFKBACBG@decoder?$AA@ 00000001800813f0     libzmq:stream_engine.obj
 0002:000073f8       ??_C@_0BE@LPNNCPID@processed?5?$DM?$DN?5insize?$AA@ 00000001800813f8     libzmq:stream_engine.obj
 0002:00007410       ??_C@_0M@GMJICDGE@handshaking?$AA@ 0000000180081410     libzmq:stream_engine.obj
 0002:0000741c       ??_C@_05EKPNOAPD@n?5?$DO?50?$AA@ 000000018008141c     libzmq:stream_engine.obj
 0002:00007428       ??_C@_0O@BPJGMMEA@input_stopped?$AA@ 0000000180081428     libzmq:stream_engine.obj
 0002:00007438       ??_C@_0BA@PLPDICID@session?5?$CB?$DN?5NULL?$AA@ 0000000180081438     libzmq:stream_engine.obj
 0002:00007448       ??_C@_0BA@OJLAFPCJ@decoder?5?$CB?$DN?5NULL?$AA@ 0000000180081448     libzmq:stream_engine.obj
 0002:00007458       ??_C@_0CE@FGIKMOCM@greeting_bytes_read?5?$DM?5greeting_s@ 0000000180081458     libzmq:stream_engine.obj
 0002:00007480       ??_C@_0IF@JBCDLNFE@options?4mechanism?5?$DN?$DN?5ZMQ_NULL?5?$HM?$HM@ 0000000180081480     libzmq:stream_engine.obj
 0002:00007508       ??_C@_05ONKJAIHP@PLAIN?$AA@ 0000000180081508     libzmq:stream_engine.obj
 0002:00007510       ??_C@_06HIDJEBJA@GSSAPI?$AA@ 0000000180081510     libzmq:stream_engine.obj
 0002:00007518       ??_C@_05LDDJEIEO@CURVE?$AA@ 0000000180081518     libzmq:stream_engine.obj
 0002:00007520       ??_C@_0BL@DOKPLPFM@buffer_size?5?$DN?$DN?5header_size?$AA@ 0000000180081520     libzmq:stream_engine.obj
 0002:00007540       ??_C@_0BF@GMNEFFDM@NULL?$AA?$AA?$AA?$AA?$AA?$AA?$AA?$AA?$AA?$AA?$AA?$AA?$AA?$AA?$AA?$AA?$AA@ 0000000180081540     libzmq:stream_engine.obj
 0002:00007558       ??_C@_0BF@CDDGGBAL@PLAIN?$AA?$AA?$AA?$AA?$AA?$AA?$AA?$AA?$AA?$AA?$AA?$AA?$AA?$AA?$AA?$AA@ 0000000180081558     libzmq:stream_engine.obj
 0002:00007570       ??_C@_0BC@MCHNCFFK@mechanism?5?$CB?$DN?5NULL?$AA@ 0000000180081570     libzmq:stream_engine.obj
 0002:00007588       ??_C@_07KMJDECGK@session?$AA@ 0000000180081588     libzmq:stream_engine.obj
 0002:00007590       ??_C@_0BF@KFDGMEGI@?$CBhas_handshake_timer?$AA@ 0000000180081590     libzmq:stream_engine.obj
 0002:000075b0       ??_7?$basic_ostringstream@DU?$char_traits@D@std@@V?$allocator@D@2@@std@@6B@ 00000001800815b0     libzmq:stream_engine.obj
 0002:000075b8       ??_8?$basic_ostringstream@DU?$char_traits@D@std@@V?$allocator@D@2@@std@@7B@ 00000001800815b8     libzmq:stream_engine.obj
 0002:000075c0       ??_C@_0N@DNJFDAFE@Peer?9Address?$AA@ 00000001800815c0     libzmq:stream_engine.obj
 0002:000075d0       ??_C@_05MOJPLNDO@?$AEPING?$AA@ 00000001800815d0     libzmq:stream_engine.obj
 0002:000075d8       ??_C@_05OLPEOCOC@?$AEPONG?$AA@ 00000001800815d8     libzmq:stream_engine.obj
 0002:000075e0       ??_C@_0BI@KJNOGNC@?4?4?2?4?4?2?4?4?2?4?4?2src?2tcp?4cpp?$AA@ 00000001800815e0     libzmq:tcp.obj
 0002:000076a0       ??_7tcp_connecter_t@zmq@@6Bown_t@1@@ 00000001800816a0     libzmq:tcp_connecter.obj
 0002:00007738       ??_7tcp_connecter_t@zmq@@6Bio_object_t@1@@ 0000000180081738     libzmq:tcp_connecter.obj
 0002:00007758       ??_C@_0CC@JEFCJF@?4?4?2?4?4?2?4?4?2?4?4?2src?2tcp_connecter?4cp@ 0000000180081758     libzmq:tcp_connecter.obj
 0002:0000777c       ??_C@_04HLBMEOMD@addr?$AA@ 000000018008177c     libzmq:tcp_connecter.obj
 0002:00007788       ??_C@_0BI@CLKOJOBD@addr?9?$DOprotocol?5?$DN?$DN?5?$CCtcp?$CC?$AA@ 0000000180081788     libzmq:tcp_connecter.obj
 0002:000077a0       ??_C@_0BH@BIEHHBKG@?$CBconnect_timer_started?$AA@ 00000001800817a0     libzmq:tcp_connecter.obj
 0002:000077b8       ??_C@_0BJ@ONEBIKOB@?$CBreconnect_timer_started?$AA@ 00000001800817b8     libzmq:tcp_connecter.obj
 0002:000077d8       ??_C@_0O@PKAJMMFB@?$CBhandle_valid?$AA@ 00000001800817d8     libzmq:tcp_connecter.obj
 0002:000077e8       ??_C@_0DF@OGIFKGFN@id_?5?$DN?$DN?5reconnect_timer_id?5?$HM?$HM?5id_@ 00000001800817e8     libzmq:tcp_connecter.obj
 0002:00007820       ??_C@_0CA@GKGEAKOM@addr?9?$DOresolved?4tcp_addr?5?$CB?$DN?5NULL?$AA@ 0000000180081820     libzmq:tcp_connecter.obj
 0002:000078e8       ??_7socks_connecter_t@zmq@@6Bown_t@1@@ 00000001800818e8     libzmq:socks_connecter.obj
 0002:00007980       ??_7socks_connecter_t@zmq@@6Bio_object_t@1@@ 0000000180081980     libzmq:socks_connecter.obj
 0002:000079a0       ??_C@_0CE@LBDFNIFG@?4?4?2?4?4?2?4?4?2?4?4?2src?2socks_connecter?4@ 00000001800819a0     libzmq:socks_connecter.obj
 0002:000079c8       ??_C@_0DM@ENNEPEAE@status?5?$CB?$DN?5unplugged?5?$CG?$CG?5status?5?$CB?$DN@ 00000001800819c8     libzmq:socks_connecter.obj
 0002:00007a10       ??_C@_0GC@IKKDEKBO@status?5?$DN?$DN?5waiting_for_proxy_conn@ 0000000180081a10     libzmq:socks_connecter.obj
 0002:00007a78       ??_C@_0CF@LKDBJAAE@greeting_encoder?4has_pending_dat@ 0000000180081a78     libzmq:socks_connecter.obj
 0002:00007aa0       ??_C@_0CE@NMDLIDEE@request_encoder?4has_pending_data@ 0000000180081aa0     libzmq:socks_connecter.obj
 0002:00007ac8       ??_C@_0CF@DIFJINDF@status?5?$DN?$DN?5waiting_for_reconnect_@ 0000000180081ac8     libzmq:socks_connecter.obj
 0002:00007af0       ??_C@_0BK@OAEKMMPG@id_?5?$DN?$DN?5reconnect_timer_id?$AA@ 0000000180081af0     libzmq:socks_connecter.obj
 0002:00007b10       ??_C@_0CG@EFDFOGNB@proxy_addr?9?$DOresolved?4tcp_addr?5?$CB?$DN@ 0000000180081b10     libzmq:socks_connecter.obj
 0002:00007bb8       ??_7udp_engine_t@zmq@@6Bio_object_t@1@@ 0000000180081bb8     libzmq:udp_engine.obj
 0002:00007be0       ??_7udp_engine_t@zmq@@6Bi_engine@1@@ 0000000180081be0     libzmq:udp_engine.obj
 0002:00007c10       ??_C@_0BP@KAHIMLMK@?4?4?2?4?4?2?4?4?2?4?4?2src?2udp_engine?4cpp?$AA@ 0000000180081c10     libzmq:udp_engine.obj
 0002:00007c30       ??_C@_08HMJAHEBG@address_?$AA@ 0000000180081c30     libzmq:udp_engine.obj
 0002:00007c40       ??_C@_0P@DNAINCMD@send_?5?$HM?$HM?5recv_?$AA@ 0000000180081c40     libzmq:udp_engine.obj
 0002:00007c50       ??_C@_02DPKJAMEF@?$CFd?$AA@ 0000000180081c50     libzmq:udp_engine.obj
 0002:00007ca8       ??_C@_0BK@ECOMFIDN@?4?4?2?4?4?2?4?4?2?4?4?2src?2mtrie?4cpp?$AA@ 0000000180081ca8     libzmq:mtrie.obj
 0002:00007cc8       ??_C@_09INIIKPJN@next?4node?$AA@ 0000000180081cc8     libzmq:mtrie.obj
 0002:00007cd8       ??_C@_0BA@CLOIJDMG@live_nodes?5?$DN?$DN?50?$AA@ 0000000180081cd8     libzmq:mtrie.obj
 0002:00007ce8       ??_C@_0P@DGJJOJIK@live_nodes?5?$DO?50?$AA@ 0000000180081ce8     libzmq:mtrie.obj
 0002:00007cf8       ??_C@_09CFNAGANA@count?5?$DO?51?$AA@ 0000000180081cf8     libzmq:mtrie.obj
 0002:00007d08       ??_C@_0BD@IAALAANE@new_min?5?$DN?$DN?5new_max?$AA@ 0000000180081d08     libzmq:mtrie.obj
 0002:00007d20       ??_C@_0CI@FJMOOFEM@new_min?5?$DO?$DN?5min?5?$CG?$CG?5new_min?5?$DM?5min?5@ 0000000180081d20     libzmq:mtrie.obj
 0002:00007d48       ??_C@_04CLMONKIF@node?$AA@ 0000000180081d48     libzmq:mtrie.obj
 0002:00007d50       ??_C@_0BK@OKBPCONB@new_max?5?9?5new_min?5?$CL?51?5?$DO?51?$AA@ 0000000180081d50     libzmq:mtrie.obj
 0002:00007d70       ??_C@_0CL@OFEFFNKO@new_min?5?$DO?5min?5?$HM?$HM?5new_max?5?$DM?5min?5?$CL@ 0000000180081d70     libzmq:mtrie.obj
 0002:00007da0       ??_C@_0P@CJFPEPKO@new_min?5?$DO?$DN?5min?$AA@ 0000000180081da0     libzmq:mtrie.obj
 0002:00007db0       ??_C@_0BL@OFFMOADF@new_max?5?$DM?$DN?5min?5?$CL?5count?5?9?51?$AA@ 0000000180081db0     libzmq:mtrie.obj
 0002:00007dd0       ??_C@_0BO@GMEEPEIF@new_max?5?9?5new_min?5?$CL?51?5?$DM?5count?$AA@ 0000000180081dd0     libzmq:mtrie.obj
 0002:00007df0       ??_C@_0M@CACAIHOC@erased?5?$DN?$DN?51?$AA@ 0000000180081df0     libzmq:mtrie.obj
 0002:00007e00       ??_C@_09DMMLFBJB@count?5?$DO?50?$AA@ 0000000180081e00     libzmq:mtrie.obj
 0002:00007e10       ??_C@_0P@CPICNIML@live_nodes?5?$DO?51?$AA@ 0000000180081e10     libzmq:mtrie.obj
 0002:00007e20       ??_C@_09GOFANCCA@i?5?$DM?5count?$AA@ 0000000180081e20     libzmq:mtrie.obj
 0002:00007e58       ??_C@_0BJ@ENKFMNE@?4?4?2?4?4?2?4?4?2?4?4?2src?2dist?4cpp?$AA@ 0000000180081e58     libzmq:dist.obj
 0002:00007e78       ??_C@_0P@DHIDHNJO@pipes?4empty?5?$CI?$CJ?$AA@ 0000000180081e78     libzmq:dist.obj
 0002:00007ed8       ??_C@_0BH@IDCPEGKG@?4?4?2?4?4?2?4?4?2?4?4?2src?2fq?4cpp?$AA@ 0000000180081ed8     libzmq:fq.obj
 0002:00007ef0       ??_C@_05MPNFPPLK@?$CBmore?$AA@ 0000000180081ef0     libzmq:fq.obj
 0002:00007f20       ??_C@_0BJ@ICOPCBGG@?4?4?2?4?4?2?4?4?2?4?4?2src?2trie?4cpp?$AA@ 0000000180081f20     libzmq:trie.obj
 0002:00007f40       ??_C@_0L@KBHOADHL@next?4table?$AA@ 0000000180081f40     libzmq:trie.obj
 0002:00007f50       ??_C@_0BA@DCPDKCIH@live_nodes?5?$DN?$DN?51?$AA@ 0000000180081f50     libzmq:trie.obj
 0002:00007f60       ??_C@_0P@LIMJKDIJ@new_min?5?$CB?$DN?5min?$AA@ 0000000180081f60     libzmq:trie.obj
 0002:00007f70       ??_C@_0O@JFMKJHOO@new_min?5?$DO?5min?$AA@ 0000000180081f70     libzmq:trie.obj
 0002:00007f80       ??_C@_0BG@JDAKCPFA@count?5?$DO?5new_min?5?9?5min?$AA@ 0000000180081f80     libzmq:trie.obj
 0002:00007f98       ??_C@_0BD@LBLADGEA@new_count?5?$CB?$DN?5count?$AA@ 0000000180081f98     libzmq:trie.obj
 0002:00007fac       ??_C@_06BCGENJGL@?$CKbuff_?$AA@ 0000000180081fac     libzmq:trie.obj
 0002:00007fe0       ??_C@_0BH@KCBNGJNN@?4?4?2?4?4?2?4?4?2?4?4?2src?2lb?4cpp?$AA@ 0000000180081fe0     libzmq:lb.obj
 0002:00008028       ??_7i_encoder@zmq@@6B@     0000000180082028     libzmq:v1_encoder.obj
 0002:00008048       ??_7?$encoder_base_t@Vv1_encoder_t@zmq@@@zmq@@6B@ 0000000180082048     libzmq:v1_encoder.obj
 0002:00008068       ??_7v1_encoder_t@zmq@@6B@  0000000180082068     libzmq:v1_encoder.obj
 0002:00008080       ??_C@_0EE@OODLILGE@c?3?2users?2lukasgeiger?2code?2zeromq@ 0000000180082080     libzmq:v1_encoder.obj
 0002:000080c8       ??_C@_0BE@FHMDGLP@in_progress?5?$DN?$DN?5NULL?$AA@ 00000001800820c8     libzmq:v1_encoder.obj
 0002:00008130       ??_C@_0EP@LOKFDFIB@c?3?2users?2lukasgeiger?2code?2zeromq@ 0000000180082130     libzmq:v1_decoder.obj
 0002:00008188       ??_7i_decoder@zmq@@6B@     0000000180082188     libzmq:v1_decoder.obj
 0002:000081b8       ??_7?$decoder_base_t@Vv1_decoder_t@zmq@@Vc_single_allocator@2@@zmq@@6B@ 00000001800821b8     libzmq:v1_decoder.obj
 0002:000081e8       ??_7v1_decoder_t@zmq@@6B@  00000001800821e8     libzmq:v1_decoder.obj
 0002:00008210       ??_C@_0BP@CKOPFCCJ@?4?4?2?4?4?2?4?4?2?4?4?2src?2v1_decoder?4cpp?$AA@ 0000000180082210     libzmq:v1_decoder.obj
 0002:00008230       ??_C@_0EE@FGLPEAEP@c?3?2users?2lukasgeiger?2code?2zeromq@ 0000000180082230     libzmq:v1_decoder.obj
 0002:00008278       ??_C@_0BB@OIDMJHDA@size_?5?$DM?$DN?5to_read?$AA@ 0000000180082278     libzmq:v1_decoder.obj
 0002:000082c0       ??_7?$encoder_base_t@Vv2_encoder_t@zmq@@@zmq@@6B@ 00000001800822c0     libzmq:v2_encoder.obj
 0002:000082e0       ??_7v2_encoder_t@zmq@@6B@  00000001800822e0     libzmq:v2_encoder.obj
 0002:000083a0       ??_7?$decoder_base_t@Vv2_decoder_t@zmq@@Vshared_message_memory_allocator@2@@zmq@@6B@ 00000001800823a0     libzmq:v2_decoder.obj
 0002:000083d0       ??_7v2_decoder_t@zmq@@6B@  00000001800823d0     libzmq:v2_decoder.obj
 0002:000083f8       ??_C@_0BP@FGIOHHPC@?4?4?2?4?4?2?4?4?2?4?4?2src?2v2_decoder?4cpp?$AA@ 00000001800823f8     libzmq:v2_decoder.obj
 0002:00008538       ??_7mechanism_t@zmq@@6B@   0000000180082538     libzmq:mechanism.obj
 0002:00008578       ??_C@_0BO@NBOAKOGH@?4?4?2?4?4?2?4?4?2?4?4?2src?2mechanism?4cpp?$AA@ 0000000180082578     libzmq:mechanism.obj
 0002:00008598       ??_C@_07KNDCFFML@User?9Id?$AA@ 0000000180082598     libzmq:mechanism.obj
 0002:000085a0       ??_C@_04NFKAHBOI@PAIR?$AA@ 00000001800825a0     libzmq:mechanism.obj
 0002:000085a8       ??_C@_03LNIOOOJN@PUB?$AA@  00000001800825a8     libzmq:mechanism.obj
 0002:000085ac       ??_C@_03KPDLEBHD@SUB?$AA@  00000001800825ac     libzmq:mechanism.obj
 0002:000085b0       ??_C@_03GKEOMEPE@REQ?$AA@  00000001800825b0     libzmq:mechanism.obj
 0002:000085b4       ??_C@_03HDFFPFLF@REP?$AA@  00000001800825b4     libzmq:mechanism.obj
 0002:000085b8       ??_C@_06MHMPAMLF@DEALER?$AA@ 00000001800825b8     libzmq:mechanism.obj
 0002:000085c0       ??_C@_06GCJHMIBF@ROUTER?$AA@ 00000001800825c0     libzmq:mechanism.obj
 0002:000085c8       ??_C@_04NIFBEMBE@PULL?$AA@ 00000001800825c8     libzmq:mechanism.obj
 0002:000085d0       ??_C@_04KLEHGNFN@PUSH?$AA@ 00000001800825d0     libzmq:mechanism.obj
 0002:000085d8       ??_C@_04FCILECJG@XPUB?$AA@ 00000001800825d8     libzmq:mechanism.obj
 0002:000085e0       ??_C@_04EADOONHI@XSUB?$AA@ 00000001800825e0     libzmq:mechanism.obj
 0002:000085e8       ??_C@_06DNCHHLFB@STREAM?$AA@ 00000001800825e8     libzmq:mechanism.obj
 0002:000085f0       ??_C@_06HNFCPEFM@SERVER?$AA@ 00000001800825f0     libzmq:mechanism.obj
 0002:000085f8       ??_C@_06DCBACPNP@CLIENT?$AA@ 00000001800825f8     libzmq:mechanism.obj
 0002:00008600       ??_C@_05HGDEKMLG@RADIO?$AA@ 0000000180082600     libzmq:mechanism.obj
 0002:00008608       ??_C@_04CEOILEDI@DISH?$AA@ 0000000180082608     libzmq:mechanism.obj
 0002:00008610       ??_C@_06EKNENLJL@GATHER?$AA@ 0000000180082610     libzmq:mechanism.obj
 0002:00008618       ??_C@_07IHLDODJN@SCATTER?$AA@ 0000000180082618     libzmq:mechanism.obj
 0002:00008620       ??_C@_05GFKMIDOJ@DGRAM?$AA@ 0000000180082620     libzmq:mechanism.obj
 0002:00008628       ??_C@_0CG@OODBFLGN@socket_type?5?$DO?$DN?50?5?$CG?$CG?5socket_type?5@ 0000000180082628     libzmq:mechanism.obj
 0002:00008650       ??_C@_0BA@FLNENANC@name_len?5?$DM?$DN?5255?$AA@ 0000000180082650     libzmq:mechanism.obj
 0002:00008660       ??_C@_0BI@NFPEEFJL@value_len?5?$DM?$DN?50x7FFFFFFF?$AA@ 0000000180082660     libzmq:mechanism.obj
 0002:00008678       ??_C@_08DDGPABJB@Identity?$AA@ 0000000180082678     libzmq:mechanism.obj
 0002:00008688       ??_C@_0M@EEMEEODI@Socket?9Type?$AA@ 0000000180082688     libzmq:mechanism.obj
 0002:000086c8       ??_7null_mechanism_t@zmq@@6B@ 00000001800826c8     libzmq:null_mechanism.obj
 0002:00008708       ??_C@_03HPLEMDKK@200?$AA@  0000000180082708     libzmq:null_mechanism.obj
 0002:00008710       ??_C@_0CD@MGEFGPAB@?4?4?2?4?4?2?4?4?2?4?4?2src?2null_mechanism?4c@ 0000000180082710     libzmq:null_mechanism.obj
 0002:00008734       ??_C@_06LPKCDKFA@?$AFERROR?$AA@ 0000000180082734     libzmq:null_mechanism.obj
 0002:0000873c       ??_C@_06NOLMINLK@?$AFREADY?$AA@ 000000018008273c     libzmq:null_mechanism.obj
 0002:00008748       ??_C@_0DN@LFNICIN@NULL?5I?3?5client?5sent?5invalid?5NULL@ 0000000180082748     libzmq:null_mechanism.obj
 0002:00008788       ??_C@_0DH@PFIMMDNP@NULL?5I?3?5client?5sent?5invalid?5NULL@ 0000000180082788     libzmq:null_mechanism.obj
 0002:000087c0       ??_C@_03HLLJOCDO@1?40?$AA@ 00000001800827c0     libzmq:null_mechanism.obj
 0002:000087c4       ??_C@_01HIHLOKLC@1?$AA@    00000001800827c4     libzmq:null_mechanism.obj
 0002:000087c8       ??_C@_0DC@MHECNOL@NULL?5I?3?5ZAP?5handler?5sent?5incompl@ 00000001800827c8     libzmq:null_mechanism.obj
 0002:00008800       ??_C@_0DB@HAEKILLN@NULL?5I?3?5ZAP?5handler?5sent?5malform@ 0000000180082800     libzmq:null_mechanism.obj
 0002:00008838       ??_C@_0CM@MMDFMHMD@NULL?5I?3?5ZAP?5handler?5sent?5bad?5ver@ 0000000180082838     libzmq:null_mechanism.obj
 0002:00008868       ??_C@_0CI@MBLJHBDA@NULL?5I?3?5ZAP?5handler?5sent?5bad?5req@ 0000000180082868     libzmq:null_mechanism.obj
 0002:00008890       ??_C@_0DD@CIPHAKNO@NULL?5I?3?5ZAP?5handler?5rejected?5cli@ 0000000180082890     libzmq:null_mechanism.obj
 0002:000088f8       ??_7plain_client_t@zmq@@6B@ 00000001800828f8     libzmq:plain_client.obj
 0002:00008938       ??_C@_08GFLFCDKP@?$AHWELCOME?$AA@ 0000000180082938     libzmq:plain_client.obj
 0002:00008948       ??_C@_0CD@OOHEKLMA@PLAIN?5I?3?5invalid?5handshake?5comma@ 0000000180082948     libzmq:plain_client.obj
 0002:00008970       ??_C@_0CB@KKNOHDAC@?4?4?2?4?4?2?4?4?2?4?4?2src?2plain_client?4cpp@ 0000000180082970     libzmq:plain_client.obj
 0002:00008998       ??_C@_0BJ@HNNPMCCG@username?4length?5?$CI?$CJ?5?$DM?5256?$AA@ 0000000180082998     libzmq:plain_client.obj
 0002:000089b8       ??_C@_0BJ@CJJCPDFB@password?4length?5?$CI?$CJ?5?$DM?5256?$AA@ 00000001800829b8     libzmq:plain_client.obj
 0002:000089d4       ??_C@_06JMBAJAPF@?$AFHELLO?$AA@ 00000001800829d4     libzmq:plain_client.obj
 0002:000089e0       ??_C@_09JHPIPAPJ@?$AIINITIATE?$AA@ 00000001800829e0     libzmq:plain_client.obj
 0002:00008a48       ??_7plain_server_t@zmq@@6B@ 0000000180082a48     libzmq:plain_server.obj
 0002:00008a88       ??_C@_0CB@PAMCMBIA@?4?4?2?4?4?2?4?4?2?4?4?2src?2plain_server?4cpp@ 0000000180082a88     libzmq:plain_server.obj
 0002:00008ab0       ??_C@_0DC@FGDANHJA@PLAIN?5I?3?5invalid?5PLAIN?5client?0?5d@ 0000000180082ab0     libzmq:plain_server.obj
 0002:00008ae8       ??_C@_0DF@MKIEONHM@PLAIN?5I?3?5invalid?5PLAIN?5client?0?5d@ 0000000180082ae8     libzmq:plain_server.obj
 0002:00008b20       ??_C@_0DH@KBKLDCBJ@PLAIN?5I?3?5invalid?5PLAIN?5client?0?5s@ 0000000180082b20     libzmq:plain_server.obj
 0002:00008b58       ??_C@_0DF@PCJBLDPI@PLAIN?5I?3?5invalid?5PLAIN?5client?0?5d@ 0000000180082b58     libzmq:plain_server.obj
 0002:00008b90       ??_C@_0DH@JJLOGMJN@PLAIN?5I?3?5invalid?5PLAIN?5client?0?5s@ 0000000180082b90     libzmq:plain_server.obj
 0002:00008bc8       ??_C@_0DE@ONKFGCHB@PLAIN?5I?3?5invalid?5PLAIN?5client?0?5s@ 0000000180082bc8     libzmq:plain_server.obj
 0002:00008c00       ??_C@_0DF@KIEMILEC@PLAIN?5I?3?5invalid?5PLAIN?5client?0?5d@ 0000000180082c00     libzmq:plain_server.obj
 0002:00008c38       ??_C@_0BL@LMICGMBI@status_code?4length?5?$CI?$CJ?5?$DN?$DN?53?$AA@ 0000000180082c38     libzmq:plain_server.obj
 0002:00008c58       ??_C@_0DD@HLBOBEEH@PLAIN?5I?3?5ZAP?5handler?5sent?5incomp@ 0000000180082c58     libzmq:plain_server.obj
 0002:00008c90       ??_C@_0DC@BNEDLBLM@PLAIN?5I?3?5ZAP?5handler?5sent?5malfor@ 0000000180082c90     libzmq:plain_server.obj
 0002:00008cc8       ??_C@_0CN@CNAKHFME@PLAIN?5I?3?5ZAP?5handler?5sent?5bad?5ve@ 0000000180082cc8     libzmq:plain_server.obj
 0002:00008cf8       ??_C@_0CJ@PHCOJPPI@PLAIN?5I?3?5ZAP?5handler?5sent?5bad?5re@ 0000000180082cf8     libzmq:plain_server.obj
 0002:00008d28       ??_C@_0DE@PHOAIPCE@PLAIN?5I?3?5ZAP?5handler?5rejected?5cl@ 0000000180082d28     libzmq:plain_server.obj
 0002:00008db8       ??_7raw_decoder_t@zmq@@6B@ 0000000180082db8     libzmq:raw_decoder.obj
 0002:00008de0       ??_C@_0CA@DFKLGELL@?4?4?2?4?4?2?4?4?2?4?4?2src?2raw_decoder?4cpp?$AA@ 0000000180082de0     libzmq:raw_decoder.obj
 0002:00008e30       ??_7?$encoder_base_t@Vraw_encoder_t@zmq@@@zmq@@6B@ 0000000180082e30     libzmq:raw_encoder.obj
 0002:00008e50       ??_7raw_encoder_t@zmq@@6B@ 0000000180082e50     libzmq:raw_encoder.obj
 0002:00008eb8       ??_C@_0BK@KHBPPENA@?4?4?2?4?4?2?4?4?2?4?4?2src?2socks?4cpp?$AA@ 0000000180082eb8     libzmq:socks.obj
 0002:00008ed8       ??_C@_0P@DFDFJFEP@bytes_read?5?$DM?52?$AA@ 0000000180082ed8     libzmq:socks.obj
 0002:00008ee8       ??_C@_0BB@KNFNAHMF@message_ready?5?$CI?$CJ?$AA@ 0000000180082ee8     libzmq:socks.obj
 0002:00008f00       ??_C@_0BP@HIGDNGLJ@hostname_?4size?5?$CI?$CJ?5?$DM?$DN?5UINT8_MAX?$AA@ 0000000180082f00     libzmq:socks.obj
 0002:00008f20       ??_C@_0CB@OOPLJKDH@req?4hostname?4size?$CI?$CJ?5?$DM?$DN?5UINT8_MAX@ 0000000180082f20     libzmq:socks.obj
 0002:00008f48       ??_C@_0CN@EBFLLKAM@atyp?5?$DN?$DN?50x01?5?$HM?$HM?5atyp?5?$DN?$DN?50x03?5?$HM?$HM?5@ 0000000180082f48     libzmq:socks.obj
 0002:00008f78       ??_C@_0CH@DNJEBCCA@?4?4?2?4?4?2?4?4?2?4?4?2src?2decoder_allocato@ 0000000180082f78     libzmq:decoder_allocators.obj
 0002:00008fa0       ??_C@_04NPKLNGDP@hint?$AA@ 0000000180082fa0     libzmq:decoder_allocators.obj
 0002:00008fa8       __real@4040800000000000    0000000180082fa8     libzmq:decoder_allocators.obj
 0002:00008fb0       in6addr_any                0000000180082fb0     ws2_32:indef.obj
 0002:00008fc8       ??_7bad_alloc@std@@6B@     0000000180082fc8     libcpmt:xthrow.obj
 0002:00008fd8       ??_C@_0P@GHFPNOJB@bad?5allocation?$AA@ 0000000180082fd8     libcpmt:xthrow.obj
 0002:00008ff0       ??_7logic_error@std@@6B@   0000000180082ff0     libcpmt:xthrow.obj
 0002:00009008       ??_7length_error@std@@6B@  0000000180083008     libcpmt:xthrow.obj
 0002:00009020       ??_7out_of_range@std@@6B@  0000000180083020     libcpmt:xthrow.obj
 0002:00009100       ??_7_Locimp@locale@std@@6B@ 0000000180083100     libcpmt:locale0.obj
 0002:00009118       ??_C@_01GFHCPBMG@C?$AA@    0000000180083118     libcpmt:locale0.obj
 0002:00009850       ??_C@_0BN@LKKBCCDB@address?5family?5not?5supported?$AA@ 0000000180083850     libcpmt:syserror.obj
 0002:00009870       ??_C@_0P@LDMLAFHI@address?5in?5use?$AA@ 0000000180083870     libcpmt:syserror.obj
 0002:00009880       ??_C@_0BG@DHPCNBJB@address?5not?5available?$AA@ 0000000180083880     libcpmt:syserror.obj
 0002:00009898       ??_C@_0BC@DFIBIBIL@already?5connected?$AA@ 0000000180083898     libcpmt:syserror.obj
 0002:000098b0       ??_C@_0BH@CAKOHOMI@argument?5list?5too?5long?$AA@ 00000001800838b0     libcpmt:syserror.obj
 0002:000098c8       ??_C@_0BH@CGIMPKIM@argument?5out?5of?5domain?$AA@ 00000001800838c8     libcpmt:syserror.obj
 0002:000098e0       ??_C@_0M@KGHGGJGL@bad?5address?$AA@ 00000001800838e0     libcpmt:syserror.obj
 0002:000098f0       ??_C@_0BE@MPJPGCEO@bad?5file?5descriptor?$AA@ 00000001800838f0     libcpmt:syserror.obj
 0002:00009908       ??_C@_0M@PMMIEFCP@bad?5message?$AA@ 0000000180083908     libcpmt:syserror.obj
 0002:00009918       ??_C@_0M@KPHOFDBE@broken?5pipe?$AA@ 0000000180083918     libcpmt:syserror.obj
 0002:00009928       ??_C@_0BD@MGNDDEGM@connection?5aborted?$AA@ 0000000180083928     libcpmt:syserror.obj
 0002:00009940       ??_C@_0BP@KAIHPOGN@connection?5already?5in?5progress?$AA@ 0000000180083940     libcpmt:syserror.obj
 0002:00009960       ??_C@_0BD@PJLIIJEL@connection?5refused?$AA@ 0000000180083960     libcpmt:syserror.obj
 0002:00009978       ??_C@_0BB@IECNJNOI@connection?5reset?$AA@ 0000000180083978     libcpmt:syserror.obj
 0002:00009990       ??_C@_0BC@PPHBOELF@cross?5device?5link?$AA@ 0000000180083990     libcpmt:syserror.obj
 0002:000099a8       ??_C@_0BN@KDMIFEIP@destination?5address?5required?$AA@ 00000001800839a8     libcpmt:syserror.obj
 0002:000099c8       ??_C@_0BI@NGCEHDD@device?5or?5resource?5busy?$AA@ 00000001800839c8     libcpmt:syserror.obj
 0002:000099e0       ??_C@_0BE@JIDOCPHM@directory?5not?5empty?$AA@ 00000001800839e0     libcpmt:syserror.obj
 0002:000099f8       ??_C@_0BI@BNCLIGPB@executable?5format?5error?$AA@ 00000001800839f8     libcpmt:syserror.obj
 0002:00009a10       ??_C@_0M@MIDIAGJP@file?5exists?$AA@ 0000000180083a10     libcpmt:syserror.obj
 0002:00009a20       ??_C@_0P@DNAJLBJK@file?5too?5large?$AA@ 0000000180083a20     libcpmt:syserror.obj
 0002:00009a30       ??_C@_0BC@EJHOMAAK@filename?5too?5long?$AA@ 0000000180083a30     libcpmt:syserror.obj
 0002:00009a48       ??_C@_0BH@KEFGLDAF@function?5not?5supported?$AA@ 0000000180083a48     libcpmt:syserror.obj
 0002:00009a60       ??_C@_0BB@DHFDFGDM@host?5unreachable?$AA@ 0000000180083a60     libcpmt:syserror.obj
 0002:00009a78       ??_C@_0BD@JPHBMONG@identifier?5removed?$AA@ 0000000180083a78     libcpmt:syserror.obj
 0002:00009a90       ??_C@_0BG@CDNPAGJK@illegal?5byte?5sequence?$AA@ 0000000180083a90     libcpmt:syserror.obj
 0002:00009aa8       ??_C@_0CD@BNPLBMNA@inappropriate?5io?5control?5operati@ 0000000180083aa8     libcpmt:syserror.obj
 0002:00009ad0       ??_C@_0M@EGEKIIMP@interrupted?$AA@ 0000000180083ad0     libcpmt:syserror.obj
 0002:00009ae0       ??_C@_0BB@FCMFBGOM@invalid?5argument?$AA@ 0000000180083ae0     libcpmt:syserror.obj
 0002:00009af8       ??_C@_0N@OHAFKDEK@invalid?5seek?$AA@ 0000000180083af8     libcpmt:syserror.obj
 0002:00009b08       ??_C@_08GLNPIFBN@io?5error?$AA@ 0000000180083b08     libcpmt:syserror.obj
 0002:00009b18       ??_C@_0P@FLLDBIDK@is?5a?5directory?$AA@ 0000000180083b18     libcpmt:syserror.obj
 0002:00009b28       ??_C@_0N@IFLPBIOP@message?5size?$AA@ 0000000180083b28     libcpmt:syserror.obj
 0002:00009b38       ??_C@_0N@KIIEAAIO@network?5down?$AA@ 0000000180083b38     libcpmt:syserror.obj
 0002:00009b48       ??_C@_0O@FNPDBHEE@network?5reset?$AA@ 0000000180083b48     libcpmt:syserror.obj
 0002:00009b58       ??_C@_0BE@IFNCKGE@network?5unreachable?$AA@ 0000000180083b58     libcpmt:syserror.obj
 0002:00009b70       ??_C@_0BA@PFFCAOFK@no?5buffer?5space?$AA@ 0000000180083b70     libcpmt:syserror.obj
 0002:00009b80       ??_C@_0BB@IEPBLJHK@no?5child?5process?$AA@ 0000000180083b80     libcpmt:syserror.obj
 0002:00009b98       ??_C@_07PLECNNKG@no?5link?$AA@ 0000000180083b98     libcpmt:syserror.obj
 0002:00009ba0       ??_C@_0BC@NJECKMKE@no?5lock?5available?$AA@ 0000000180083ba0     libcpmt:syserror.obj
 0002:00009bb8       ??_C@_0BF@PBGGPKKE@no?5message?5available?$AA@ 0000000180083bb8     libcpmt:syserror.obj
 0002:00009bd0       ??_C@_0L@EDOLMPAK@no?5message?$AA@ 0000000180083bd0     libcpmt:syserror.obj
 0002:00009be0       ??_C@_0BD@EAMBFIDF@no?5protocol?5option?$AA@ 0000000180083be0     libcpmt:syserror.obj
 0002:00009bf8       ??_C@_0BD@IJDJKDEA@no?5space?5on?5device?$AA@ 0000000180083bf8     libcpmt:syserror.obj
 0002:00009c10       ??_C@_0BE@MKFDAFMP@no?5stream?5resources?$AA@ 0000000180083c10     libcpmt:syserror.obj
 0002:00009c28       ??_C@_0BK@IMCPHCBI@no?5such?5device?5or?5address?$AA@ 0000000180083c28     libcpmt:syserror.obj
 0002:00009c48       ??_C@_0P@FDINDDOK@no?5such?5device?$AA@ 0000000180083c48     libcpmt:syserror.obj
 0002:00009c58       ??_C@_0BK@NDOCBPGE@no?5such?5file?5or?5directory?$AA@ 0000000180083c58     libcpmt:syserror.obj
 0002:00009c78       ??_C@_0BA@ENLPPKBN@no?5such?5process?$AA@ 0000000180083c78     libcpmt:syserror.obj
 0002:00009c88       ??_C@_0BA@DOCPFFJG@not?5a?5directory?$AA@ 0000000180083c88     libcpmt:syserror.obj
 0002:00009c98       ??_C@_0N@POEIPGGF@not?5a?5socket?$AA@ 0000000180083c98     libcpmt:syserror.obj
 0002:00009ca8       ??_C@_0N@LGAPMMPI@not?5a?5stream?$AA@ 0000000180083ca8     libcpmt:syserror.obj
 0002:00009cb8       ??_C@_0O@GLMIBBEG@not?5connected?$AA@ 0000000180083cb8     libcpmt:syserror.obj
 0002:00009cc8       ??_C@_0BC@ENOOLCNF@not?5enough?5memory?$AA@ 0000000180083cc8     libcpmt:syserror.obj
 0002:00009ce0       ??_C@_0O@NHEDABJP@not?5supported?$AA@ 0000000180083ce0     libcpmt:syserror.obj
 0002:00009cf0       ??_C@_0BD@MOLBPMEA@operation?5canceled?$AA@ 0000000180083cf0     libcpmt:syserror.obj
 0002:00009d08       ??_C@_0BG@KDKHOPCO@operation?5in?5progress?$AA@ 0000000180083d08     libcpmt:syserror.obj
 0002:00009d20       ??_C@_0BI@OHIEJAAB@operation?5not?5permitted?$AA@ 0000000180083d20     libcpmt:syserror.obj
 0002:00009d38       ??_C@_0BI@LNEGIFLN@operation?5not?5supported?$AA@ 0000000180083d38     libcpmt:syserror.obj
 0002:00009d50       ??_C@_0BG@OEMDKMEE@operation?5would?5block?$AA@ 0000000180083d50     libcpmt:syserror.obj
 0002:00009d68       ??_C@_0L@BLPOFLNJ@owner?5dead?$AA@ 0000000180083d68     libcpmt:syserror.obj
 0002:00009d78       ??_C@_0BC@CIJDGCDI@permission?5denied?$AA@ 0000000180083d78     libcpmt:syserror.obj
 0002:00009d90       ??_C@_0P@FNPOCJBE@protocol?5error?$AA@ 0000000180083d90     libcpmt:syserror.obj
 0002:00009da0       ??_C@_0BH@JPPPLHJB@protocol?5not?5supported?$AA@ 0000000180083da0     libcpmt:syserror.obj
 0002:00009db8       ??_C@_0BG@EICBIHDP@read?5only?5file?5system?$AA@ 0000000180083db8     libcpmt:syserror.obj
 0002:00009dd0       ??_C@_0BO@BJBOMOEJ@resource?5deadlock?5would?5occur?$AA@ 0000000180083dd0     libcpmt:syserror.obj
 0002:00009df0       ??_C@_0BP@LKNGHENJ@resource?5unavailable?5try?5again?$AA@ 0000000180083df0     libcpmt:syserror.obj
 0002:00009e10       ??_C@_0BE@GOIPJJHG@result?5out?5of?5range?$AA@ 0000000180083e10     libcpmt:syserror.obj
 0002:00009e28       ??_C@_0BG@MPLKFPAE@state?5not?5recoverable?$AA@ 0000000180083e28     libcpmt:syserror.obj
 0002:00009e40       ??_C@_0P@DIIFGFCG@stream?5timeout?$AA@ 0000000180083e40     libcpmt:syserror.obj
 0002:00009e50       ??_C@_0P@IPFDMIFL@text?5file?5busy?$AA@ 0000000180083e50     libcpmt:syserror.obj
 0002:00009e60       ??_C@_09KJPPMAOI@timed?5out?$AA@ 0000000180083e60     libcpmt:syserror.obj
 0002:00009e70       ??_C@_0BO@HACHBEKI@too?5many?5files?5open?5in?5system?$AA@ 0000000180083e70     libcpmt:syserror.obj
 0002:00009e90       ??_C@_0BE@GHAFMPAH@too?5many?5files?5open?$AA@ 0000000180083e90     libcpmt:syserror.obj
 0002:00009ea8       ??_C@_0P@HCOMKFCC@too?5many?5links?$AA@ 0000000180083ea8     libcpmt:syserror.obj
 0002:00009eb8       ??_C@_0BO@EFGOJEF@too?5many?5symbolic?5link?5levels?$AA@ 0000000180083eb8     libcpmt:syserror.obj
 0002:00009ed8       ??_C@_0BA@KGKGOOJA@value?5too?5large?$AA@ 0000000180083ed8     libcpmt:syserror.obj
 0002:00009ee8       ??_C@_0BE@MIEJDDNH@wrong?5protocol?5type?$AA@ 0000000180083ee8     libcpmt:syserror.obj
 0002:00009f00       ??_C@_0O@BFJCFAAK@unknown?5error?$AA@ 0000000180083f00     libcpmt:syserror.obj
 0002:00009f10       ?_BADOFF@std@@3_JB         0000000180083f10     libcpmt:ios.obj
 0002:00009f68       ??_C@_1BK@MGMFAEKH@?$AAk?$AAe?$AAr?$AAn?$AAe?$AAl?$AA3?$AA2?$AA?4?$AAd?$AAl?$AAl?$AA?$AA@ 0000000180083f68     libcpmt:winapisupp.obj
 0002:00009f88       ??_C@_08KNHFBNJ@FlsAlloc?$AA@ 0000000180083f88     libcpmt:winapisupp.obj
 0002:00009f98       ??_C@_07PEJMOBNF@FlsFree?$AA@ 0000000180083f98     libcpmt:winapisupp.obj
 0002:00009fa0       ??_C@_0M@GDNOONDI@FlsGetValue?$AA@ 0000000180083fa0     libcpmt:winapisupp.obj
 0002:00009fb0       ??_C@_0M@JCPCPOEF@FlsSetValue?$AA@ 0000000180083fb0     libcpmt:winapisupp.obj
 0002:00009fc0       ??_C@_0BM@HCFOFFN@InitializeCriticalSectionEx?$AA@ 0000000180083fc0     libcpmt:winapisupp.obj
 0002:00009fe0       ??_C@_0BE@GPLMMCMH@InitOnceExecuteOnce?$AA@ 0000000180083fe0     libcpmt:winapisupp.obj
 0002:00009ff8       ??_C@_0P@DLHPPCNH@CreateEventExW?$AA@ 0000000180083ff8     libcpmt:winapisupp.obj
 0002:0000a008       ??_C@_0BB@MEFPJLHN@CreateSemaphoreW?$AA@ 0000000180084008     libcpmt:winapisupp.obj
 0002:0000a020       ??_C@_0BD@KIEEOEEH@CreateSemaphoreExW?$AA@ 0000000180084020     libcpmt:winapisupp.obj
 0002:0000a038       ??_C@_0BG@OGFAJCKC@CreateThreadpoolTimer?$AA@ 0000000180084038     libcpmt:winapisupp.obj
 0002:0000a050       ??_C@_0BD@LPLEMMDI@SetThreadpoolTimer?$AA@ 0000000180084050     libcpmt:winapisupp.obj
 0002:0000a068       ??_C@_0CA@FMNJENH@WaitForThreadpoolTimerCallbacks?$AA@ 0000000180084068     libcpmt:winapisupp.obj
 0002:0000a088       ??_C@_0BF@DCFCCNOC@CloseThreadpoolTimer?$AA@ 0000000180084088     libcpmt:winapisupp.obj
 0002:0000a0a0       ??_C@_0BF@FLABGKKM@CreateThreadpoolWait?$AA@ 00000001800840a0     libcpmt:winapisupp.obj
 0002:0000a0b8       ??_C@_0BC@MGCOHNA@SetThreadpoolWait?$AA@ 00000001800840b8     libcpmt:winapisupp.obj
 0002:0000a0d0       ??_C@_0BE@OCIOMIMP@CloseThreadpoolWait?$AA@ 00000001800840d0     libcpmt:winapisupp.obj
 0002:0000a0e8       ??_C@_0BJ@LKGHFHBO@FlushProcessWriteBuffers?$AA@ 00000001800840e8     libcpmt:winapisupp.obj
 0002:0000a108       ??_C@_0BP@KALKKPMO@FreeLibraryWhenCallbackReturns?$AA@ 0000000180084108     libcpmt:winapisupp.obj
 0002:0000a128       ??_C@_0BK@DFNBACLA@GetCurrentProcessorNumber?$AA@ 0000000180084128     libcpmt:winapisupp.obj
 0002:0000a148       ??_C@_0BE@FKKLLFLM@CreateSymbolicLinkW?$AA@ 0000000180084148     libcpmt:winapisupp.obj
 0002:0000a160       ??_C@_0BE@JOGNEJCI@GetCurrentPackageId?$AA@ 0000000180084160     libcpmt:winapisupp.obj
 0002:0000a178       ??_C@_0BN@NEEHBBPO@GetFileInformationByHandleEx?$AA@ 0000000180084178     libcpmt:winapisupp.obj
 0002:0000a198       ??_C@_0BL@KBBHGKCM@SetFileInformationByHandle?$AA@ 0000000180084198     libcpmt:winapisupp.obj
 0002:0000a1b8       ??_C@_0BP@FPNJPEJC@GetSystemTimePreciseAsFileTime?$AA@ 00000001800841b8     libcpmt:winapisupp.obj
 0002:0000a1d8       ??_C@_0BM@HLJJNPAH@InitializeConditionVariable?$AA@ 00000001800841d8     libcpmt:winapisupp.obj
 0002:0000a1f8       ??_C@_0BG@BFNILBLN@WakeConditionVariable?$AA@ 00000001800841f8     libcpmt:winapisupp.obj
 0002:0000a210       ??_C@_0BJ@PGPPEPCC@WakeAllConditionVariable?$AA@ 0000000180084210     libcpmt:winapisupp.obj
 0002:0000a230       ??_C@_0BJ@JEBJOJFJ@SleepConditionVariableCS?$AA@ 0000000180084230     libcpmt:winapisupp.obj
 0002:0000a250       ??_C@_0BC@MMLHEBPB@InitializeSRWLock?$AA@ 0000000180084250     libcpmt:winapisupp.obj
 0002:0000a268       ??_C@_0BI@OMNLIJDB@AcquireSRWLockExclusive?$AA@ 0000000180084268     libcpmt:winapisupp.obj
 0002:0000a280       ??_C@_0BL@OGHFEMNA@TryAcquireSRWLockExclusive?$AA@ 0000000180084280     libcpmt:winapisupp.obj
 0002:0000a2a0       ??_C@_0BI@HMIEPCNJ@ReleaseSRWLockExclusive?$AA@ 00000001800842a0     libcpmt:winapisupp.obj
 0002:0000a2b8       ??_C@_0BK@LGACAGIC@SleepConditionVariableSRW?$AA@ 00000001800842b8     libcpmt:winapisupp.obj
 0002:0000a2d8       ??_C@_0BF@GGPHFPJA@CreateThreadpoolWork?$AA@ 00000001800842d8     libcpmt:winapisupp.obj
 0002:0000a2f0       ??_C@_0BF@NHDAIMMO@SubmitThreadpoolWork?$AA@ 00000001800842f0     libcpmt:winapisupp.obj
 0002:0000a308       ??_C@_0BE@NPHIPNPD@CloseThreadpoolWork?$AA@ 0000000180084308     libcpmt:winapisupp.obj
 0002:0000a320       ??_C@_0BA@IHGNDAEB@CompareStringEx?$AA@ 0000000180084320     libcpmt:winapisupp.obj
 0002:0000a330       ??_C@_0BA@ONOKGCMP@GetLocaleInfoEx?$AA@ 0000000180084330     libcpmt:winapisupp.obj
 0002:0000a340       ??_C@_0O@KKBNKAPF@LCMapStringEx?$AA@ 0000000180084340     libcpmt:winapisupp.obj
 0002:0000a350       ??_C@_1M@JKFFICHJ@?$AAe?$AAs?$AA?9?$AAv?$AAe?$AA?$AA@ 0000000180084350     libcpmt:winapinls.obj
 0002:0000a360       ??_C@_1M@PNMLOJDF@?$AAe?$AAt?$AA?9?$AAe?$AAe?$AA?$AA@ 0000000180084360     libcpmt:winapinls.obj
 0002:0000a370       ??_C@_1M@GHHLIKEI@?$AAe?$AAu?$AA?9?$AAe?$AAs?$AA?$AA@ 0000000180084370     libcpmt:winapinls.obj
 0002:0000a380       ??_C@_1M@PBNONODE@?$AAf?$AAa?$AA?9?$AAi?$AAr?$AA?$AA@ 0000000180084380     libcpmt:winapinls.obj
 0002:0000a390       ??_C@_1M@JEEHPMIL@?$AAf?$AAi?$AA?9?$AAf?$AAi?$AA?$AA@ 0000000180084390     libcpmt:winapinls.obj
 0002:0000a3a0       ??_C@_1M@LMDCNDBA@?$AAf?$AAo?$AA?9?$AAf?$AAo?$AA?$AA@ 00000001800843a0     libcpmt:winapinls.obj
 0002:0000a3b0       ??_C@_1M@JKEOHLDK@?$AAf?$AAr?$AA?9?$AAb?$AAe?$AA?$AA@ 00000001800843b0     libcpmt:winapinls.obj
 0002:0000a3c0       ??_C@_1M@NOHADPMI@?$AAf?$AAr?$AA?9?$AAc?$AAa?$AA?$AA@ 00000001800843c0     libcpmt:winapinls.obj
 0002:0000a3d0       ??_C@_1M@KDHIHAEC@?$AAf?$AAr?$AA?9?$AAc?$AAh?$AA?$AA@ 00000001800843d0     libcpmt:winapinls.obj
 0002:0000a3e0       ??_C@_1M@MMBBFGAK@?$AAf?$AAr?$AA?9?$AAf?$AAr?$AA?$AA@ 00000001800843e0     libcpmt:winapinls.obj
 0002:0000a3f0       ??_C@_1M@PAFNENNF@?$AAf?$AAr?$AA?9?$AAl?$AAu?$AA?$AA@ 00000001800843f0     libcpmt:winapinls.obj
 0002:0000a400       ??_C@_1M@EOHDJGDD@?$AAf?$AAr?$AA?9?$AAm?$AAc?$AA?$AA@ 0000000180084400     libcpmt:winapinls.obj
 0002:0000a410       ??_C@_1M@FAPLLOPF@?$AAg?$AAl?$AA?9?$AAe?$AAs?$AA?$AA@ 0000000180084410     libcpmt:winapinls.obj
 0002:0000a420       ??_C@_1M@FOPBFLOO@?$AAg?$AAu?$AA?9?$AAi?$AAn?$AA?$AA@ 0000000180084420     libcpmt:winapinls.obj
 0002:0000a430       ??_C@_1M@KBMCINPM@?$AAh?$AAe?$AA?9?$AAi?$AAl?$AA?$AA@ 0000000180084430     libcpmt:winapinls.obj
 0002:0000a440       ??_C@_1M@BBPHKFPJ@?$AAh?$AAi?$AA?9?$AAi?$AAn?$AA?$AA@ 0000000180084440     libcpmt:winapinls.obj
 0002:0000a450       ??_C@_1M@PMBNDPHD@?$AAh?$AAr?$AA?9?$AAb?$AAa?$AA?$AA@ 0000000180084450     libcpmt:winapinls.obj
 0002:0000a460       ??_C@_1M@BPCKOEGE@?$AAh?$AAr?$AA?9?$AAh?$AAr?$AA?$AA@ 0000000180084460     libcpmt:winapinls.obj
 0002:0000a470       ??_C@_1M@GACBMHKE@?$AAh?$AAu?$AA?9?$AAh?$AAu?$AA?$AA@ 0000000180084470     libcpmt:winapinls.obj
 0002:0000a480       ??_C@_1M@MILPAJJC@?$AAh?$AAy?$AA?9?$AAa?$AAm?$AA?$AA@ 0000000180084480     libcpmt:winapinls.obj
 0002:0000a490       ??_C@_1M@BABBICEC@?$AAi?$AAd?$AA?9?$AAi?$AAd?$AA?$AA@ 0000000180084490     libcpmt:winapinls.obj
 0002:0000a4a0       ??_C@_1M@BIKNHHPF@?$AAi?$AAs?$AA?9?$AAi?$AAs?$AA?$AA@ 00000001800844a0     libcpmt:winapinls.obj
 0002:0000a4b0       ??_C@_1M@NMPCJPHE@?$AAi?$AAt?$AA?9?$AAc?$AAh?$AA?$AA@ 00000001800844b0     libcpmt:winapinls.obj
 0002:0000a4c0       ??_C@_1M@GHKGFEDF@?$AAi?$AAt?$AA?9?$AAi?$AAt?$AA?$AA@ 00000001800844c0     libcpmt:winapinls.obj
 0002:0000a4d0       ??_C@_1M@NIEJCJJA@?$AAj?$AAa?$AA?9?$AAj?$AAp?$AA?$AA@ 00000001800844d0     libcpmt:winapinls.obj
 0002:0000a4e0       ??_C@_1M@JILFNBIM@?$AAk?$AAa?$AA?9?$AAg?$AAe?$AA?$AA@ 00000001800844e0     libcpmt:winapinls.obj
 0002:0000a4f0       ??_C@_1M@PACPMGPH@?$AAk?$AAk?$AA?9?$AAk?$AAz?$AA?$AA@ 00000001800844f0     libcpmt:winapinls.obj
 0002:0000a500       ??_C@_1M@IELFGMHA@?$AAk?$AAn?$AA?9?$AAi?$AAn?$AA?$AA@ 0000000180084500     libcpmt:winapinls.obj
 0002:0000a510       ??_C@_1M@DMHAEOGC@?$AAk?$AAo?$AA?9?$AAk?$AAr?$AA?$AA@ 0000000180084510     libcpmt:winapinls.obj
 0002:0000a520       ??_C@_1O@IBBJHCH@?$AAk?$AAo?$AAk?$AA?9?$AAi?$AAn?$AA?$AA@ 0000000180084520     libcpmt:winapinls.obj
 0002:0000a530       ??_C@_1M@HBAHBIGA@?$AAk?$AAy?$AA?9?$AAk?$AAg?$AA?$AA@ 0000000180084530     libcpmt:winapinls.obj
 0002:0000a540       ??_C@_1M@KPMILCJG@?$AAl?$AAt?$AA?9?$AAl?$AAt?$AA?$AA@ 0000000180084540     libcpmt:winapinls.obj
 0002:0000a550       ??_C@_1M@BDEKKCA@?$AAl?$AAv?$AA?9?$AAl?$AAv?$AA?$AA@ 0000000180084550     libcpmt:winapinls.obj
 0002:0000a560       ??_C@_1M@ELCKCCJJ@?$AAm?$AAi?$AA?9?$AAn?$AAz?$AA?$AA@ 0000000180084560     libcpmt:winapinls.obj
 0002:0000a570       ??_C@_1M@CBOOLAPA@?$AAm?$AAk?$AA?9?$AAm?$AAk?$AA?$AA@ 0000000180084570     libcpmt:winapinls.obj
 0002:0000a580       ??_C@_1M@GPHNBJKN@?$AAm?$AAl?$AA?9?$AAi?$AAn?$AA?$AA@ 0000000180084580     libcpmt:winapinls.obj
 0002:0000a590       ??_C@_1M@PABJILIG@?$AAm?$AAn?$AA?9?$AAm?$AAn?$AA?$AA@ 0000000180084590     libcpmt:winapinls.obj
 0002:0000a5a0       ??_C@_1M@FGBKKIPG@?$AAm?$AAr?$AA?9?$AAi?$AAn?$AA?$AA@ 00000001800845a0     libcpmt:winapinls.obj
 0002:0000a5b0       ??_C@_1M@NDBPDDAL@?$AAm?$AAs?$AA?9?$AAb?$AAn?$AA?$AA@ 00000001800845b0     libcpmt:winapinls.obj
 0002:0000a5c0       ??_C@_1M@OPIHOOPI@?$AAm?$AAs?$AA?9?$AAm?$AAy?$AA?$AA@ 00000001800845c0     libcpmt:winapinls.obj
 0002:0000a5d0       ??_C@_1M@PPDBCNFM@?$AAm?$AAt?$AA?9?$AAm?$AAt?$AA?$AA@ 00000001800845d0     libcpmt:winapinls.obj
 0002:0000a5e0       ??_C@_1M@KDJDKMDD@?$AAn?$AAb?$AA?9?$AAn?$AAo?$AA?$AA@ 00000001800845e0     libcpmt:winapinls.obj
 0002:0000a5f0       ??_C@_1M@KFCFLMJP@?$AAn?$AAl?$AA?9?$AAb?$AAe?$AA?$AA@ 00000001800845f0     libcpmt:winapinls.obj
 0002:0000a600       ??_C@_1M@KPOPDDGO@?$AAn?$AAl?$AA?9?$AAn?$AAl?$AA?$AA@ 0000000180084600     libcpmt:winapinls.obj
 0002:0000a610       ??_C@_1M@LJKPEMLN@?$AAn?$AAn?$AA?9?$AAn?$AAo?$AA?$AA@ 0000000180084610     libcpmt:winapinls.obj
 0002:0000a620       ??_C@_1M@BDGHHBFL@?$AAn?$AAs?$AA?9?$AAz?$AAa?$AA?$AA@ 0000000180084620     libcpmt:winapinls.obj
 0002:0000a630       ??_C@_1M@IDEHOAP@?$AAp?$AAa?$AA?9?$AAi?$AAn?$AA?$AA@ 0000000180084630     libcpmt:winapinls.obj
 0002:0000a640       ??_C@_1M@HDBKGOGH@?$AAp?$AAl?$AA?9?$AAp?$AAl?$AA?$AA@ 0000000180084640     libcpmt:winapinls.obj
 0002:0000a650       ??_C@_1M@LJLLCMEH@?$AAp?$AAt?$AA?9?$AAb?$AAr?$AA?$AA@ 0000000180084650     libcpmt:winapinls.obj
 0002:0000a660       ??_C@_1M@NCMONAAL@?$AAp?$AAt?$AA?9?$AAp?$AAt?$AA?$AA@ 0000000180084660     libcpmt:winapinls.obj
 0002:0000a670       ??_C@_1O@EAKMAJDN@?$AAq?$AAu?$AAz?$AA?9?$AAb?$AAo?$AA?$AA@ 0000000180084670     libcpmt:winapinls.obj
 0002:0000a680       ??_C@_1O@BHHPIGDN@?$AAq?$AAu?$AAz?$AA?9?$AAe?$AAc?$AA?$AA@ 0000000180084680     libcpmt:winapinls.obj
 0002:0000a690       ??_C@_1O@GBAPEKMJ@?$AAq?$AAu?$AAz?$AA?9?$AAp?$AAe?$AA?$AA@ 0000000180084690     libcpmt:winapinls.obj
 0002:0000a6a0       ??_C@_1M@CLGLEFBO@?$AAr?$AAo?$AA?9?$AAr?$AAo?$AA?$AA@ 00000001800846a0     libcpmt:winapinls.obj
 0002:0000a6b0       ??_C@_1M@CEEDODME@?$AAr?$AAu?$AA?9?$AAr?$AAu?$AA?$AA@ 00000001800846b0     libcpmt:winapinls.obj
 0002:0000a6c0       ??_C@_1M@HPKKKMPP@?$AAs?$AAa?$AA?9?$AAi?$AAn?$AA?$AA@ 00000001800846c0     libcpmt:winapinls.obj
 0002:0000a6d0       ??_C@_1M@BKMAIGOJ@?$AAs?$AAe?$AA?9?$AAf?$AAi?$AA?$AA@ 00000001800846d0     libcpmt:winapinls.obj
 0002:0000a6e0       ??_C@_1M@NDPIFLFI@?$AAs?$AAe?$AA?9?$AAn?$AAo?$AA?$AA@ 00000001800846e0     libcpmt:winapinls.obj
 0002:0000a6f0       ??_C@_1M@DANKKHJ@?$AAs?$AAe?$AA?9?$AAs?$AAe?$AA?$AA@ 00000001800846f0     libcpmt:winapinls.obj
 0002:0000a700       ??_C@_1M@PNBLONPJ@?$AAs?$AAk?$AA?9?$AAs?$AAk?$AA?$AA@ 0000000180084700     libcpmt:winapinls.obj
 0002:0000a710       ??_C@_1M@LFMODOAL@?$AAs?$AAl?$AA?9?$AAs?$AAi?$AA?$AA@ 0000000180084710     libcpmt:winapinls.obj
 0002:0000a720       ??_C@_1O@DFKOMPG@?$AAs?$AAm?$AAa?$AA?9?$AAn?$AAo?$AA?$AA@ 0000000180084720     libcpmt:winapinls.obj
 0002:0000a730       ??_C@_1O@NDKPBNNH@?$AAs?$AAm?$AAa?$AA?9?$AAs?$AAe?$AA?$AA@ 0000000180084730     libcpmt:winapinls.obj
 0002:0000a740       ??_C@_1O@PLLKBHAB@?$AAs?$AAm?$AAj?$AA?9?$AAn?$AAo?$AA?$AA@ 0000000180084740     libcpmt:winapinls.obj
 0002:0000a750       ??_C@_1O@CLEPOGCA@?$AAs?$AAm?$AAj?$AA?9?$AAs?$AAe?$AA?$AA@ 0000000180084750     libcpmt:winapinls.obj
 0002:0000a760       ??_C@_1O@DLGJGKMK@?$AAs?$AAm?$AAn?$AA?9?$AAf?$AAi?$AA?$AA@ 0000000180084760     libcpmt:winapinls.obj
 0002:0000a770       ??_C@_1O@OJDJGAJC@?$AAs?$AAm?$AAs?$AA?9?$AAf?$AAi?$AA?$AA@ 0000000180084770     libcpmt:winapinls.obj
 0002:0000a780       ??_C@_1M@BOFOGHPB@?$AAs?$AAq?$AA?9?$AAa?$AAl?$AA?$AA@ 0000000180084780     libcpmt:winapinls.obj
 0002:0000a790       ??_C@_1BG@LJBBIPGB@?$AAs?$AAr?$AA?9?$AAb?$AAa?$AA?9?$AAc?$AAy?$AAr?$AAl?$AA?$AA@ 0000000180084790     libcpmt:winapinls.obj
 0002:0000a7a8       ??_C@_1BG@JLBENFOE@?$AAs?$AAr?$AA?9?$AAb?$AAa?$AA?9?$AAl?$AAa?$AAt?$AAn?$AA?$AA@ 00000001800847a8     libcpmt:winapinls.obj
 0002:0000a7c0       ??_C@_1BG@KODPNHE@?$AAs?$AAr?$AA?9?$AAs?$AAp?$AA?9?$AAc?$AAy?$AAr?$AAl?$AA?$AA@ 00000001800847c0     libcpmt:winapinls.obj
 0002:0000a7d8       ??_C@_1BG@CIOGKHPB@?$AAs?$AAr?$AA?9?$AAs?$AAp?$AA?9?$AAl?$AAa?$AAt?$AAn?$AA?$AA@ 00000001800847d8     libcpmt:winapinls.obj
 0002:0000a7f0       ??_C@_1M@NGFJLMAC@?$AAs?$AAv?$AA?9?$AAf?$AAi?$AA?$AA@ 00000001800847f0     libcpmt:winapinls.obj
 0002:0000a800       ??_C@_1M@MPJEJAJC@?$AAs?$AAv?$AA?9?$AAs?$AAe?$AA?$AA@ 0000000180084800     libcpmt:winapinls.obj
 0002:0000a810       ??_C@_1M@MPNDHLFK@?$AAs?$AAw?$AA?9?$AAk?$AAe?$AA?$AA@ 0000000180084810     libcpmt:winapinls.obj
 0002:0000a820       ??_C@_1O@KOHBJJI@?$AAs?$AAy?$AAr?$AA?9?$AAs?$AAy?$AA?$AA@ 0000000180084820     libcpmt:winapinls.obj
 0002:0000a830       ??_C@_1M@LDCEFHA@?$AAt?$AAa?$AA?9?$AAi?$AAn?$AA?$AA@ 0000000180084830     libcpmt:winapinls.obj
 0002:0000a840       ??_C@_1M@CNJOFAK@?$AAt?$AAe?$AA?9?$AAi?$AAn?$AA?$AA@ 0000000180084840     libcpmt:winapinls.obj
 0002:0000a850       ??_C@_1M@GNAECACD@?$AAt?$AAh?$AA?9?$AAt?$AAh?$AA?$AA@ 0000000180084850     libcpmt:winapinls.obj
 0002:0000a860       ??_C@_1M@CHBIHOJO@?$AAt?$AAn?$AA?9?$AAz?$AAa?$AA?$AA@ 0000000180084860     libcpmt:winapinls.obj
 0002:0000a870       ??_C@_1M@GCCMIGPJ@?$AAt?$AAr?$AA?9?$AAt?$AAr?$AA?$AA@ 0000000180084870     libcpmt:winapinls.obj
 0002:0000a880       ??_C@_1M@CELMCNBK@?$AAt?$AAt?$AA?9?$AAr?$AAu?$AA?$AA@ 0000000180084880     libcpmt:winapinls.obj
 0002:0000a890       ??_C@_1M@KLMCELGA@?$AAu?$AAk?$AA?9?$AAu?$AAa?$AA?$AA@ 0000000180084890     libcpmt:winapinls.obj
 0002:0000a8a0       ??_C@_1M@EPAJJAJF@?$AAu?$AAr?$AA?9?$AAp?$AAk?$AA?$AA@ 00000001800848a0     libcpmt:winapinls.obj
 0002:0000a8b0       ??_C@_1BG@GEGPMCDJ@?$AAu?$AAz?$AA?9?$AAu?$AAz?$AA?9?$AAc?$AAy?$AAr?$AAl?$AA?$AA@ 00000001800848b0     libcpmt:winapinls.obj
 0002:0000a8c8       ??_C@_1BG@EGGKJILM@?$AAu?$AAz?$AA?9?$AAu?$AAz?$AA?9?$AAl?$AAa?$AAt?$AAn?$AA?$AA@ 00000001800848c8     libcpmt:winapinls.obj
 0002:0000a8e0       ??_C@_1M@GFOCLFF@?$AAv?$AAi?$AA?9?$AAv?$AAn?$AA?$AA@ 00000001800848e0     libcpmt:winapinls.obj
 0002:0000a8f0       ??_C@_1M@CPAMEDFI@?$AAx?$AAh?$AA?9?$AAz?$AAa?$AA?$AA@ 00000001800848f0     libcpmt:winapinls.obj
 0002:0000a900       ??_C@_1O@EBKIFIGN@?$AAz?$AAh?$AA?9?$AAc?$AAh?$AAs?$AA?$AA@ 0000000180084900     libcpmt:winapinls.obj
 0002:0000a910       ??_C@_1O@NMHPGANE@?$AAz?$AAh?$AA?9?$AAc?$AAh?$AAt?$AA?$AA@ 0000000180084910     libcpmt:winapinls.obj
 0002:0000a920       ??_C@_1M@LPINJOMC@?$AAz?$AAh?$AA?9?$AAc?$AAn?$AA?$AA@ 0000000180084920     libcpmt:winapinls.obj
 0002:0000a930       ??_C@_1M@OCJEJODD@?$AAz?$AAh?$AA?9?$AAh?$AAk?$AA?$AA@ 0000000180084930     libcpmt:winapinls.obj
 0002:0000a940       ??_C@_1M@DNDLJINH@?$AAz?$AAh?$AA?9?$AAm?$AAo?$AA?$AA@ 0000000180084940     libcpmt:winapinls.obj
 0002:0000a950       ??_C@_1M@MBFDNDND@?$AAz?$AAh?$AA?9?$AAs?$AAg?$AA?$AA@ 0000000180084950     libcpmt:winapinls.obj
 0002:0000a960       ??_C@_1M@IMEPLEPE@?$AAz?$AAh?$AA?9?$AAt?$AAw?$AA?$AA@ 0000000180084960     libcpmt:winapinls.obj
 0002:0000a970       ??_C@_1M@BBGHNHJP@?$AAz?$AAu?$AA?9?$AAz?$AAa?$AA?$AA@ 0000000180084970     libcpmt:winapinls.obj
 0002:0000c600       ??_C@_15EMKDOKLE@?$AAa?$AAr?$AA?$AA@ 0000000180086600     libcpmt:winapinls.obj
 0002:0000c608       ??_C@_15KNPADPLH@?$AAb?$AAg?$AA?$AA@ 0000000180086608     libcpmt:winapinls.obj
 0002:0000c610       ??_C@_15EDMHLDMO@?$AAc?$AAa?$AA?$AA@ 0000000180086610     libcpmt:winapinls.obj
 0002:0000c618       ??_C@_1O@BPEAJADD@?$AAz?$AAh?$AA?9?$AAC?$AAH?$AAS?$AA?$AA@ 0000000180086618     libcpmt:winapinls.obj
 0002:0000c628       ??_C@_15LJNHCMNK@?$AAc?$AAs?$AA?$AA@ 0000000180086628     libcpmt:winapinls.obj
 0002:0000c630       ??_C@_15FOMCIDHG@?$AAd?$AAa?$AA?$AA@ 0000000180086630     libcpmt:winapinls.obj
 0002:0000c638       ??_C@_15NBKABECB@?$AAd?$AAe?$AA?$AA@ 0000000180086638     libcpmt:winapinls.obj
 0002:0000c640       ??_C@_15GHPEIIAO@?$AAe?$AAl?$AA?$AA@ 0000000180086640     libcpmt:winapinls.obj
 0002:0000c648       ??_C@_15MNPNEAIF@?$AAe?$AAn?$AA?$AA@ 0000000180086648     libcpmt:winapinls.obj
 0002:0000c650       ??_C@_15GPIOMPMH@?$AAe?$AAs?$AA?$AA@ 0000000180086650     libcpmt:winapinls.obj
 0002:0000c658       ??_C@_15NGLOAKJC@?$AAf?$AAi?$AA?$AA@ 0000000180086658     libcpmt:winapinls.obj
 0002:0000c660       ??_C@_15FBKGNKAM@?$AAf?$AAr?$AA?$AA@ 0000000180086660     libcpmt:winapinls.obj
 0002:0000c668       ??_C@_15KGGCNEFK@?$AAh?$AAe?$AA?$AA@ 0000000180086668     libcpmt:winapinls.obj
 0002:0000c670       ??_C@_15PGHLIDMF@?$AAh?$AAu?$AA?$AA@ 0000000180086670     libcpmt:winapinls.obj
 0002:0000c678       ??_C@_15BIEMAPLM@?$AAi?$AAs?$AA?$AA@ 0000000180086678     libcpmt:winapinls.obj
 0002:0000c680       ??_C@_15IFJLDHAF@?$AAi?$AAt?$AA?$AA@ 0000000180086680     libcpmt:winapinls.obj
 0002:0000c688       ??_C@_15GEMIOCAG@?$AAj?$AAa?$AA?$AA@ 0000000180086688     libcpmt:winapinls.obj
 0002:0000c690       ??_C@_15EPELEGJA@?$AAk?$AAo?$AA?$AA@ 0000000180086690     libcpmt:winapinls.obj
 0002:0000c698       ??_C@_15NDDHIMN@?$AAn?$AAl?$AA?$AA@ 0000000180086698     libcpmt:winapinls.obj
 0002:0000c6a0       ??_C@_15BPIGNHCD@?$AAn?$AAo?$AA?$AA@ 00000001800866a0     libcpmt:winapinls.obj
 0002:0000c6a8       ??_C@_15DEOPBLCG@?$AAp?$AAl?$AA?$AA@ 00000001800866a8     libcpmt:winapinls.obj
 0002:0000c6b0       ??_C@_15KBECGEFG@?$AAp?$AAt?$AA?$AA@ 00000001800866b0     libcpmt:winapinls.obj
 0002:0000c6b8       ??_C@_15GLJCBFMD@?$AAr?$AAo?$AA?$AA@ 00000001800866b8     libcpmt:winapinls.obj
 0002:0000c6c0       ??_C@_15FEDGKCDI@?$AAr?$AAu?$AA?$AA@ 00000001800866c0     libcpmt:winapinls.obj
 0002:0000c6c8       ??_C@_15GLKMLLHM@?$AAh?$AAr?$AA?$AA@ 00000001800866c8     libcpmt:winapinls.obj
 0002:0000c6d0       ??_C@_15CPKMFBDB@?$AAs?$AAk?$AA?$AA@ 00000001800866d0     libcpmt:winapinls.obj
 0002:0000c6d8       ??_C@_15BAAIOGMK@?$AAs?$AAq?$AA?$AA@ 00000001800866d8     libcpmt:winapinls.obj
 0002:0000c6e0       ??_C@_15INNPNOHD@?$AAs?$AAv?$AA?$AA@ 00000001800866e0     libcpmt:winapinls.obj
 0002:0000c6e8       ??_C@_15CABMMOGH@?$AAt?$AAh?$AA?$AA@ 00000001800866e8     libcpmt:winapinls.obj
 0002:0000c6f0       ??_C@_15BPLIHJJM@?$AAt?$AAr?$AA?$AA@ 00000001800866f0     libcpmt:winapinls.obj
 0002:0000c6f8       ??_C@_15NEOEKKDJ@?$AAu?$AAr?$AA?$AA@ 00000001800866f8     libcpmt:winapinls.obj
 0002:0000c700       ??_C@_15NFICGAJK@?$AAi?$AAd?$AA?$AA@ 0000000180086700     libcpmt:winapinls.obj
 0002:0000c708       ??_C@_15PJPFLCCM@?$AAu?$AAk?$AA?$AA@ 0000000180086708     libcpmt:winapinls.obj
 0002:0000c710       ??_C@_15HPJPHDM@?$AAb?$AAe?$AA?$AA@ 0000000180086710     libcpmt:winapinls.obj
 0002:0000c718       ??_C@_15LCHLGJII@?$AAs?$AAl?$AA?$AA@ 0000000180086718     libcpmt:winapinls.obj
 0002:0000c720       ??_C@_15PCFJPHHO@?$AAe?$AAt?$AA?$AA@ 0000000180086720     libcpmt:winapinls.obj
 0002:0000c728       ??_C@_15HPFPGODN@?$AAl?$AAv?$AA?$AA@ 0000000180086728     libcpmt:winapinls.obj
 0002:0000c730       ??_C@_15NFFGKGLG@?$AAl?$AAt?$AA?$AA@ 0000000180086730     libcpmt:winapinls.obj
 0002:0000c738       ??_C@_15BDAKCCHN@?$AAf?$AAa?$AA?$AA@ 0000000180086738     libcpmt:winapinls.obj
 0002:0000c740       ??_C@_15NFGIAIAJ@?$AAv?$AAi?$AA?$AA@ 0000000180086740     libcpmt:winapinls.obj
 0002:0000c748       ??_C@_15LMKNDMHN@?$AAh?$AAy?$AA?$AA@ 0000000180086748     libcpmt:winapinls.obj
 0002:0000c750       ??_C@_15IJBHMCFL@?$AAa?$AAz?$AA?$AA@ 0000000180086750     libcpmt:winapinls.obj
 0002:0000c758       ??_C@_15EKOFJABL@?$AAe?$AAu?$AA?$AA@ 0000000180086758     libcpmt:winapinls.obj
 0002:0000c760       ??_C@_15BGHADCNK@?$AAm?$AAk?$AA?$AA@ 0000000180086760     libcpmt:winapinls.obj
 0002:0000c768       ??_C@_15JDNICKHM@?$AAa?$AAf?$AA?$AA@ 0000000180086768     libcpmt:winapinls.obj
 0002:0000c770       ??_C@_15KPJEDBKD@?$AAk?$AAa?$AA?$AA@ 0000000180086770     libcpmt:winapinls.obj
 0002:0000c778       ??_C@_15PDNFFFEO@?$AAf?$AAo?$AA?$AA@ 0000000180086778     libcpmt:winapinls.obj
 0002:0000c780       ??_C@_15OMLEGLOC@?$AAh?$AAi?$AA?$AA@ 0000000180086780     libcpmt:winapinls.obj
 0002:0000c788       ??_C@_15IDNNENKK@?$AAm?$AAs?$AA?$AA@ 0000000180086788     libcpmt:winapinls.obj
 0002:0000c790       ??_C@_15MACJNBMH@?$AAk?$AAk?$AA?$AA@ 0000000180086790     libcpmt:winapinls.obj
 0002:0000c798       ??_C@_15DKDJEOND@?$AAk?$AAy?$AA?$AA@ 0000000180086798     libcpmt:winapinls.obj
 0002:0000c7a0       ??_C@_15DFGDLJBG@?$AAs?$AAw?$AA?$AA@ 00000001800867a0     libcpmt:winapinls.obj
 0002:0000c7a8       ??_C@_15BBFAICNG@?$AAu?$AAz?$AA?$AA@ 00000001800867a8     libcpmt:winapinls.obj
 0002:0000c7b0       ??_C@_15DKNDCGEA@?$AAt?$AAt?$AA?$AA@ 00000001800867b0     libcpmt:winapinls.obj
 0002:0000c7b8       ??_C@_15MGIFMDPL@?$AAp?$AAa?$AA?$AA@ 00000001800867b8     libcpmt:winapinls.obj
 0002:0000c7c0       ??_C@_15HCNDBBA@?$AAg?$AAu?$AA?$AA@ 00000001800867c0     libcpmt:winapinls.obj
 0002:0000c7c8       ??_C@_15FNBEIBON@?$AAt?$AAa?$AA?$AA@ 00000001800867c8     libcpmt:winapinls.obj
 0002:0000c7d0       ??_C@_15NCHGBGLK@?$AAt?$AAe?$AA?$AA@ 00000001800867d0     libcpmt:winapinls.obj
 0002:0000c7d8       ??_C@_15PHPHCBPF@?$AAk?$AAn?$AA?$AA@ 00000001800867d8     libcpmt:winapinls.obj
 0002:0000c7e0       ??_C@_15DLGBCKMP@?$AAm?$AAr?$AA?$AA@ 00000001800867e0     libcpmt:winapinls.obj
 0002:0000c7e8       ??_C@_15EABBLBFF@?$AAs?$AAa?$AA?$AA@ 00000001800867e8     libcpmt:winapinls.obj
 0002:0000c7f0       ??_C@_15CBKOMCOI@?$AAm?$AAn?$AA?$AA@ 00000001800867f0     libcpmt:winapinls.obj
 0002:0000c7f8       ??_C@_15CKDMCJAF@?$AAg?$AAl?$AA?$AA@ 00000001800867f8     libcpmt:winapinls.obj
 0002:0000c800       ??_C@_17CNJFBPG@?$AAk?$AAo?$AAk?$AA?$AA@ 0000000180086800     libcpmt:winapinls.obj
 0002:0000c808       ??_C@_17FFBJICPL@?$AAs?$AAy?$AAr?$AA?$AA@ 0000000180086808     libcpmt:winapinls.obj
 0002:0000c810       ??_C@_17KPNDCPAF@?$AAd?$AAi?$AAv?$AA?$AA@ 0000000180086810     libcpmt:winapinls.obj
 0002:0000c818       ??_C@_11LOCGONAA@?$AA?$AA@ 0000000180086818     libcpmt:winapinls.obj
 0002:0000c820       ??_C@_1M@OKAHONE@?$AAa?$AAr?$AA?9?$AAS?$AAA?$AA?$AA@ 0000000180086820     libcpmt:winapinls.obj
 0002:0000c830       ??_C@_1M@FFFIGIGK@?$AAb?$AAg?$AA?9?$AAB?$AAG?$AA?$AA@ 0000000180086830     libcpmt:winapinls.obj
 0002:0000c840       ??_C@_1M@BJNKEDC@?$AAc?$AAa?$AA?9?$AAE?$AAS?$AA?$AA@ 0000000180086840     libcpmt:winapinls.obj
 0002:0000c850       ??_C@_1M@CLNBBOPM@?$AAz?$AAh?$AA?9?$AAT?$AAW?$AA?$AA@ 0000000180086850     libcpmt:winapinls.obj
 0002:0000c860       ??_C@_1M@IJJHFJHA@?$AAc?$AAs?$AA?9?$AAC?$AAZ?$AA?$AA@ 0000000180086860     libcpmt:winapinls.obj
 0002:0000c870       ??_C@_1M@CLPEOBGI@?$AAd?$AAa?$AA?9?$AAD?$AAK?$AA?$AA@ 0000000180086870     libcpmt:winapinls.obj
 0002:0000c880       ??_C@_1M@MCMADGCB@?$AAd?$AAe?$AA?9?$AAD?$AAE?$AA?$AA@ 0000000180086880     libcpmt:winapinls.obj
 0002:0000c890       ??_C@_1M@OOCKEMAM@?$AAe?$AAl?$AA?9?$AAG?$AAR?$AA?$AA@ 0000000180086890     libcpmt:winapinls.obj
 0002:0000c8a0       ??_C@_1M@BMHNFIME@?$AAe?$AAn?$AA?9?$AAU?$AAS?$AA?$AA@ 00000001800868a0     libcpmt:winapinls.obj
 0002:0000c8b0       ??_C@_1M@DDNJFGID@?$AAf?$AAi?$AA?9?$AAF?$AAI?$AA?$AA@ 00000001800868b0     libcpmt:winapinls.obj
 0002:0000c8c0       ??_C@_1M@GLIPPMAC@?$AAf?$AAr?$AA?9?$AAF?$AAR?$AA?$AA@ 00000001800868c0     libcpmt:winapinls.obj
 0002:0000c8d0       ??_C@_1M@GFMCHPE@?$AAh?$AAe?$AA?9?$AAI?$AAL?$AA?$AA@ 00000001800868d0     libcpmt:winapinls.obj
 0002:0000c8e0       ??_C@_1M@MHLPGNKM@?$AAh?$AAu?$AA?9?$AAH?$AAU?$AA?$AA@ 00000001800868e0     libcpmt:winapinls.obj
 0002:0000c8f0       ??_C@_1M@LPDDNNPN@?$AAi?$AAs?$AA?9?$AAI?$AAS?$AA?$AA@ 00000001800868f0     libcpmt:winapinls.obj
 0002:0000c900       ??_C@_1M@MADIPODN@?$AAi?$AAt?$AA?9?$AAI?$AAT?$AA?$AA@ 0000000180086900     libcpmt:winapinls.obj
 0002:0000c910       ??_C@_1M@HPNHIDJI@?$AAj?$AAa?$AA?9?$AAJ?$AAP?$AA?$AA@ 0000000180086910     libcpmt:winapinls.obj
 0002:0000c920       ??_C@_1M@JLOOOEGK@?$AAk?$AAo?$AA?9?$AAK?$AAR?$AA?$AA@ 0000000180086920     libcpmt:winapinls.obj
 0002:0000c930       ??_C@_1M@IHBJJGG@?$AAn?$AAl?$AA?9?$AAN?$AAL?$AA?$AA@ 0000000180086930     libcpmt:winapinls.obj
 0002:0000c940       ??_C@_1M@EANAGDL@?$AAn?$AAb?$AA?9?$AAN?$AAO?$AA?$AA@ 0000000180086940     libcpmt:winapinls.obj
 0002:0000c950       ??_C@_1M@NEIEMEGP@?$AAp?$AAl?$AA?9?$AAP?$AAL?$AA?$AA@ 0000000180086950     libcpmt:winapinls.obj
 0002:0000c960       ??_C@_1M@BOCFIGEP@?$AAp?$AAt?$AA?9?$AAB?$AAR?$AA?$AA@ 0000000180086960     libcpmt:winapinls.obj
 0002:0000c970       ??_C@_1M@IMPFOPBG@?$AAr?$AAo?$AA?9?$AAR?$AAO?$AA?$AA@ 0000000180086970     libcpmt:winapinls.obj
 0002:0000c980       ??_C@_1M@IDNNEJMM@?$AAr?$AAu?$AA?9?$AAR?$AAU?$AA?$AA@ 0000000180086980     libcpmt:winapinls.obj
 0002:0000c990       ??_C@_1M@LILEEOGM@?$AAh?$AAr?$AA?9?$AAH?$AAR?$AA?$AA@ 0000000180086990     libcpmt:winapinls.obj
 0002:0000c9a0       ??_C@_1M@FKIFEHPB@?$AAs?$AAk?$AA?9?$AAS?$AAK?$AA?$AA@ 00000001800869a0     libcpmt:winapinls.obj
 0002:0000c9b0       ??_C@_1M@LJMAMNPJ@?$AAs?$AAq?$AA?9?$AAA?$AAL?$AA?$AA@ 00000001800869b0     libcpmt:winapinls.obj
 0002:0000c9c0       ??_C@_1M@GIAKDKJK@?$AAs?$AAv?$AA?9?$AAS?$AAE?$AA?$AA@ 00000001800869c0     libcpmt:winapinls.obj
 0002:0000c9d0       ??_C@_1M@MKJKIKCL@?$AAt?$AAh?$AA?9?$AAT?$AAH?$AA?$AA@ 00000001800869d0     libcpmt:winapinls.obj
 0002:0000c9e0       ??_C@_1M@MFLCCMPB@?$AAt?$AAr?$AA?9?$AAT?$AAR?$AA?$AA@ 00000001800869e0     libcpmt:winapinls.obj
 0002:0000c9f0       ??_C@_1M@OIJHDKJN@?$AAu?$AAr?$AA?9?$AAP?$AAK?$AA?$AA@ 00000001800869f0     libcpmt:winapinls.obj
 0002:0000ca00       ??_C@_1M@LHIPCIEK@?$AAi?$AAd?$AA?9?$AAI?$AAD?$AA?$AA@ 0000000180086a00     libcpmt:winapinls.obj
 0002:0000ca10       ??_C@_1M@MFMOBGI@?$AAu?$AAk?$AA?9?$AAU?$AAA?$AA?$AA@ 0000000180086a10     libcpmt:winapinls.obj
 0002:0000ca20       ??_C@_1M@OBGLJIPL@?$AAb?$AAe?$AA?9?$AAB?$AAY?$AA?$AA@ 0000000180086a20     libcpmt:winapinls.obj
 0002:0000ca30       ??_C@_1M@BCFAJEAD@?$AAs?$AAl?$AA?9?$AAS?$AAI?$AA?$AA@ 0000000180086a30     libcpmt:winapinls.obj
 0002:0000ca40       ??_C@_1M@FKFFEDDN@?$AAe?$AAt?$AA?9?$AAE?$AAE?$AA?$AA@ 0000000180086a40     libcpmt:winapinls.obj
 0002:0000ca50       ??_C@_1M@KGKKAACI@?$AAl?$AAv?$AA?9?$AAL?$AAV?$AA?$AA@ 0000000180086a50     libcpmt:winapinls.obj
 0002:0000ca60       ??_C@_1M@IFGBIJO@?$AAl?$AAt?$AA?9?$AAL?$AAT?$AA?$AA@ 0000000180086a60     libcpmt:winapinls.obj
 0002:0000ca70       ??_C@_1M@FGEAHEDM@?$AAf?$AAa?$AA?9?$AAI?$AAR?$AA?$AA@ 0000000180086a70     libcpmt:winapinls.obj
 0002:0000ca80       ??_C@_1M@KBMAIBFN@?$AAv?$AAi?$AA?9?$AAV?$AAN?$AA?$AA@ 0000000180086a80     libcpmt:winapinls.obj
 0002:0000ca90       ??_C@_1M@GPCBKDJK@?$AAh?$AAy?$AA?9?$AAA?$AAM?$AA?$AA@ 0000000180086a90     libcpmt:winapinls.obj
 0002:0000caa0       ??_C@_1BG@BECMDDJB@?$AAa?$AAz?$AA?9?$AAA?$AAZ?$AA?9?$AAL?$AAa?$AAt?$AAn?$AA?$AA@ 0000000180086aa0     libcpmt:winapinls.obj
 0002:0000cab8       ??_C@_1M@MAOFCAEA@?$AAe?$AAu?$AA?9?$AAE?$AAS?$AA?$AA@ 0000000180086ab8     libcpmt:winapinls.obj
 0002:0000cac8       ??_C@_1M@IGHABKPI@?$AAm?$AAk?$AA?9?$AAM?$AAK?$AA?$AA@ 0000000180086ac8     libcpmt:winapinls.obj
 0002:0000cad8       ??_C@_1M@IAIGNEJG@?$AAt?$AAn?$AA?9?$AAZ?$AAA?$AA?$AA@ 0000000180086ad8     libcpmt:winapinls.obj
 0002:0000cae8       ??_C@_1M@IIJCOJFA@?$AAx?$AAh?$AA?9?$AAZ?$AAA?$AA?$AA@ 0000000180086ae8     libcpmt:winapinls.obj
 0002:0000caf8       ??_C@_1M@LGPJHNJH@?$AAz?$AAu?$AA?9?$AAZ?$AAA?$AA?$AA@ 0000000180086af8     libcpmt:winapinls.obj
 0002:0000cb08       ??_C@_1M@HOKAOIO@?$AAa?$AAf?$AA?9?$AAZ?$AAA?$AA?$AA@ 0000000180086b08     libcpmt:winapinls.obj
 0002:0000cb18       ??_C@_1M@DPCLHLIE@?$AAk?$AAa?$AA?9?$AAG?$AAE?$AA?$AA@ 0000000180086b18     libcpmt:winapinls.obj
 0002:0000cb28       ??_C@_1M@BLKMHJBI@?$AAf?$AAo?$AA?9?$AAF?$AAO?$AA?$AA@ 0000000180086b28     libcpmt:winapinls.obj
 0002:0000cb38       ??_C@_1M@LGGJAPPB@?$AAh?$AAi?$AA?9?$AAI?$AAN?$AA?$AA@ 0000000180086b38     libcpmt:winapinls.obj
 0002:0000cb48       ??_C@_1M@FIKPIHFE@?$AAm?$AAt?$AA?9?$AAM?$AAT?$AA?$AA@ 0000000180086b48     libcpmt:winapinls.obj
 0002:0000cb58       ??_C@_1M@HEGGPBFA@?$AAs?$AAe?$AA?9?$AAN?$AAO?$AA?$AA@ 0000000180086b58     libcpmt:winapinls.obj
 0002:0000cb68       ??_C@_1M@EIBJEEPA@?$AAm?$AAs?$AA?9?$AAM?$AAY?$AA?$AA@ 0000000180086b68     libcpmt:winapinls.obj
 0002:0000cb78       ??_C@_1M@FHLBGMPP@?$AAk?$AAk?$AA?9?$AAK?$AAZ?$AA?$AA@ 0000000180086b78     libcpmt:winapinls.obj
 0002:0000cb88       ??_C@_1M@NGJJLCGI@?$AAk?$AAy?$AA?9?$AAK?$AAG?$AA?$AA@ 0000000180086b88     libcpmt:winapinls.obj
 0002:0000cb98       ??_C@_1M@GIENNBFC@?$AAs?$AAw?$AA?9?$AAK?$AAE?$AA?$AA@ 0000000180086b98     libcpmt:winapinls.obj
 0002:0000cba8       ??_C@_1BG@NDGMJIMJ@?$AAu?$AAz?$AA?9?$AAU?$AAZ?$AA?9?$AAL?$AAa?$AAt?$AAn?$AA?$AA@ 0000000180086ba8     libcpmt:winapinls.obj
 0002:0000cbc0       ??_C@_1M@IDCCIHBC@?$AAt?$AAt?$AA?9?$AAR?$AAU?$AA?$AA@ 0000000180086bc0     libcpmt:winapinls.obj
 0002:0000cbd0       ??_C@_1M@LOICPMOJ@?$AAb?$AAn?$AA?9?$AAI?$AAN?$AA?$AA@ 0000000180086bd0     libcpmt:winapinls.obj
 0002:0000cbe0       ??_C@_1M@KPKKNEAH@?$AAp?$AAa?$AA?9?$AAI?$AAN?$AA?$AA@ 0000000180086be0     libcpmt:winapinls.obj
 0002:0000cbf0       ??_C@_1M@PJGPPBOG@?$AAg?$AAu?$AA?9?$AAI?$AAN?$AA?$AA@ 0000000180086bf0     libcpmt:winapinls.obj
 0002:0000cc00       ??_C@_1M@KMKMOPHI@?$AAt?$AAa?$AA?9?$AAI?$AAN?$AA?$AA@ 0000000180086c00     libcpmt:winapinls.obj
 0002:0000cc10       ??_C@_1M@KFEHEPAC@?$AAt?$AAe?$AA?9?$AAI?$AAN?$AA?$AA@ 0000000180086c10     libcpmt:winapinls.obj
 0002:0000cc20       ??_C@_1M@CDCLMGHI@?$AAk?$AAn?$AA?9?$AAI?$AAN?$AA?$AA@ 0000000180086c20     libcpmt:winapinls.obj
 0002:0000cc30       ??_C@_1M@MIODLDKF@?$AAm?$AAl?$AA?9?$AAI?$AAN?$AA?$AA@ 0000000180086c30     libcpmt:winapinls.obj
 0002:0000cc40       ??_C@_1M@PBIEACPO@?$AAm?$AAr?$AA?9?$AAI?$AAN?$AA?$AA@ 0000000180086c40     libcpmt:winapinls.obj
 0002:0000cc50       ??_C@_1M@NIDEAGPH@?$AAs?$AAa?$AA?9?$AAI?$AAN?$AA?$AA@ 0000000180086c50     libcpmt:winapinls.obj
 0002:0000cc60       ??_C@_1M@FHIHCBIO@?$AAm?$AAn?$AA?9?$AAM?$AAN?$AA?$AA@ 0000000180086c60     libcpmt:winapinls.obj
 0002:0000cc70       ??_C@_1M@JAIJPENP@?$AAc?$AAy?$AA?9?$AAG?$AAB?$AA?$AA@ 0000000180086c70     libcpmt:winapinls.obj
 0002:0000cc80       ??_C@_1M@PHGFBEPN@?$AAg?$AAl?$AA?9?$AAE?$AAS?$AA?$AA@ 0000000180086c80     libcpmt:winapinls.obj
 0002:0000cc90       ??_C@_1O@KPIPDNCP@?$AAk?$AAo?$AAk?$AA?9?$AAI?$AAN?$AA?$AA@ 0000000180086c90     libcpmt:winapinls.obj
 0002:0000cca0       ??_C@_1O@KNHJLDJA@?$AAs?$AAy?$AAr?$AA?9?$AAS?$AAY?$AA?$AA@ 0000000180086ca0     libcpmt:winapinls.obj
 0002:0000ccb0       ??_C@_1O@MKEKBLAH@?$AAd?$AAi?$AAv?$AA?9?$AAM?$AAV?$AA?$AA@ 0000000180086cb0     libcpmt:winapinls.obj
 0002:0000ccc0       ??_C@_1O@OHDCKDDF@?$AAq?$AAu?$AAz?$AA?9?$AAB?$AAO?$AA?$AA@ 0000000180086cc0     libcpmt:winapinls.obj
 0002:0000ccd0       ??_C@_1M@LEPJNLFD@?$AAn?$AAs?$AA?9?$AAZ?$AAA?$AA?$AA@ 0000000180086cd0     libcpmt:winapinls.obj
 0002:0000cce0       ??_C@_1M@OMLEIIJB@?$AAm?$AAi?$AA?9?$AAN?$AAZ?$AA?$AA@ 0000000180086ce0     libcpmt:winapinls.obj
 0002:0000ccf0       ??_C@_1M@PMPEAILG@?$AAa?$AAr?$AA?9?$AAI?$AAQ?$AA?$AA@ 0000000180086cf0     libcpmt:winapinls.obj
 0002:0000cd00       ??_C@_1M@BIBDDEMK@?$AAz?$AAh?$AA?9?$AAC?$AAN?$AA?$AA@ 0000000180086d00     libcpmt:winapinls.obj
 0002:0000cd10       ??_C@_1M@CNKPNOEE@?$AAd?$AAe?$AA?9?$AAC?$AAH?$AA?$AA@ 0000000180086d10     libcpmt:winapinls.obj
 0002:0000cd20       ??_C@_1M@LKMGMLKO@?$AAe?$AAn?$AA?9?$AAG?$AAB?$AA?$AA@ 0000000180086d20     libcpmt:winapinls.obj
 0002:0000cd30       ??_C@_1M@PGKJFFGL@?$AAe?$AAs?$AA?9?$AAM?$AAX?$AA?$AA@ 0000000180086d30     libcpmt:winapinls.obj
 0002:0000cd40       ??_C@_1M@DNNANBDC@?$AAf?$AAr?$AA?9?$AAB?$AAE?$AA?$AA@ 0000000180086d40     libcpmt:winapinls.obj
 0002:0000cd50       ??_C@_1M@HLGMDFHM@?$AAi?$AAt?$AA?9?$AAC?$AAH?$AA?$AA@ 0000000180086d50     libcpmt:winapinls.obj
 0002:0000cd60       ??_C@_1M@CLLBGJH@?$AAn?$AAl?$AA?9?$AAB?$AAE?$AA?$AA@ 0000000180086d60     libcpmt:winapinls.obj
 0002:0000cd70       ??_C@_1M@BODBOGLF@?$AAn?$AAn?$AA?9?$AAN?$AAO?$AA?$AA@ 0000000180086d70     libcpmt:winapinls.obj
 0002:0000cd80       ??_C@_1M@HFFAHKAD@?$AAp?$AAt?$AA?9?$AAP?$AAT?$AA?$AA@ 0000000180086d80     libcpmt:winapinls.obj
 0002:0000cd90       ??_C@_1BG@LNOAKHIE@?$AAs?$AAr?$AA?9?$AAS?$AAP?$AA?9?$AAL?$AAa?$AAt?$AAn?$AA?$AA@ 0000000180086d90     libcpmt:winapinls.obj
 0002:0000cda8       ??_C@_1M@HBMHBGAK@?$AAs?$AAv?$AA?9?$AAF?$AAI?$AA?$AA@ 0000000180086da8     libcpmt:winapinls.obj
 0002:0000cdb8       ??_C@_1BG@DGCJGJBE@?$AAa?$AAz?$AA?9?$AAA?$AAZ?$AA?9?$AAC?$AAy?$AAr?$AAl?$AA?$AA@ 0000000180086db8     libcpmt:winapinls.obj
 0002:0000cdd0       ??_C@_1M@KEJDAAHB@?$AAs?$AAe?$AA?9?$AAS?$AAE?$AA?$AA@ 0000000180086dd0     libcpmt:winapinls.obj
 0002:0000cde0       ??_C@_1M@HEIBJJAD@?$AAm?$AAs?$AA?9?$AAB?$AAN?$AA?$AA@ 0000000180086de0     libcpmt:winapinls.obj
 0002:0000cdf0       ??_C@_1BG@PBGJMCEM@?$AAu?$AAz?$AA?9?$AAU?$AAZ?$AA?9?$AAC?$AAy?$AAr?$AAl?$AA?$AA@ 0000000180086df0     libcpmt:winapinls.obj
 0002:0000ce08       ??_C@_1O@LAOBCMDF@?$AAq?$AAu?$AAz?$AA?9?$AAE?$AAC?$AA?$AA@ 0000000180086e08     libcpmt:winapinls.obj
 0002:0000ce18       ??_C@_1M@POEEMAIO@?$AAa?$AAr?$AA?9?$AAE?$AAG?$AA?$AA@ 0000000180086e18     libcpmt:winapinls.obj
 0002:0000ce28       ??_C@_1M@EFAKDEDL@?$AAz?$AAh?$AA?9?$AAH?$AAK?$AA?$AA@ 0000000180086e28     libcpmt:winapinls.obj
 0002:0000ce38       ??_C@_1M@HKKIJHGI@?$AAd?$AAe?$AA?9?$AAA?$AAT?$AA?$AA@ 0000000180086e38     libcpmt:winapinls.obj
 0002:0000ce48       ??_C@_1M@KBFBEHJF@?$AAe?$AAn?$AA?9?$AAA?$AAU?$AA?$AA@ 0000000180086e48     libcpmt:winapinls.obj
 0002:0000ce58       ??_C@_1M@MNPLFAAH@?$AAe?$AAs?$AA?9?$AAE?$AAS?$AA?$AA@ 0000000180086e58     libcpmt:winapinls.obj
 0002:0000ce68       ??_C@_1M@HJOOJFMA@?$AAf?$AAr?$AA?9?$AAC?$AAA?$AA?$AA@ 0000000180086e68     libcpmt:winapinls.obj
 0002:0000ce78       ??_C@_1BG@JPOFPNAB@?$AAs?$AAr?$AA?9?$AAS?$AAP?$AA?9?$AAC?$AAy?$AAr?$AAl?$AA?$AA@ 0000000180086e78     libcpmt:winapinls.obj
 0002:0000ce90       ??_C@_1M@LNFOCMOB@?$AAs?$AAe?$AA?9?$AAF?$AAI?$AA?$AA@ 0000000180086e90     libcpmt:winapinls.obj
 0002:0000cea0       ??_C@_1O@MGJBOAMB@?$AAq?$AAu?$AAz?$AA?9?$AAP?$AAE?$AA?$AA@ 0000000180086ea0     libcpmt:winapinls.obj
 0002:0000ceb0       ??_C@_1M@GJINLBOK@?$AAa?$AAr?$AA?9?$AAL?$AAY?$AA?$AA@ 0000000180086eb0     libcpmt:winapinls.obj
 0002:0000cec0       ??_C@_1M@GGMNHJNL@?$AAz?$AAh?$AA?9?$AAS?$AAG?$AA?$AA@ 0000000180086ec0     libcpmt:winapinls.obj
 0002:0000ced0       ??_C@_1M@HOIKODND@?$AAd?$AAe?$AA?9?$AAL?$AAU?$AA?$AA@ 0000000180086ed0     libcpmt:winapinls.obj
 0002:0000cee0       ??_C@_1M@DDOCCGFG@?$AAe?$AAn?$AA?9?$AAC?$AAA?$AA?$AA@ 0000000180086ee0     libcpmt:winapinls.obj
 0002:0000cef0       ??_C@_1M@BNOEMJLF@?$AAe?$AAs?$AA?9?$AAG?$AAT?$AA?$AA@ 0000000180086ef0     libcpmt:winapinls.obj
 0002:0000cf00       ??_C@_1M@EOGNKEK@?$AAf?$AAr?$AA?9?$AAC?$AAH?$AA?$AA@ 0000000180086f00     libcpmt:winapinls.obj
 0002:0000cf10       ??_C@_1M@FLIDJFHL@?$AAh?$AAr?$AA?9?$AAB?$AAA?$AA?$AA@ 0000000180086f10     libcpmt:winapinls.obj
 0002:0000cf20       ??_C@_1O@FMCELNAJ@?$AAs?$AAm?$AAj?$AA?9?$AAN?$AAO?$AA?$AA@ 0000000180086f20     libcpmt:winapinls.obj
 0002:0000cf30       ??_C@_1M@JHGLJMGJ@?$AAa?$AAr?$AA?9?$AAD?$AAZ?$AA?$AA@ 0000000180086f30     libcpmt:winapinls.obj
 0002:0000cf40       ??_C@_1M@JKKFDCNP@?$AAz?$AAh?$AA?9?$AAM?$AAO?$AA?$AA@ 0000000180086f40     libcpmt:winapinls.obj
 0002:0000cf50       ??_C@_1M@GEEFALPE@?$AAd?$AAe?$AA?9?$AAL?$AAI?$AA?$AA@ 0000000180086f50     libcpmt:winapinls.obj
 0002:0000cf60       ??_C@_1M@IGEOFBG@?$AAe?$AAn?$AA?9?$AAN?$AAZ?$AA?$AA@ 0000000180086f60     libcpmt:winapinls.obj
 0002:0000cf70       ??_C@_1M@KDBONEHP@?$AAe?$AAs?$AA?9?$AAC?$AAR?$AA?$AA@ 0000000180086f70     libcpmt:winapinls.obj
 0002:0000cf80       ??_C@_1M@FHMDOHNN@?$AAf?$AAr?$AA?9?$AAL?$AAU?$AA?$AA@ 0000000180086f80     libcpmt:winapinls.obj
 0002:0000cf90       ??_C@_1BG@NFKKMAFG@?$AAb?$AAs?$AA?9?$AAB?$AAA?$AA?9?$AAL?$AAa?$AAt?$AAn?$AA?$AA@ 0000000180086f90     libcpmt:winapinls.obj
 0002:0000cfa8       ??_C@_1O@IMNBEMCI@?$AAs?$AAm?$AAj?$AA?9?$AAS?$AAE?$AA?$AA@ 0000000180086fa8     libcpmt:winapinls.obj
 0002:0000cfb8       ??_C@_1M@DHHMBNDP@?$AAa?$AAr?$AA?9?$AAM?$AAA?$AA?$AA@ 0000000180086fb8     libcpmt:winapinls.obj
 0002:0000cfc8       ??_C@_1M@BNBLJCGH@?$AAe?$AAn?$AA?9?$AAI?$AAE?$AA?$AA@ 0000000180086fc8     libcpmt:winapinls.obj
 0002:0000cfd8       ??_C@_1M@GEPAFMDL@?$AAe?$AAs?$AA?9?$AAP?$AAA?$AA?$AA@ 0000000180086fd8     libcpmt:winapinls.obj
 0002:0000cfe8       ??_C@_1M@OJONDMDL@?$AAf?$AAr?$AA?9?$AAM?$AAC?$AA?$AA@ 0000000180086fe8     libcpmt:winapinls.obj
 0002:0000cff8       ??_C@_1BG@OBCNFJB@?$AAs?$AAr?$AA?9?$AAB?$AAA?$AA?9?$AAL?$AAa?$AAt?$AAn?$AA?$AA@ 0000000180086ff8     libcpmt:winapinls.obj
 0002:0000d010       ??_C@_1O@KEMEEGPO@?$AAs?$AAm?$AAa?$AA?9?$AAN?$AAO?$AA?$AA@ 0000000180087010     libcpmt:winapinls.obj
 0002:0000d020       ??_C@_1M@ELMGFODK@?$AAa?$AAr?$AA?9?$AAT?$AAN?$AA?$AA@ 0000000180087020     libcpmt:winapinls.obj
 0002:0000d030       ??_C@_1M@BHDLHFAF@?$AAe?$AAn?$AA?9?$AAZ?$AAA?$AA?$AA@ 0000000180087030     libcpmt:winapinls.obj
 0002:0000d040       ??_C@_1M@BMGIGLIF@?$AAe?$AAs?$AA?9?$AAD?$AAO?$AA?$AA@ 0000000180087040     libcpmt:winapinls.obj
 0002:0000d050       ??_C@_1BG@CMBHIPBE@?$AAs?$AAr?$AA?9?$AAB?$AAA?$AA?9?$AAC?$AAy?$AAr?$AAl?$AA?$AA@ 0000000180087050     libcpmt:winapinls.obj
 0002:0000d068       ??_C@_1O@HEDBLHNP@?$AAs?$AAm?$AAa?$AA?9?$AAS?$AAE?$AA?$AA@ 0000000180087068     libcpmt:winapinls.obj
 0002:0000d078       ??_C@_1M@DAGCADIM@?$AAa?$AAr?$AA?9?$AAO?$AAM?$AA?$AA@ 0000000180087078     libcpmt:winapinls.obj
 0002:0000d088       ??_C@_1M@FODLMICG@?$AAe?$AAn?$AA?9?$AAJ?$AAM?$AA?$AA@ 0000000180087088     libcpmt:winapinls.obj
 0002:0000d098       ??_C@_1M@DNMLCIHB@?$AAe?$AAs?$AA?9?$AAV?$AAE?$AA?$AA@ 0000000180087098     libcpmt:winapinls.obj
 0002:0000d0a8       ??_C@_1O@EOKHMKJK@?$AAs?$AAm?$AAs?$AA?9?$AAF?$AAI?$AA?$AA@ 00000001800870a8     libcpmt:winapinls.obj
 0002:0000d0b8       ??_C@_1M@CAFJMKOF@?$AAa?$AAr?$AA?9?$AAY?$AAE?$AA?$AA@ 00000001800870b8     libcpmt:winapinls.obj
 0002:0000d0c8       ??_C@_1M@CBFHIJLI@?$AAe?$AAn?$AA?9?$AAC?$AAB?$AA?$AA@ 00000001800870c8     libcpmt:winapinls.obj
 0002:0000d0d8       ??_C@_1M@BGNFLDN@?$AAe?$AAs?$AA?9?$AAC?$AAO?$AA?$AA@ 00000001800870d8     libcpmt:winapinls.obj
 0002:0000d0e8       ??_C@_1O@JMPHMAMC@?$AAs?$AAm?$AAn?$AA?9?$AAF?$AAI?$AA?$AA@ 00000001800870e8     libcpmt:winapinls.obj
 0002:0000d0f8       ??_C@_1M@JLANABKE@?$AAa?$AAr?$AA?9?$AAS?$AAY?$AA?$AA@ 00000001800870f8     libcpmt:winapinls.obj
 0002:0000d108       ??_C@_1M@HPKGCFGN@?$AAe?$AAn?$AA?9?$AAB?$AAZ?$AA?$AA@ 0000000180087108     libcpmt:winapinls.obj
 0002:0000d118       ??_C@_1M@OLJCMLGM@?$AAe?$AAs?$AA?9?$AAP?$AAE?$AA?$AA@ 0000000180087118     libcpmt:winapinls.obj
 0002:0000d128       ??_C@_1M@MKKGFKLE@?$AAa?$AAr?$AA?9?$AAJ?$AAO?$AA?$AA@ 0000000180087128     libcpmt:winapinls.obj
 0002:0000d138       ??_C@_1M@EKPGLDNI@?$AAe?$AAn?$AA?9?$AAT?$AAT?$AA?$AA@ 0000000180087138     libcpmt:winapinls.obj
 0002:0000d148       ??_C@_1M@OONGHFHE@?$AAe?$AAs?$AA?9?$AAA?$AAR?$AA?$AA@ 0000000180087148     libcpmt:winapinls.obj
 0002:0000d158       ??_C@_1M@OOJFGBHE@?$AAa?$AAr?$AA?9?$AAL?$AAB?$AA?$AA@ 0000000180087158     libcpmt:winapinls.obj
 0002:0000d168       ??_C@_1M@GCEJHNEG@?$AAe?$AAn?$AA?9?$AAZ?$AAW?$AA?$AA@ 0000000180087168     libcpmt:winapinls.obj
 0002:0000d178       ??_C@_1M@JNOCAHJI@?$AAe?$AAs?$AA?9?$AAE?$AAC?$AA?$AA@ 0000000180087178     libcpmt:winapinls.obj
 0002:0000d188       ??_C@_1M@JEFHPGGB@?$AAa?$AAr?$AA?9?$AAK?$AAW?$AA?$AA@ 0000000180087188     libcpmt:winapinls.obj
 0002:0000d198       ??_C@_1M@MLKIBJOJ@?$AAe?$AAn?$AA?9?$AAP?$AAH?$AA?$AA@ 0000000180087198     libcpmt:winapinls.obj
 0002:0000d1a8       ??_C@_1M@BDNIPEND@?$AAe?$AAs?$AA?9?$AAC?$AAL?$AA?$AA@ 00000001800871a8     libcpmt:winapinls.obj
 0002:0000d1b8       ??_C@_1M@MPNMEKBD@?$AAa?$AAr?$AA?9?$AAA?$AAE?$AA?$AA@ 00000001800871b8     libcpmt:winapinls.obj
 0002:0000d1c8       ??_C@_1M@KBJALCPI@?$AAe?$AAs?$AA?9?$AAU?$AAY?$AA?$AA@ 00000001800871c8     libcpmt:winapinls.obj
 0002:0000d1d8       ??_C@_1M@LLCCOAGA@?$AAa?$AAr?$AA?9?$AAB?$AAH?$AA?$AA@ 00000001800871d8     libcpmt:winapinls.obj
 0002:0000d1e8       ??_C@_1M@PBFNCDEL@?$AAe?$AAs?$AA?9?$AAP?$AAY?$AA?$AA@ 00000001800871e8     libcpmt:winapinls.obj
 0002:0000d1f8       ??_C@_1M@EDGINPNP@?$AAa?$AAr?$AA?9?$AAQ?$AAA?$AA?$AA@ 00000001800871f8     libcpmt:winapinls.obj
 0002:0000d208       ??_C@_1M@MKDBIIJI@?$AAe?$AAs?$AA?9?$AAB?$AAO?$AA?$AA@ 0000000180087208     libcpmt:winapinls.obj
 0002:0000d218       ??_C@_1M@CPKKEBLD@?$AAe?$AAs?$AA?9?$AAS?$AAV?$AA?$AA@ 0000000180087218     libcpmt:winapinls.obj
 0002:0000d228       ??_C@_1M@NDBGMMJL@?$AAe?$AAs?$AA?9?$AAH?$AAN?$AA?$AA@ 0000000180087228     libcpmt:winapinls.obj
 0002:0000d238       ??_C@_1M@JIJIBHDP@?$AAe?$AAs?$AA?9?$AAN?$AAI?$AA?$AA@ 0000000180087238     libcpmt:winapinls.obj
 0002:0000d248       ??_C@_1M@CGFMKEEK@?$AAe?$AAs?$AA?9?$AAP?$AAR?$AA?$AA@ 0000000180087248     libcpmt:winapinls.obj
 0002:0000d258       ??_C@_1O@ICJHKIIK@?$AAz?$AAh?$AA?9?$AAC?$AAH?$AAT?$AA?$AA@ 0000000180087258     libcpmt:winapinls.obj
 0002:0000d268       ??_C@_15CLNEJCE@?$AAs?$AAr?$AA?$AA@ 0000000180087268     libcpmt:winapinls.obj
 0002:0000d270       ??_C@_1M@KAHEKEIG@?$AAa?$AAf?$AA?9?$AAz?$AAa?$AA?$AA@ 0000000180087270     libcpmt:winapinls.obj
 0002:0000d280       ??_C@_1M@GIECOABL@?$AAa?$AAr?$AA?9?$AAa?$AAe?$AA?$AA@ 0000000180087280     libcpmt:winapinls.obj
 0002:0000d290       ??_C@_1M@BMLMEKGI@?$AAa?$AAr?$AA?9?$AAb?$AAh?$AA?$AA@ 0000000180087290     libcpmt:winapinls.obj
 0002:0000d2a0       ??_C@_1M@DAPFDGGB@?$AAa?$AAr?$AA?9?$AAd?$AAz?$AA?$AA@ 00000001800872a0     libcpmt:winapinls.obj
 0002:0000d2b0       ??_C@_1M@FJNKGKIG@?$AAa?$AAr?$AA?9?$AAe?$AAg?$AA?$AA@ 00000001800872b0     libcpmt:winapinls.obj
 0002:0000d2c0       ??_C@_1M@FLGKKCLO@?$AAa?$AAr?$AA?9?$AAi?$AAq?$AA?$AA@ 00000001800872c0     libcpmt:winapinls.obj
 0002:0000d2d0       ??_C@_1M@GNDIPALM@?$AAa?$AAr?$AA?9?$AAj?$AAo?$AA?$AA@ 00000001800872d0     libcpmt:winapinls.obj
 0002:0000d2e0       ??_C@_1M@DDMJFMGJ@?$AAa?$AAr?$AA?9?$AAk?$AAw?$AA?$AA@ 00000001800872e0     libcpmt:winapinls.obj
 0002:0000d2f0       ??_C@_1M@EJALMLHM@?$AAa?$AAr?$AA?9?$AAl?$AAb?$AA?$AA@ 00000001800872f0     libcpmt:winapinls.obj
 0002:0000d300       ??_C@_1M@MOBDBLOC@?$AAa?$AAr?$AA?9?$AAl?$AAy?$AA?$AA@ 0000000180087300     libcpmt:winapinls.obj
 0002:0000d310       ??_C@_1M@JAOCLHDH@?$AAa?$AAr?$AA?9?$AAm?$AAa?$AA?$AA@ 0000000180087310     libcpmt:winapinls.obj
 0002:0000d320       ??_C@_1M@JHPMKJIE@?$AAa?$AAr?$AA?9?$AAo?$AAm?$AA?$AA@ 0000000180087320     libcpmt:winapinls.obj
 0002:0000d330       ??_C@_1M@OEPGHFNH@?$AAa?$AAr?$AA?9?$AAq?$AAa?$AA?$AA@ 0000000180087330     libcpmt:winapinls.obj
 0002:0000d340       ??_C@_1M@KJDONENM@?$AAa?$AAr?$AA?9?$AAs?$AAa?$AA?$AA@ 0000000180087340     libcpmt:winapinls.obj
 0002:0000d350       ??_C@_1M@DMJDKLKM@?$AAa?$AAr?$AA?9?$AAs?$AAy?$AA?$AA@ 0000000180087350     libcpmt:winapinls.obj
 0002:0000d360       ??_C@_1M@OMFIPEDC@?$AAa?$AAr?$AA?9?$AAt?$AAn?$AA?$AA@ 0000000180087360     libcpmt:winapinls.obj
 0002:0000d370       ??_C@_1M@IHMHGAON@?$AAa?$AAr?$AA?9?$AAy?$AAe?$AA?$AA@ 0000000180087370     libcpmt:winapinls.obj
 0002:0000d380       ??_C@_1BG@KDCPGJGB@?$AAa?$AAz?$AA?9?$AAa?$AAz?$AA?9?$AAc?$AAy?$AAr?$AAl?$AA?$AA@ 0000000180087380     libcpmt:winapinls.obj
 0002:0000d398       ??_C@_1BG@IBCKDDOE@?$AAa?$AAz?$AA?9?$AAa?$AAz?$AA?9?$AAl?$AAa?$AAt?$AAn?$AA?$AA@ 0000000180087398     libcpmt:winapinls.obj
 0002:0000d3b0       ??_C@_1M@EGPFDCPD@?$AAb?$AAe?$AA?9?$AAb?$AAy?$AA?$AA@ 00000001800873b0     libcpmt:winapinls.obj
 0002:0000d3c0       ??_C@_1M@PCMGMCGC@?$AAb?$AAg?$AA?9?$AAb?$AAg?$AA?$AA@ 00000001800873c0     libcpmt:winapinls.obj
 0002:0000d3d0       ??_C@_1M@BJBMFGOB@?$AAb?$AAn?$AA?9?$AAi?$AAn?$AA?$AA@ 00000001800873d0     libcpmt:winapinls.obj
 0002:0000d3e0       ??_C@_1BG@EAKMMACD@?$AAb?$AAs?$AA?9?$AAb?$AAa?$AA?9?$AAl?$AAa?$AAt?$AAn?$AA?$AA@ 00000001800873e0     libcpmt:winapinls.obj
 0002:0000d3f8       ??_C@_1M@KGADAODK@?$AAc?$AAa?$AA?9?$AAe?$AAs?$AA?$AA@ 00000001800873f8     libcpmt:winapinls.obj
 0002:0000d408       ??_C@_1M@COAJPDHI@?$AAc?$AAs?$AA?9?$AAc?$AAz?$AA?$AA@ 0000000180087408     libcpmt:winapinls.obj
 0002:0000d418       ??_C@_1M@DHBHFONH@?$AAc?$AAy?$AA?9?$AAg?$AAb?$AA?$AA@ 0000000180087418     libcpmt:winapinls.obj
 0002:0000d428       ??_C@_1M@IMGKELGA@?$AAd?$AAa?$AA?9?$AAd?$AAk?$AA?$AA@ 0000000180087428     libcpmt:winapinls.obj
 0002:0000d438       ??_C@_1M@NNDGDNGA@?$AAd?$AAe?$AA?9?$AAa?$AAt?$AA?$AA@ 0000000180087438     libcpmt:winapinls.obj
 0002:0000d448       ??_C@_1M@IKDBHEEM@?$AAd?$AAe?$AA?9?$AAc?$AAh?$AA?$AA@ 0000000180087448     libcpmt:winapinls.obj
 0002:0000d458       ??_C@_1M@GFFOJMCJ@?$AAd?$AAe?$AA?9?$AAd?$AAe?$AA?$AA@ 0000000180087458     libcpmt:winapinls.obj
 0002:0000d468       ??_C@_1M@MDNLKBPM@?$AAd?$AAe?$AA?9?$AAl?$AAi?$AA?$AA@ 0000000180087468     libcpmt:winapinls.obj
 0002:0000d478       ??_C@_1M@NJBEEJNL@?$AAd?$AAe?$AA?9?$AAl?$AAu?$AA?$AA@ 0000000180087478     libcpmt:winapinls.obj
 0002:0000d488       ??_C@_1O@GNNELBAP@?$AAd?$AAi?$AAv?$AA?9?$AAm?$AAv?$AA?$AA@ 0000000180087488     libcpmt:winapinls.obj
 0002:0000d498       ??_C@_1M@EJLEOGAE@?$AAe?$AAl?$AA?9?$AAg?$AAr?$AA?$AA@ 0000000180087498     libcpmt:winapinls.obj
 0002:0000d4a8       ??_C@_1M@GMPONJN@?$AAe?$AAn?$AA?9?$AAa?$AAu?$AA?$AA@ 00000001800874a8     libcpmt:winapinls.obj
 0002:0000d4b8       ??_C@_1M@NIDIIPGF@?$AAe?$AAn?$AA?9?$AAb?$AAz?$AA?$AA@ 00000001800874b8     libcpmt:winapinls.obj
 0002:0000d4c8       ??_C@_1M@JEHMIMFO@?$AAe?$AAn?$AA?9?$AAc?$AAa?$AA?$AA@ 00000001800874c8     libcpmt:winapinls.obj
 0002:0000d4d8       ??_C@_1M@IGMJCDLA@?$AAe?$AAn?$AA?9?$AAc?$AAb?$AA?$AA@ 00000001800874d8     libcpmt:winapinls.obj
 0002:0000d4e8       ??_C@_1M@BNFIGBKG@?$AAe?$AAn?$AA?9?$AAg?$AAb?$AA?$AA@ 00000001800874e8     libcpmt:winapinls.obj
 0002:0000d4f8       ??_C@_1M@LKIFDIGP@?$AAe?$AAn?$AA?9?$AAi?$AAe?$AA?$AA@ 00000001800874f8     libcpmt:winapinls.obj
 0002:0000d508       ??_C@_1M@PJKFGCCO@?$AAe?$AAn?$AA?9?$AAj?$AAm?$AA?$AA@ 0000000180087508     libcpmt:winapinls.obj
 0002:0000d518       ??_C@_1M@KPPKEPBO@?$AAe?$AAn?$AA?9?$AAn?$AAz?$AA?$AA@ 0000000180087518     libcpmt:winapinls.obj
 0002:0000d528       ??_C@_1M@GMDGLDOB@?$AAe?$AAn?$AA?9?$AAp?$AAh?$AA?$AA@ 0000000180087528     libcpmt:winapinls.obj
 0002:0000d538       ??_C@_1M@ONGIBJNA@?$AAe?$AAn?$AA?9?$AAt?$AAt?$AA?$AA@ 0000000180087538     libcpmt:winapinls.obj
 0002:0000d548       ??_C@_1M@LLODPCMM@?$AAe?$AAn?$AA?9?$AAu?$AAs?$AA?$AA@ 0000000180087548     libcpmt:winapinls.obj
 0002:0000d558       ??_C@_1M@LAKFNPAN@?$AAe?$AAn?$AA?9?$AAz?$AAa?$AA?$AA@ 0000000180087558     libcpmt:winapinls.obj
 0002:0000d568       ??_C@_1M@MFNHNHEO@?$AAe?$AAn?$AA?9?$AAz?$AAw?$AA?$AA@ 0000000180087568     libcpmt:winapinls.obj
 0002:0000d578       ??_C@_1M@EJEINPHM@?$AAe?$AAs?$AA?9?$AAa?$AAr?$AA?$AA@ 0000000180087578     libcpmt:winapinls.obj
 0002:0000d588       ??_C@_1M@GNKPCCJA@?$AAe?$AAs?$AA?9?$AAb?$AAo?$AA?$AA@ 0000000180087588     libcpmt:winapinls.obj
 0002:0000d598       ??_C@_1M@LEEGFONL@?$AAe?$AAs?$AA?9?$AAc?$AAl?$AA?$AA@ 0000000180087598     libcpmt:winapinls.obj
 0002:0000d5a8       ??_C@_1M@KGPDPBDF@?$AAe?$AAs?$AA?9?$AAc?$AAo?$AA?$AA@ 00000001800875a8     libcpmt:winapinls.obj
 0002:0000d5b8       ??_C@_1M@EIAHOHH@?$AAe?$AAs?$AA?9?$AAc?$AAr?$AA?$AA@ 00000001800875b8     libcpmt:winapinls.obj
